
MC_RthTEC_V0_0_5.elf:     file format elf32-avr

Sections:
Idx Name          Size      VMA       LMA       File off  Algn
  0 .data         000001ee  00800200  00003eac  00003f60  2**0
                  CONTENTS, ALLOC, LOAD, DATA
  1 .text         00003eac  00000000  00000000  000000b4  2**1
                  CONTENTS, ALLOC, LOAD, READONLY, CODE
  2 .bss          00000303  008003ee  008003ee  0000414e  2**0
                  ALLOC
  3 .eeprom       00000051  00810000  00810000  0000414e  2**0
                  CONTENTS, ALLOC, LOAD, DATA
  4 .comment      00000030  00000000  00000000  0000419f  2**0
                  CONTENTS, READONLY
  5 .note.gnu.avr.deviceinfo 00000040  00000000  00000000  000041d0  2**2
                  CONTENTS, READONLY
  6 .debug_aranges 00000660  00000000  00000000  00004210  2**3
                  CONTENTS, READONLY, DEBUGGING
  7 .debug_info   0000bc01  00000000  00000000  00004870  2**0
                  CONTENTS, READONLY, DEBUGGING
  8 .debug_abbrev 000023c3  00000000  00000000  00010471  2**0
                  CONTENTS, READONLY, DEBUGGING
  9 .debug_line   00004a4e  00000000  00000000  00012834  2**0
                  CONTENTS, READONLY, DEBUGGING
 10 .debug_frame  000010a8  00000000  00000000  00017284  2**2
                  CONTENTS, READONLY, DEBUGGING
 11 .debug_str    0000194e  00000000  00000000  0001832c  2**0
                  CONTENTS, READONLY, DEBUGGING
 12 .debug_loc    0000566a  00000000  00000000  00019c7a  2**0
                  CONTENTS, READONLY, DEBUGGING
 13 .debug_ranges 000004d8  00000000  00000000  0001f2e4  2**0
                  CONTENTS, READONLY, DEBUGGING

Disassembly of section .text:

00000000 <__vectors>:
       0:	8f c0       	rjmp	.+286    	; 0x120 <__ctors_end>
       2:	00 00       	nop
       4:	ae c0       	rjmp	.+348    	; 0x162 <__bad_interrupt>
       6:	00 00       	nop
       8:	ac c0       	rjmp	.+344    	; 0x162 <__bad_interrupt>
       a:	00 00       	nop
       c:	aa c0       	rjmp	.+340    	; 0x162 <__bad_interrupt>
       e:	00 00       	nop
      10:	a8 c0       	rjmp	.+336    	; 0x162 <__bad_interrupt>
      12:	00 00       	nop
      14:	a6 c0       	rjmp	.+332    	; 0x162 <__bad_interrupt>
      16:	00 00       	nop
      18:	a4 c0       	rjmp	.+328    	; 0x162 <__bad_interrupt>
      1a:	00 00       	nop
      1c:	a2 c0       	rjmp	.+324    	; 0x162 <__bad_interrupt>
      1e:	00 00       	nop
      20:	a0 c0       	rjmp	.+320    	; 0x162 <__bad_interrupt>
      22:	00 00       	nop
      24:	9e c0       	rjmp	.+316    	; 0x162 <__bad_interrupt>
      26:	00 00       	nop
      28:	9c c0       	rjmp	.+312    	; 0x162 <__bad_interrupt>
      2a:	00 00       	nop
      2c:	9a c0       	rjmp	.+308    	; 0x162 <__bad_interrupt>
      2e:	00 00       	nop
      30:	98 c0       	rjmp	.+304    	; 0x162 <__bad_interrupt>
      32:	00 00       	nop
      34:	0c 94 b8 0d 	jmp	0x1b70	; 0x1b70 <__vector_13>
      38:	94 c0       	rjmp	.+296    	; 0x162 <__bad_interrupt>
      3a:	00 00       	nop
      3c:	92 c0       	rjmp	.+292    	; 0x162 <__bad_interrupt>
      3e:	00 00       	nop
      40:	90 c0       	rjmp	.+288    	; 0x162 <__bad_interrupt>
      42:	00 00       	nop
      44:	8e c0       	rjmp	.+284    	; 0x162 <__bad_interrupt>
      46:	00 00       	nop
      48:	8c c0       	rjmp	.+280    	; 0x162 <__bad_interrupt>
      4a:	00 00       	nop
      4c:	8a c0       	rjmp	.+276    	; 0x162 <__bad_interrupt>
      4e:	00 00       	nop
      50:	88 c0       	rjmp	.+272    	; 0x162 <__bad_interrupt>
      52:	00 00       	nop
      54:	86 c0       	rjmp	.+268    	; 0x162 <__bad_interrupt>
      56:	00 00       	nop
      58:	84 c0       	rjmp	.+264    	; 0x162 <__bad_interrupt>
      5a:	00 00       	nop
      5c:	82 c0       	rjmp	.+260    	; 0x162 <__bad_interrupt>
      5e:	00 00       	nop
      60:	0c 94 53 1d 	jmp	0x3aa6	; 0x3aa6 <__vector_24>
      64:	0c 94 d5 1a 	jmp	0x35aa	; 0x35aa <__vector_25>
      68:	7c c0       	rjmp	.+248    	; 0x162 <__bad_interrupt>
      6a:	00 00       	nop
      6c:	0c 94 29 1b 	jmp	0x3652	; 0x3652 <__vector_27>
      70:	78 c0       	rjmp	.+240    	; 0x162 <__bad_interrupt>
      72:	00 00       	nop
      74:	76 c0       	rjmp	.+236    	; 0x162 <__bad_interrupt>
      76:	00 00       	nop
      78:	74 c0       	rjmp	.+232    	; 0x162 <__bad_interrupt>
      7a:	00 00       	nop
      7c:	72 c0       	rjmp	.+228    	; 0x162 <__bad_interrupt>
      7e:	00 00       	nop
      80:	70 c0       	rjmp	.+224    	; 0x162 <__bad_interrupt>
      82:	00 00       	nop
      84:	6e c0       	rjmp	.+220    	; 0x162 <__bad_interrupt>
      86:	00 00       	nop
      88:	6c c0       	rjmp	.+216    	; 0x162 <__bad_interrupt>
      8a:	00 00       	nop
      8c:	6a c0       	rjmp	.+212    	; 0x162 <__bad_interrupt>
      8e:	00 00       	nop
      90:	68 c0       	rjmp	.+208    	; 0x162 <__bad_interrupt>
      92:	00 00       	nop
      94:	66 c0       	rjmp	.+204    	; 0x162 <__bad_interrupt>
      96:	00 00       	nop
      98:	64 c0       	rjmp	.+200    	; 0x162 <__bad_interrupt>
      9a:	00 00       	nop
      9c:	62 c0       	rjmp	.+196    	; 0x162 <__bad_interrupt>
      9e:	00 00       	nop
      a0:	60 c0       	rjmp	.+192    	; 0x162 <__bad_interrupt>
      a2:	00 00       	nop
      a4:	5e c0       	rjmp	.+188    	; 0x162 <__bad_interrupt>
      a6:	00 00       	nop
      a8:	5c c0       	rjmp	.+184    	; 0x162 <__bad_interrupt>
      aa:	00 00       	nop
      ac:	5a c0       	rjmp	.+180    	; 0x162 <__bad_interrupt>
      ae:	00 00       	nop
      b0:	58 c0       	rjmp	.+176    	; 0x162 <__bad_interrupt>
      b2:	00 00       	nop
      b4:	56 c0       	rjmp	.+172    	; 0x162 <__bad_interrupt>
      b6:	00 00       	nop
      b8:	54 c0       	rjmp	.+168    	; 0x162 <__bad_interrupt>
      ba:	00 00       	nop
      bc:	0c 94 ef 0f 	jmp	0x1fde	; 0x1fde <__vector_47>
      c0:	0c 94 1d 10 	jmp	0x203a	; 0x203a <__vector_48>
      c4:	0c 94 5e 10 	jmp	0x20bc	; 0x20bc <__vector_49>
      c8:	0c 94 77 0f 	jmp	0x1eee	; 0x1eee <__vector_50>
      cc:	0c 94 00 1d 	jmp	0x3a00	; 0x3a00 <__vector_51>
      d0:	48 c0       	rjmp	.+144    	; 0x162 <__bad_interrupt>
      d2:	00 00       	nop
      d4:	46 c0       	rjmp	.+140    	; 0x162 <__bad_interrupt>
      d6:	00 00       	nop
      d8:	44 c0       	rjmp	.+136    	; 0x162 <__bad_interrupt>
      da:	00 00       	nop
      dc:	42 c0       	rjmp	.+132    	; 0x162 <__bad_interrupt>
      de:	00 00       	nop
      e0:	40 c0       	rjmp	.+128    	; 0x162 <__bad_interrupt>
      e2:	00 00       	nop
      e4:	a2 08       	sbc	r10, r2
      e6:	8e 08       	sbc	r8, r14
      e8:	90 08       	sbc	r9, r0
      ea:	92 08       	sbc	r9, r2
      ec:	94 08       	sbc	r9, r4
      ee:	96 08       	sbc	r9, r6
      f0:	98 08       	sbc	r9, r8
      f2:	9a 08       	sbc	r9, r10
      f4:	9c 08       	sbc	r9, r12
      f6:	9e 08       	sbc	r9, r14
      f8:	f9 17       	cp	r31, r25
      fa:	dc 18       	sub	r13, r12
      fc:	e4 18       	sub	r14, r4
      fe:	e4 18       	sub	r14, r4
     100:	e4 18       	sub	r14, r4
     102:	e0 18       	sub	r14, r0
     104:	e4 18       	sub	r14, r4
     106:	f5 17       	cp	r31, r21
     108:	e4 18       	sub	r14, r4
     10a:	e4 18       	sub	r14, r4
     10c:	e4 18       	sub	r14, r4
     10e:	6a 16       	cp	r6, r26
     110:	31 17       	cp	r19, r17
     112:	e4 18       	sub	r14, r4
     114:	e4 18       	sub	r14, r4
     116:	e4 18       	sub	r14, r4
     118:	e4 18       	sub	r14, r4
     11a:	e4 18       	sub	r14, r4
     11c:	e4 18       	sub	r14, r4
     11e:	ba 18       	sub	r11, r10

00000120 <__ctors_end>:
     120:	11 24       	eor	r1, r1
     122:	1f be       	out	0x3f, r1	; 63
     124:	cf ef       	ldi	r28, 0xFF	; 255
     126:	d1 e2       	ldi	r29, 0x21	; 33
     128:	de bf       	out	0x3e, r29	; 62
     12a:	cd bf       	out	0x3d, r28	; 61
     12c:	00 e0       	ldi	r16, 0x00	; 0
     12e:	0c bf       	out	0x3c, r16	; 60

00000130 <__do_copy_data>:
     130:	13 e0       	ldi	r17, 0x03	; 3
     132:	a0 e0       	ldi	r26, 0x00	; 0
     134:	b2 e0       	ldi	r27, 0x02	; 2
     136:	ec ea       	ldi	r30, 0xAC	; 172
     138:	fe e3       	ldi	r31, 0x3E	; 62
     13a:	00 e0       	ldi	r16, 0x00	; 0
     13c:	0b bf       	out	0x3b, r16	; 59
     13e:	02 c0       	rjmp	.+4      	; 0x144 <__do_copy_data+0x14>
     140:	07 90       	elpm	r0, Z+
     142:	0d 92       	st	X+, r0
     144:	ae 3e       	cpi	r26, 0xEE	; 238
     146:	b1 07       	cpc	r27, r17
     148:	d9 f7       	brne	.-10     	; 0x140 <__do_copy_data+0x10>

0000014a <__do_clear_bss>:
     14a:	26 e0       	ldi	r18, 0x06	; 6
     14c:	ae ee       	ldi	r26, 0xEE	; 238
     14e:	b3 e0       	ldi	r27, 0x03	; 3
     150:	01 c0       	rjmp	.+2      	; 0x154 <.do_clear_bss_start>

00000152 <.do_clear_bss_loop>:
     152:	1d 92       	st	X+, r1

00000154 <.do_clear_bss_start>:
     154:	a1 3f       	cpi	r26, 0xF1	; 241
     156:	b2 07       	cpc	r27, r18
     158:	e1 f7       	brne	.-8      	; 0x152 <.do_clear_bss_loop>
     15a:	0e 94 1d 0d 	call	0x1a3a	; 0x1a3a <main>
     15e:	0c 94 54 1f 	jmp	0x3ea8	; 0x3ea8 <_exit>

00000162 <__bad_interrupt>:
     162:	4e cf       	rjmp	.-356    	; 0x0 <__vectors>

00000164 <SPI_Send>:
void DAC_Set(uint16_t val, volatile uint8_t *port, uint8_t pin, uint8_t ch)
{
	SPI_Send(DAC_REG_DAC | ch, port, pin);
	SPI_Send(val>>8, port, pin);
	SPI_Send(val, port, pin);		
}
     164:	0f 93       	push	r16
     166:	1f 93       	push	r17
     168:	cf 93       	push	r28
     16a:	df 93       	push	r29
     16c:	d8 2f       	mov	r29, r24
     16e:	8b 01       	movw	r16, r22
     170:	c4 2f       	mov	r28, r20
     172:	80 91 ee 03 	lds	r24, 0x03EE	; 0x8003ee <__data_end>
     176:	84 13       	cpse	r24, r20
     178:	07 c0       	rjmp	.+14     	; 0x188 <SPI_Send+0x24>
     17a:	80 91 ef 03 	lds	r24, 0x03EF	; 0x8003ef <last_ChipSelectPort>
     17e:	90 91 f0 03 	lds	r25, 0x03F0	; 0x8003f0 <last_ChipSelectPort+0x1>
     182:	86 17       	cp	r24, r22
     184:	97 07       	cpc	r25, r23
     186:	99 f0       	breq	.+38     	; 0x1ae <SPI_Send+0x4a>
     188:	0e 94 ea 1c 	call	0x39d4	; 0x39d4 <USART_SPI_TXWaiting>
     18c:	81 11       	cpse	r24, r1
     18e:	fc cf       	rjmp	.-8      	; 0x188 <SPI_Send+0x24>
     190:	10 93 f0 03 	sts	0x03F0, r17	; 0x8003f0 <last_ChipSelectPort+0x1>
     194:	00 93 ef 03 	sts	0x03EF, r16	; 0x8003ef <last_ChipSelectPort>
     198:	c0 93 ee 03 	sts	0x03EE, r28	; 0x8003ee <__data_end>
     19c:	23 e0       	ldi	r18, 0x03	; 3
     19e:	41 e0       	ldi	r20, 0x01	; 1
     1a0:	6c 2f       	mov	r22, r28
     1a2:	c8 01       	movw	r24, r16
     1a4:	0e 94 7c 1c 	call	0x38f8	; 0x38f8 <USART_SPI_SetCS>
     1a8:	8c b5       	in	r24, 0x2c	; 44
     1aa:	84 60       	ori	r24, 0x04	; 4
     1ac:	8c bd       	out	0x2c, r24	; 44
     1ae:	8d 2f       	mov	r24, r29
     1b0:	0e 94 d7 1d 	call	0x3bae	; 0x3bae <USART_SPI_TxByte>
     1b4:	df 91       	pop	r29
     1b6:	cf 91       	pop	r28
     1b8:	1f 91       	pop	r17
     1ba:	0f 91       	pop	r16
     1bc:	08 95       	ret

000001be <MOSFETSource_set_Heat_Current>:
		
}
*/

void MOSFETSource_set_Heat_Current(uint16_t heatCurrent, uint8_t slot)
{
     1be:	1f 93       	push	r17
     1c0:	cf 93       	push	r28
     1c2:	df 93       	push	r29
     1c4:	c6 2f       	mov	r28, r22
	-channel (Einschubkarten-Platz)
	-Heizquelle immer an ChipSelect [channel] & Kanal A
	*/
	
	//Binär Wert berechnen
	uint16_t binary_value = (((uint32_t) heatCurrent) * 0xffff) / 5000;
     1c6:	9c 01       	movw	r18, r24
     1c8:	af ef       	ldi	r26, 0xFF	; 255
     1ca:	bf ef       	ldi	r27, 0xFF	; 255
     1cc:	0e 94 80 1e 	call	0x3d00	; 0x3d00 <__umulhisi3>
     1d0:	28 e8       	ldi	r18, 0x88	; 136
     1d2:	33 e1       	ldi	r19, 0x13	; 19
     1d4:	40 e0       	ldi	r20, 0x00	; 0
     1d6:	50 e0       	ldi	r21, 0x00	; 0
     1d8:	0e 94 3a 1e 	call	0x3c74	; 0x3c74 <__udivmodsi4>
     1dc:	d2 2f       	mov	r29, r18
     1de:	13 2f       	mov	r17, r19
	
	//Senden
	SPI_Send(DAC_REG_DAC | DAC_ADR_DAC_A, &IO_Port3, slot);
     1e0:	4c 2f       	mov	r20, r28
     1e2:	62 e2       	ldi	r22, 0x22	; 34
     1e4:	70 e0       	ldi	r23, 0x00	; 0
     1e6:	80 e0       	ldi	r24, 0x00	; 0
     1e8:	bd df       	rcall	.-134    	; 0x164 <SPI_Send>
	SPI_Send(binary_value>>8, &IO_Port3, slot);
     1ea:	4c 2f       	mov	r20, r28
     1ec:	62 e2       	ldi	r22, 0x22	; 34
     1ee:	70 e0       	ldi	r23, 0x00	; 0
     1f0:	81 2f       	mov	r24, r17
     1f2:	b8 df       	rcall	.-144    	; 0x164 <SPI_Send>
	SPI_Send(binary_value, &IO_Port3, slot);	
     1f4:	4c 2f       	mov	r20, r28
     1f6:	62 e2       	ldi	r22, 0x22	; 34
     1f8:	70 e0       	ldi	r23, 0x00	; 0
     1fa:	8d 2f       	mov	r24, r29
     1fc:	b3 df       	rcall	.-154    	; 0x164 <SPI_Send>
}
     1fe:	df 91       	pop	r29
     200:	cf 91       	pop	r28
     202:	1f 91       	pop	r17
     204:	08 95       	ret

00000206 <MOSFETSource_set_Meas_Current>:

void MOSFETSource_set_Meas_Current(uint16_t measCurrent, uint8_t slot)
{
     206:	1f 93       	push	r17
     208:	cf 93       	push	r28
     20a:	df 93       	push	r29
     20c:	c6 2f       	mov	r28, r22
	-channel (Einschubkarten-Platz)
	-Heizquelle immer an ChipSelect [channel] & Kanal B
	*/
	
	//Binär Wert berechnen
	uint16_t binary_value = (((uint32_t) measCurrent) * 0xffff) / 250;
     20e:	9c 01       	movw	r18, r24
     210:	af ef       	ldi	r26, 0xFF	; 255
     212:	bf ef       	ldi	r27, 0xFF	; 255
     214:	0e 94 80 1e 	call	0x3d00	; 0x3d00 <__umulhisi3>
     218:	2a ef       	ldi	r18, 0xFA	; 250
     21a:	30 e0       	ldi	r19, 0x00	; 0
     21c:	40 e0       	ldi	r20, 0x00	; 0
     21e:	50 e0       	ldi	r21, 0x00	; 0
     220:	0e 94 3a 1e 	call	0x3c74	; 0x3c74 <__udivmodsi4>
     224:	d2 2f       	mov	r29, r18
     226:	13 2f       	mov	r17, r19
	
	//Senden	
	SPI_Send(DAC_REG_DAC | DAC_ADR_DAC_B, &IO_Port3, slot);
     228:	4c 2f       	mov	r20, r28
     22a:	62 e2       	ldi	r22, 0x22	; 34
     22c:	70 e0       	ldi	r23, 0x00	; 0
     22e:	82 e0       	ldi	r24, 0x02	; 2
     230:	99 df       	rcall	.-206    	; 0x164 <SPI_Send>
	SPI_Send(binary_value>>8, &IO_Port3, slot);
     232:	4c 2f       	mov	r20, r28
     234:	62 e2       	ldi	r22, 0x22	; 34
     236:	70 e0       	ldi	r23, 0x00	; 0
     238:	81 2f       	mov	r24, r17
     23a:	94 df       	rcall	.-216    	; 0x164 <SPI_Send>
	SPI_Send(binary_value, &IO_Port3, slot);	
     23c:	4c 2f       	mov	r20, r28
     23e:	62 e2       	ldi	r22, 0x22	; 34
     240:	70 e0       	ldi	r23, 0x00	; 0
     242:	8d 2f       	mov	r24, r29
     244:	8f df       	rcall	.-226    	; 0x164 <SPI_Send>
		
}
     246:	df 91       	pop	r29
     248:	cf 91       	pop	r28
     24a:	1f 91       	pop	r17
     24c:	08 95       	ret

0000024e <MOSFETSource_set_Meas_Voltage>:

void MOSFETSource_set_Meas_Voltage(uint16_t measVoltage, uint8_t slot){
     24e:	1f 93       	push	r17
     250:	cf 93       	push	r28
     252:	df 93       	push	r29
     254:	c6 2f       	mov	r28, r22
	-channel (Einschubkarten-Platz)
	-Heizquelle immer an ChipSelect [channel] & Kanal B
	*/
	
	//Binär Wert berechnen (URef = 0,33 * U_A- 1,61V)
	uint16_t binary_value = ((((uint32_t)measVoltage) / 3 * 10 - 1610) * 0xffff) / 5000;
     256:	9c 01       	movw	r18, r24
     258:	ab ea       	ldi	r26, 0xAB	; 171
     25a:	ba ea       	ldi	r27, 0xAA	; 170
     25c:	0e 94 80 1e 	call	0x3d00	; 0x3d00 <__umulhisi3>
     260:	dc 01       	movw	r26, r24
     262:	b6 95       	lsr	r27
     264:	a7 95       	ror	r26
     266:	26 ef       	ldi	r18, 0xF6	; 246
     268:	3f ef       	ldi	r19, 0xFF	; 255
     26a:	49 e0       	ldi	r20, 0x09	; 9
     26c:	50 e0       	ldi	r21, 0x00	; 0
     26e:	0e 94 95 1e 	call	0x3d2a	; 0x3d2a <__muluhisi3>
     272:	66 5b       	subi	r22, 0xB6	; 182
     274:	79 4f       	sbci	r23, 0xF9	; 249
     276:	89 44       	sbci	r24, 0x49	; 73
     278:	96 40       	sbci	r25, 0x06	; 6
     27a:	28 e8       	ldi	r18, 0x88	; 136
     27c:	33 e1       	ldi	r19, 0x13	; 19
     27e:	40 e0       	ldi	r20, 0x00	; 0
     280:	50 e0       	ldi	r21, 0x00	; 0
     282:	0e 94 3a 1e 	call	0x3c74	; 0x3c74 <__udivmodsi4>
     286:	d2 2f       	mov	r29, r18
     288:	13 2f       	mov	r17, r19
	
	
	//Senden	
	SPI_Send(DAC_REG_DAC | DAC_ADR_DAC_A, &IO_PORT4, slot);
     28a:	4c 2f       	mov	r20, r28
     28c:	65 e0       	ldi	r22, 0x05	; 5
     28e:	71 e0       	ldi	r23, 0x01	; 1
     290:	80 e0       	ldi	r24, 0x00	; 0
     292:	68 df       	rcall	.-304    	; 0x164 <SPI_Send>
	SPI_Send(binary_value>>8, &IO_PORT4, slot);
     294:	4c 2f       	mov	r20, r28
     296:	65 e0       	ldi	r22, 0x05	; 5
     298:	71 e0       	ldi	r23, 0x01	; 1
     29a:	81 2f       	mov	r24, r17
     29c:	63 df       	rcall	.-314    	; 0x164 <SPI_Send>
	SPI_Send(binary_value, &IO_PORT4, slot);	
     29e:	4c 2f       	mov	r20, r28
     2a0:	65 e0       	ldi	r22, 0x05	; 5
     2a2:	71 e0       	ldi	r23, 0x01	; 1
     2a4:	8d 2f       	mov	r24, r29
     2a6:	5e df       	rcall	.-324    	; 0x164 <SPI_Send>
}
     2a8:	df 91       	pop	r29
     2aa:	cf 91       	pop	r28
     2ac:	1f 91       	pop	r17
     2ae:	08 95       	ret

000002b0 <Amplifier_Variables_from_EEPROM>:
	amplifier_gain[slot_nr-1] = amplifier_gain_default	;
	amplifier_offset_voltage_mV[slot_nr-1] = amplifier_offset_voltage_default;
	
	eeprom_write_word(&parameter1_eeprom[slot_nr-1], amplifier_gain[slot_nr-1]);
	eeprom_write_word(&parameter2_eeprom[slot_nr-1], amplifier_offset_voltage_mV[slot_nr-1]);
}
     2b0:	cf 93       	push	r28
     2b2:	df 93       	push	r29
     2b4:	01 97       	sbiw	r24, 0x01	; 1
     2b6:	ec 01       	movw	r28, r24
     2b8:	cc 0f       	add	r28, r28
     2ba:	dd 1f       	adc	r29, r29
     2bc:	ce 01       	movw	r24, r28
     2be:	80 5e       	subi	r24, 0xE0	; 224
     2c0:	9f 4f       	sbci	r25, 0xFF	; 255
     2c2:	0e 94 30 1f 	call	0x3e60	; 0x3e60 <eeprom_read_word>
     2c6:	fe 01       	movw	r30, r28
     2c8:	e4 52       	subi	r30, 0x24	; 36
     2ca:	fb 4f       	sbci	r31, 0xFB	; 251
     2cc:	91 83       	std	Z+1, r25	; 0x01
     2ce:	80 83       	st	Z, r24
     2d0:	ce 01       	movw	r24, r28
     2d2:	80 5f       	subi	r24, 0xF0	; 240
     2d4:	9f 4f       	sbci	r25, 0xFF	; 255
     2d6:	0e 94 30 1f 	call	0x3e60	; 0x3e60 <eeprom_read_word>
     2da:	cf 5c       	subi	r28, 0xCF	; 207
     2dc:	da 4f       	sbci	r29, 0xFA	; 250
     2de:	99 83       	std	Y+1, r25	; 0x01
     2e0:	88 83       	st	Y, r24
     2e2:	df 91       	pop	r29
     2e4:	cf 91       	pop	r28
     2e6:	08 95       	ret

000002e8 <Amplifier_Set_Gain>:


void Amplifier_Set_Gain(uint16_t gain, int slot_nr)
{
     2e8:	08 95       	ret

000002ea <Amplifier_Set_Offset_Voltage>:
	//Is fixed to 2	
}
void Amplifier_Set_Offset_Voltage(uint16_t voltage_in_mV, int slot_nr)
{
     2ea:	cf 93       	push	r28
	
	//Calculate binary value
	uint16_t binary_value = (((uint32_t) voltage_in_mV) * 0xffff) / 5000 / 2;
	
	//Send
	DAC_AD5752_Set(binary_value, &IO_Port3, slot_nr-1, DAC_ADR_DAC_A);
     2ec:	cf ef       	ldi	r28, 0xFF	; 255
     2ee:	c6 0f       	add	r28, r22
     2f0:	9c 01       	movw	r18, r24
     2f2:	af ef       	ldi	r26, 0xFF	; 255
     2f4:	bf ef       	ldi	r27, 0xFF	; 255
     2f6:	0e 94 80 1e 	call	0x3d00	; 0x3d00 <__umulhisi3>
     2fa:	20 e1       	ldi	r18, 0x10	; 16
     2fc:	37 e2       	ldi	r19, 0x27	; 39
     2fe:	40 e0       	ldi	r20, 0x00	; 0
     300:	50 e0       	ldi	r21, 0x00	; 0
     302:	0e 94 3a 1e 	call	0x3c74	; 0x3c74 <__udivmodsi4>
     306:	da 01       	movw	r26, r20
     308:	c9 01       	movw	r24, r18
     30a:	20 e0       	ldi	r18, 0x00	; 0
     30c:	4c 2f       	mov	r20, r28
     30e:	62 e2       	ldi	r22, 0x22	; 34
     310:	70 e0       	ldi	r23, 0x00	; 0
     312:	0e 94 d4 09 	call	0x13a8	; 0x13a8 <DAC_AD5752_Set>
	
     316:	cf 91       	pop	r28
     318:	08 95       	ret

0000031a <Amplifier_Init>:
Parameter3 = not used

*/

void Amplifier_Init(int slot_nr)
{
     31a:	0f 93       	push	r16
     31c:	1f 93       	push	r17
     31e:	cf 93       	push	r28
     320:	df 93       	push	r29
     322:	8c 01       	movw	r16, r24
	//Set HP&MP to LOW, and all CS to HIGH
	_clear_bit(HP_Port, slot_nr - 1);
     324:	e2 e0       	ldi	r30, 0x02	; 2
     326:	f1 e0       	ldi	r31, 0x01	; 1
     328:	20 81       	ld	r18, Z
     32a:	ec 01       	movw	r28, r24
     32c:	21 97       	sbiw	r28, 0x01	; 1
     32e:	81 e0       	ldi	r24, 0x01	; 1
     330:	90 e0       	ldi	r25, 0x00	; 0
     332:	0c 2e       	mov	r0, r28
     334:	02 c0       	rjmp	.+4      	; 0x33a <Amplifier_Init+0x20>
     336:	88 0f       	add	r24, r24
     338:	99 1f       	adc	r25, r25
     33a:	0a 94       	dec	r0
     33c:	e2 f7       	brpl	.-8      	; 0x336 <Amplifier_Init+0x1c>
     33e:	98 2f       	mov	r25, r24
     340:	90 95       	com	r25
     342:	29 23       	and	r18, r25
     344:	20 83       	st	Z, r18
	_clear_bit(MP_Port, slot_nr - 1);
     346:	e8 e0       	ldi	r30, 0x08	; 8
     348:	f1 e0       	ldi	r31, 0x01	; 1
     34a:	20 81       	ld	r18, Z
     34c:	92 23       	and	r25, r18
     34e:	90 83       	st	Z, r25
	_set_bit(IO_Port3, slot_nr - 1);
     350:	92 b1       	in	r25, 0x02	; 2
     352:	98 2b       	or	r25, r24
     354:	92 b9       	out	0x02, r25	; 2
	_set_bit(IO_PORT4, slot_nr - 1);
     356:	e5 e0       	ldi	r30, 0x05	; 5
     358:	f1 e0       	ldi	r31, 0x01	; 1
     35a:	90 81       	ld	r25, Z
     35c:	98 2b       	or	r25, r24
     35e:	90 83       	st	Z, r25
	_set_bit(IO_PORT5, slot_nr - 1);
     360:	9b b1       	in	r25, 0x0b	; 11
     362:	98 2b       	or	r25, r24
     364:	9b b9       	out	0x0b, r25	; 11
	_set_bit(IO_PORT6, slot_nr - 1);
     366:	98 b1       	in	r25, 0x08	; 8
     368:	98 2b       	or	r25, r24
     36a:	98 b9       	out	0x08, r25	; 8
	//Set all as Output
	_set_out(HP_Port, slot_nr - 1);
     36c:	e1 e0       	ldi	r30, 0x01	; 1
     36e:	f1 e0       	ldi	r31, 0x01	; 1
     370:	90 81       	ld	r25, Z
     372:	98 2b       	or	r25, r24
     374:	90 83       	st	Z, r25
	_set_out(MP_Port, slot_nr - 1);
     376:	e7 e0       	ldi	r30, 0x07	; 7
     378:	f1 e0       	ldi	r31, 0x01	; 1
     37a:	90 81       	ld	r25, Z
     37c:	98 2b       	or	r25, r24
     37e:	90 83       	st	Z, r25
	_set_out(IO_Port3, slot_nr - 1);
     380:	91 b1       	in	r25, 0x01	; 1
     382:	98 2b       	or	r25, r24
     384:	91 b9       	out	0x01, r25	; 1
	_set_out(IO_PORT4, slot_nr - 1);
     386:	e4 e0       	ldi	r30, 0x04	; 4
     388:	f1 e0       	ldi	r31, 0x01	; 1
     38a:	90 81       	ld	r25, Z
     38c:	98 2b       	or	r25, r24
     38e:	90 83       	st	Z, r25
	_set_out(IO_PORT5, slot_nr - 1);
     390:	9a b1       	in	r25, 0x0a	; 10
     392:	98 2b       	or	r25, r24
     394:	9a b9       	out	0x0a, r25	; 10
	_set_out(IO_PORT6, slot_nr - 1);
     396:	97 b1       	in	r25, 0x07	; 7
     398:	89 2b       	or	r24, r25
     39a:	87 b9       	out	0x07, r24	; 7
	

	//ADC initialization
	//Range: +5V
	//Both Channels on
	DAC_AD5752_Range_and_PowerUp(Range_p5V, PowerUp_A, &IO_Port3, slot_nr-1);	
     39c:	2f ef       	ldi	r18, 0xFF	; 255
     39e:	20 0f       	add	r18, r16
     3a0:	42 e2       	ldi	r20, 0x22	; 34
     3a2:	50 e0       	ldi	r21, 0x00	; 0
     3a4:	61 e0       	ldi	r22, 0x01	; 1
     3a6:	80 e0       	ldi	r24, 0x00	; 0
     3a8:	d4 d7       	rcall	.+4008   	; 0x1352 <DAC_AD5752_Range_and_PowerUp>
	
	//Set DAC output
	Amplifier_Set_Gain(amplifier_gain[slot_nr-1], slot_nr);		
	Amplifier_Set_Offset_Voltage(amplifier_offset_voltage_mV[slot_nr-1], slot_nr);	
     3aa:	cc 0f       	add	r28, r28
     3ac:	dd 1f       	adc	r29, r29
     3ae:	cf 5c       	subi	r28, 0xCF	; 207
     3b0:	da 4f       	sbci	r29, 0xFA	; 250
     3b2:	b8 01       	movw	r22, r16
     3b4:	88 81       	ld	r24, Y
     3b6:	99 81       	ldd	r25, Y+1	; 0x01
     3b8:	98 df       	rcall	.-208    	; 0x2ea <Amplifier_Set_Offset_Voltage>
}
     3ba:	df 91       	pop	r29
     3bc:	cf 91       	pop	r28
     3be:	1f 91       	pop	r17
     3c0:	0f 91       	pop	r16
     3c2:	08 95       	ret

000003c4 <FrontEnd_Variables_from_EEPROM>:
	frontEnd_gain[slot_nr-1] = frontEnd_gain_default;
	frontEnd_offset_voltage_mV[slot_nr-1] = frontEnd_offset_voltage_default;
	
	eeprom_write_word(&parameter1_eeprom[slot_nr-1], frontEnd_gain[slot_nr-1]);
	eeprom_write_word(&parameter2_eeprom[slot_nr-1], frontEnd_offset_voltage_mV[slot_nr-1]);
}
     3c4:	cf 93       	push	r28
     3c6:	df 93       	push	r29
     3c8:	01 97       	sbiw	r24, 0x01	; 1
     3ca:	ec 01       	movw	r28, r24
     3cc:	cc 0f       	add	r28, r28
     3ce:	dd 1f       	adc	r29, r29
     3d0:	ce 01       	movw	r24, r28
     3d2:	80 5e       	subi	r24, 0xE0	; 224
     3d4:	9f 4f       	sbci	r25, 0xFF	; 255
     3d6:	0e 94 30 1f 	call	0x3e60	; 0x3e60 <eeprom_read_word>
     3da:	fe 01       	movw	r30, r28
     3dc:	e9 53       	subi	r30, 0x39	; 57
     3de:	fb 4f       	sbci	r31, 0xFB	; 251
     3e0:	91 83       	std	Z+1, r25	; 0x01
     3e2:	80 83       	st	Z, r24
     3e4:	ce 01       	movw	r24, r28
     3e6:	80 5f       	subi	r24, 0xF0	; 240
     3e8:	9f 4f       	sbci	r25, 0xFF	; 255
     3ea:	0e 94 30 1f 	call	0x3e60	; 0x3e60 <eeprom_read_word>
     3ee:	cb 5f       	subi	r28, 0xFB	; 251
     3f0:	db 4f       	sbci	r29, 0xFB	; 251
     3f2:	99 83       	std	Y+1, r25	; 0x01
     3f4:	88 83       	st	Y, r24
     3f6:	df 91       	pop	r29
     3f8:	cf 91       	pop	r28
     3fa:	08 95       	ret

000003fc <FrontEnd_Set_Gain>:
//*******************************************************************

void FrontEnd_Set_Gain(uint16_t gain, int slot_nr)
{
	//Reset bit for FlipFlops always HIGH
	switch(gain)
     3fc:	82 33       	cpi	r24, 0x32	; 50
     3fe:	91 05       	cpc	r25, r1
     400:	71 f0       	breq	.+28     	; 0x41e <__LOCK_REGION_LENGTH__+0x1e>
     402:	84 36       	cpi	r24, 0x64	; 100
     404:	91 05       	cpc	r25, r1
     406:	a1 f0       	breq	.+40     	; 0x430 <__LOCK_REGION_LENGTH__+0x30>
     408:	49 97       	sbiw	r24, 0x19	; 25
     40a:	d1 f4       	brne	.+52     	; 0x440 <__LOCK_REGION_LENGTH__+0x40>
	{
		case 25:
			IO_Expander_set_Register(register_OLAT, 0b00000100,  &IO_PORT4, slot_nr -1);
     40c:	2f ef       	ldi	r18, 0xFF	; 255
     40e:	26 0f       	add	r18, r22
     410:	45 e0       	ldi	r20, 0x05	; 5
     412:	51 e0       	ldi	r21, 0x01	; 1
     414:	64 e0       	ldi	r22, 0x04	; 4
     416:	8a e0       	ldi	r24, 0x0A	; 10
     418:	0c 94 45 0a 	jmp	0x148a	; 0x148a <IO_Expander_set_Register>
			break;
     41c:	08 95       	ret
		case 50:
			IO_Expander_set_Register(register_OLAT, 0b00000101,  &IO_PORT4, slot_nr -1);
     41e:	2f ef       	ldi	r18, 0xFF	; 255
     420:	26 0f       	add	r18, r22
     422:	45 e0       	ldi	r20, 0x05	; 5
     424:	51 e0       	ldi	r21, 0x01	; 1
     426:	65 e0       	ldi	r22, 0x05	; 5
     428:	8a e0       	ldi	r24, 0x0A	; 10
     42a:	0c 94 45 0a 	jmp	0x148a	; 0x148a <IO_Expander_set_Register>
			break;
     42e:	08 95       	ret
		case 100:
			IO_Expander_set_Register(register_OLAT, 0b00000110,  &IO_PORT4, slot_nr -1);
     430:	2f ef       	ldi	r18, 0xFF	; 255
     432:	26 0f       	add	r18, r22
     434:	45 e0       	ldi	r20, 0x05	; 5
     436:	51 e0       	ldi	r21, 0x01	; 1
     438:	66 e0       	ldi	r22, 0x06	; 6
     43a:	8a e0       	ldi	r24, 0x0A	; 10
     43c:	0c 94 45 0a 	jmp	0x148a	; 0x148a <IO_Expander_set_Register>
     440:	08 95       	ret

00000442 <FrontEnd_Set_Offset_Voltage>:
			break;
	}	
}

void FrontEnd_Set_Offset_Voltage(uint16_t voltage_in_mV, int slot_nr)
{
     442:	cf 93       	push	r28
	
	//Binär Wert berechnen
	uint16_t binary_value = (((uint32_t) voltage_in_mV) * 0xffff) / 10000;
	
	//Senden
	DAC_AD5752_Set(binary_value, &IO_Port3, slot_nr-1, DAC_ADR_DAC_A);	
     444:	cf ef       	ldi	r28, 0xFF	; 255
     446:	c6 0f       	add	r28, r22
     448:	9c 01       	movw	r18, r24
     44a:	af ef       	ldi	r26, 0xFF	; 255
     44c:	bf ef       	ldi	r27, 0xFF	; 255
     44e:	0e 94 80 1e 	call	0x3d00	; 0x3d00 <__umulhisi3>
     452:	20 e1       	ldi	r18, 0x10	; 16
     454:	37 e2       	ldi	r19, 0x27	; 39
     456:	40 e0       	ldi	r20, 0x00	; 0
     458:	50 e0       	ldi	r21, 0x00	; 0
     45a:	0e 94 3a 1e 	call	0x3c74	; 0x3c74 <__udivmodsi4>
     45e:	da 01       	movw	r26, r20
     460:	c9 01       	movw	r24, r18
     462:	20 e0       	ldi	r18, 0x00	; 0
     464:	4c 2f       	mov	r20, r28
     466:	62 e2       	ldi	r22, 0x22	; 34
     468:	70 e0       	ldi	r23, 0x00	; 0
     46a:	9e d7       	rcall	.+3900   	; 0x13a8 <DAC_AD5752_Set>
} 
     46c:	cf 91       	pop	r28
     46e:	08 95       	ret

00000470 <FrontEnd_Init>:
//*******************************************************************
//						 Init & EEPROM
//*******************************************************************

void FrontEnd_Init(int slot_nr)
{
     470:	0f 93       	push	r16
     472:	1f 93       	push	r17
     474:	cf 93       	push	r28
     476:	df 93       	push	r29
	//Set HP&MP to LOW, and all CS to HIGH
	_clear_bit(HP_Port, slot_nr - 1);
     478:	e2 e0       	ldi	r30, 0x02	; 2
     47a:	f1 e0       	ldi	r31, 0x01	; 1
     47c:	20 81       	ld	r18, Z
     47e:	8c 01       	movw	r16, r24
     480:	01 50       	subi	r16, 0x01	; 1
     482:	11 09       	sbc	r17, r1
     484:	41 e0       	ldi	r20, 0x01	; 1
     486:	50 e0       	ldi	r21, 0x00	; 0
     488:	00 2e       	mov	r0, r16
     48a:	02 c0       	rjmp	.+4      	; 0x490 <FrontEnd_Init+0x20>
     48c:	44 0f       	add	r20, r20
     48e:	55 1f       	adc	r21, r21
     490:	0a 94       	dec	r0
     492:	e2 f7       	brpl	.-8      	; 0x48c <FrontEnd_Init+0x1c>
     494:	94 2f       	mov	r25, r20
     496:	90 95       	com	r25
     498:	29 23       	and	r18, r25
     49a:	20 83       	st	Z, r18
	_clear_bit(MP_Port, slot_nr - 1);
     49c:	e8 e0       	ldi	r30, 0x08	; 8
     49e:	f1 e0       	ldi	r31, 0x01	; 1
     4a0:	20 81       	ld	r18, Z
     4a2:	92 23       	and	r25, r18
     4a4:	90 83       	st	Z, r25
	_set_bit(IO_Port3, slot_nr - 1);
     4a6:	92 b1       	in	r25, 0x02	; 2
     4a8:	94 2b       	or	r25, r20
     4aa:	92 b9       	out	0x02, r25	; 2
	_set_bit(IO_PORT4, slot_nr - 1);
     4ac:	e5 e0       	ldi	r30, 0x05	; 5
     4ae:	f1 e0       	ldi	r31, 0x01	; 1
     4b0:	90 81       	ld	r25, Z
     4b2:	94 2b       	or	r25, r20
     4b4:	90 83       	st	Z, r25
	_set_bit(IO_PORT5, slot_nr - 1);
     4b6:	9b b1       	in	r25, 0x0b	; 11
     4b8:	94 2b       	or	r25, r20
     4ba:	9b b9       	out	0x0b, r25	; 11
	_set_bit(IO_PORT6, slot_nr - 1);
     4bc:	98 b1       	in	r25, 0x08	; 8
     4be:	94 2b       	or	r25, r20
     4c0:	98 b9       	out	0x08, r25	; 8
	//Set all as Output
	_set_out(HP_Port, slot_nr - 1);
     4c2:	e1 e0       	ldi	r30, 0x01	; 1
     4c4:	f1 e0       	ldi	r31, 0x01	; 1
     4c6:	90 81       	ld	r25, Z
     4c8:	94 2b       	or	r25, r20
     4ca:	90 83       	st	Z, r25
	_set_out(MP_Port, slot_nr - 1);
     4cc:	e7 e0       	ldi	r30, 0x07	; 7
     4ce:	f1 e0       	ldi	r31, 0x01	; 1
     4d0:	90 81       	ld	r25, Z
     4d2:	94 2b       	or	r25, r20
     4d4:	90 83       	st	Z, r25
	_set_out(IO_Port3, slot_nr - 1);
     4d6:	91 b1       	in	r25, 0x01	; 1
     4d8:	94 2b       	or	r25, r20
     4da:	91 b9       	out	0x01, r25	; 1
	_set_out(IO_PORT4, slot_nr - 1);
     4dc:	e4 e0       	ldi	r30, 0x04	; 4
     4de:	f1 e0       	ldi	r31, 0x01	; 1
     4e0:	90 81       	ld	r25, Z
     4e2:	94 2b       	or	r25, r20
     4e4:	90 83       	st	Z, r25
	_set_out(IO_PORT5, slot_nr - 1);
     4e6:	9a b1       	in	r25, 0x0a	; 10
     4e8:	94 2b       	or	r25, r20
     4ea:	9a b9       	out	0x0a, r25	; 10
	_set_out(IO_PORT6, slot_nr - 1);
     4ec:	97 b1       	in	r25, 0x07	; 7
     4ee:	49 2b       	or	r20, r25
     4f0:	47 b9       	out	0x07, r20	; 7

	//ADC initialization
	//Range: +10V
	//Only Channel A
	//DAC_AD5752_Range_and_PowerUp(Range_p5V, PowerUp_A, &IO_Port3, slot_nr-1);	
	DAC_AD5752_Range_and_PowerUp(Range_p10V, PowerUp_A, &IO_Port3, slot_nr-1);	
     4f2:	cf ef       	ldi	r28, 0xFF	; 255
     4f4:	c8 0f       	add	r28, r24
     4f6:	2c 2f       	mov	r18, r28
     4f8:	42 e2       	ldi	r20, 0x22	; 34
     4fa:	50 e0       	ldi	r21, 0x00	; 0
     4fc:	61 e0       	ldi	r22, 0x01	; 1
     4fe:	81 e0       	ldi	r24, 0x01	; 1
     500:	28 d7       	rcall	.+3664   	; 0x1352 <DAC_AD5752_Range_and_PowerUp>
	
	//IO Expander:
	//Set Direction (0:2 is OUT, 3:7 is IN)
	//0 means OUT, 1 means IN
	IO_Expander_set_Register(register_IODIR, 0b11111000, &IO_PORT4, slot_nr -1 );
     502:	2c 2f       	mov	r18, r28
     504:	45 e0       	ldi	r20, 0x05	; 5
     506:	51 e0       	ldi	r21, 0x01	; 1
     508:	68 ef       	ldi	r22, 0xF8	; 248
     50a:	80 e0       	ldi	r24, 0x00	; 0
     50c:	be d7       	rcall	.+3964   	; 0x148a <IO_Expander_set_Register>
	
	//All Output to Low, except FlipFlop RST
	IO_Expander_set_Register(register_OLAT, 0b00000100,  &IO_PORT4, slot_nr -1);
     50e:	2c 2f       	mov	r18, r28
     510:	45 e0       	ldi	r20, 0x05	; 5
     512:	51 e0       	ldi	r21, 0x01	; 1
     514:	64 e0       	ldi	r22, 0x04	; 4
     516:	8a e0       	ldi	r24, 0x0A	; 10
     518:	b8 d7       	rcall	.+3952   	; 0x148a <IO_Expander_set_Register>
	
	
	//Set Offset and GAIN
	FrontEnd_Set_Gain(frontEnd_gain[slot_nr-1], slot_nr-1);		
     51a:	e8 01       	movw	r28, r16
     51c:	cc 0f       	add	r28, r28
     51e:	dd 1f       	adc	r29, r29
     520:	fe 01       	movw	r30, r28
     522:	e9 53       	subi	r30, 0x39	; 57
     524:	fb 4f       	sbci	r31, 0xFB	; 251
     526:	b8 01       	movw	r22, r16
     528:	80 81       	ld	r24, Z
     52a:	91 81       	ldd	r25, Z+1	; 0x01
     52c:	67 df       	rcall	.-306    	; 0x3fc <FrontEnd_Set_Gain>
	FrontEnd_Set_Offset_Voltage(frontEnd_offset_voltage_mV[slot_nr-1], slot_nr-1);			
     52e:	cb 5f       	subi	r28, 0xFB	; 251
     530:	db 4f       	sbci	r29, 0xFB	; 251
     532:	b8 01       	movw	r22, r16
     534:	88 81       	ld	r24, Y
     536:	99 81       	ldd	r25, Y+1	; 0x01
     538:	84 df       	rcall	.-248    	; 0x442 <FrontEnd_Set_Offset_Voltage>
}
     53a:	df 91       	pop	r29
     53c:	cf 91       	pop	r28
     53e:	1f 91       	pop	r17
     540:	0f 91       	pop	r16
     542:	08 95       	ret

00000544 <FrontEnd_Get_Voltage_in_mV_FullRange>:
//*******************************************************************

uint16_t FrontEnd_Get_Voltage_in_mV_FullRange(int slot_nr)
{
	//get binary value
	uint32_t temp = LTC1864_getBIT_OneShot(&IO_PORT5, slot_nr-1);
     544:	6f ef       	ldi	r22, 0xFF	; 255
     546:	68 0f       	add	r22, r24
     548:	8b e2       	ldi	r24, 0x2B	; 43
     54a:	90 e0       	ldi	r25, 0x00	; 0
     54c:	52 d7       	rcall	.+3748   	; 0x13f2 <LTC1864_getBIT_OneShot>
	
	//Convert (DAC Range: 0...2,5V / Pre-Divider: 4 --> Whole Range 0...10000mV)
	return (temp * 10000)>>16; 	
     54e:	9c 01       	movw	r18, r24
     550:	a0 e1       	ldi	r26, 0x10	; 16
     552:	b7 e2       	ldi	r27, 0x27	; 39
     554:	0c 94 80 1e 	jmp	0x3d00	; 0x3d00 <__umulhisi3>

00000558 <FrontEnd_Reset_FlipFlops>:
}

void FrontEnd_Reset_FlipFlops(int slot_nr)
{
     558:	cf 93       	push	r28
     55a:	df 93       	push	r29
	//Get current setup of IO-Expander (only the two gain bit necessary; last two)
	uint8_t temp = IO_Expander_get_Register(register_GPIO, &IO_PORT4, slot_nr -1 ) & 0x03;
     55c:	df ef       	ldi	r29, 0xFF	; 255
     55e:	d8 0f       	add	r29, r24
     560:	4d 2f       	mov	r20, r29
     562:	65 e0       	ldi	r22, 0x05	; 5
     564:	71 e0       	ldi	r23, 0x01	; 1
     566:	89 e0       	ldi	r24, 0x09	; 9
     568:	b2 d7       	rcall	.+3940   	; 0x14ce <IO_Expander_get_Register>
     56a:	c8 2f       	mov	r28, r24
     56c:	c3 70       	andi	r28, 0x03	; 3
	
	//Reset Bit (3 Position) to LOW 
	IO_Expander_set_Register(register_OLAT, temp, &IO_PORT4, slot_nr-1);
     56e:	2d 2f       	mov	r18, r29
     570:	45 e0       	ldi	r20, 0x05	; 5
     572:	51 e0       	ldi	r21, 0x01	; 1
     574:	6c 2f       	mov	r22, r28
     576:	8a e0       	ldi	r24, 0x0A	; 10
     578:	88 d7       	rcall	.+3856   	; 0x148a <IO_Expander_set_Register>
	//Reset Bit (3 Position) to HIGH
	IO_Expander_set_Register(register_OLAT, temp | 0x04, &IO_PORT4, slot_nr-1);	
     57a:	6c 2f       	mov	r22, r28
     57c:	64 60       	ori	r22, 0x04	; 4
     57e:	2d 2f       	mov	r18, r29
     580:	45 e0       	ldi	r20, 0x05	; 5
     582:	51 e0       	ldi	r21, 0x01	; 1
     584:	8a e0       	ldi	r24, 0x0A	; 10
     586:	81 d7       	rcall	.+3842   	; 0x148a <IO_Expander_set_Register>
}
     588:	df 91       	pop	r29
     58a:	cf 91       	pop	r28
     58c:	08 95       	ret

0000058e <Terminal_SET_FrontEnd>:
//*******************************************************************
//							  Terminal
//*******************************************************************

void Terminal_SET_FrontEnd(char *myMessage)
{
     58e:	ef 92       	push	r14
     590:	ff 92       	push	r15
     592:	0f 93       	push	r16
     594:	1f 93       	push	r17
     596:	cf 93       	push	r28
     598:	df 93       	push	r29
     59a:	1f 92       	push	r1
     59c:	1f 92       	push	r1
     59e:	cd b7       	in	r28, 0x3d	; 61
     5a0:	de b7       	in	r29, 0x3e	; 62
     5a2:	fc 01       	movw	r30, r24
	//myMessage:	whole message
	//myCMD:		2 indicator Chars (Position 1 and 2)
	//mySlotNr:		Slot Number (Position 3)
	
	//Local variables
	uint16_t myCMD = _MK16(myMessage[1],myMessage[2]);
     5a4:	22 81       	ldd	r18, Z+2	; 0x02
     5a6:	30 e0       	ldi	r19, 0x00	; 0
     5a8:	32 2f       	mov	r19, r18
     5aa:	22 27       	eor	r18, r18
     5ac:	81 81       	ldd	r24, Z+1	; 0x01
     5ae:	28 2b       	or	r18, r24
	int8_t mySlotNr = myMessage[3] - '0';
     5b0:	03 81       	ldd	r16, Z+3	; 0x03
     5b2:	00 53       	subi	r16, 0x30	; 48
	int16_t temp16 = 0;
     5b4:	1a 82       	std	Y+2, r1	; 0x02
     5b6:	19 82       	std	Y+1, r1	; 0x01
	
	//Dependent on indicator Chars --> Command
	switch(myCMD)
     5b8:	27 35       	cpi	r18, 0x57	; 87
     5ba:	87 e4       	ldi	r24, 0x47	; 71
     5bc:	38 07       	cpc	r19, r24
     5be:	49 f1       	breq	.+82     	; 0x612 <Terminal_SET_FrontEnd+0x84>
     5c0:	28 f4       	brcc	.+10     	; 0x5cc <Terminal_SET_FrontEnd+0x3e>
     5c2:	22 35       	cpi	r18, 0x52	; 82
     5c4:	36 44       	sbci	r19, 0x46	; 70
     5c6:	09 f4       	brne	.+2      	; 0x5ca <Terminal_SET_FrontEnd+0x3c>
     5c8:	ca c0       	rjmp	.+404    	; 0x75e <Terminal_SET_FrontEnd+0x1d0>
     5ca:	e3 c0       	rjmp	.+454    	; 0x792 <Terminal_SET_FrontEnd+0x204>
     5cc:	29 34       	cpi	r18, 0x49	; 73
     5ce:	8e e4       	ldi	r24, 0x4E	; 78
     5d0:	38 07       	cpc	r19, r24
     5d2:	29 f0       	breq	.+10     	; 0x5de <Terminal_SET_FrontEnd+0x50>
     5d4:	27 35       	cpi	r18, 0x57	; 87
     5d6:	3f 44       	sbci	r19, 0x4F	; 79
     5d8:	09 f4       	brne	.+2      	; 0x5dc <Terminal_SET_FrontEnd+0x4e>
     5da:	72 c0       	rjmp	.+228    	; 0x6c0 <Terminal_SET_FrontEnd+0x132>
     5dc:	da c0       	rjmp	.+436    	; 0x792 <Terminal_SET_FrontEnd+0x204>
	{
		//1. Initialization
		case _MK16('I','N'):
			if (myMessage[5] != '\n')
     5de:	85 81       	ldd	r24, Z+5	; 0x05
     5e0:	8a 30       	cpi	r24, 0x0A	; 10
     5e2:	29 f0       	breq	.+10     	; 0x5ee <Terminal_SET_FrontEnd+0x60>
			{
				//to many signs
				TransmitStringLn("FORMAT ERR");
     5e4:	8e e0       	ldi	r24, 0x0E	; 14
     5e6:	92 e0       	ldi	r25, 0x02	; 2
     5e8:	0e 94 c3 11 	call	0x2386	; 0x2386 <TransmitStringLn>
     5ec:	d6 c0       	rjmp	.+428    	; 0x79a <Terminal_SET_FrontEnd+0x20c>
			}
			else
			{
				FrontEnd_Init(mySlotNr);									
     5ee:	00 2e       	mov	r0, r16
     5f0:	00 0c       	add	r0, r0
     5f2:	11 0b       	sbc	r17, r17
     5f4:	c8 01       	movw	r24, r16
     5f6:	3c df       	rcall	.-392    	; 0x470 <FrontEnd_Init>
				//Answer
				TransmitString("SIN");
     5f8:	89 e1       	ldi	r24, 0x19	; 25
     5fa:	92 e0       	ldi	r25, 0x02	; 2
     5fc:	0e 94 c0 11 	call	0x2380	; 0x2380 <TransmitString>
				TransmitInt(mySlotNr, 1);
     600:	61 e0       	ldi	r22, 0x01	; 1
     602:	c8 01       	movw	r24, r16
     604:	0e 94 c6 11 	call	0x238c	; 0x238c <TransmitInt>
				TransmitStringLn("F");
     608:	82 e4       	ldi	r24, 0x42	; 66
     60a:	92 e0       	ldi	r25, 0x02	; 2
     60c:	0e 94 c3 11 	call	0x2386	; 0x2386 <TransmitStringLn>
     610:	c4 c0       	rjmp	.+392    	; 0x79a <Terminal_SET_FrontEnd+0x20c>
			
			
		//2. Window Gain 
		case _MK16('W','G'):
						
			if (!ParseIntLn(&myMessage[6],4,&temp16))
     612:	ae 01       	movw	r20, r28
     614:	4f 5f       	subi	r20, 0xFF	; 255
     616:	5f 4f       	sbci	r21, 0xFF	; 255
     618:	64 e0       	ldi	r22, 0x04	; 4
     61a:	cf 01       	movw	r24, r30
     61c:	06 96       	adiw	r24, 0x06	; 6
     61e:	0e 94 8d 10 	call	0x211a	; 0x211a <ParseIntLn>
     622:	81 11       	cpse	r24, r1
     624:	05 c0       	rjmp	.+10     	; 0x630 <Terminal_SET_FrontEnd+0xa2>
			{
				//no number
				TransmitStringLn("FORMAT ERR");
     626:	8e e0       	ldi	r24, 0x0E	; 14
     628:	92 e0       	ldi	r25, 0x02	; 2
     62a:	0e 94 c3 11 	call	0x2386	; 0x2386 <TransmitStringLn>
     62e:	b5 c0       	rjmp	.+362    	; 0x79a <Terminal_SET_FrontEnd+0x20c>
			}
			else if ( !(temp16 == 100 || temp16 == 50 || temp16 == 25) )
     630:	89 81       	ldd	r24, Y+1	; 0x01
     632:	9a 81       	ldd	r25, Y+2	; 0x02
     634:	84 36       	cpi	r24, 0x64	; 100
     636:	91 05       	cpc	r25, r1
     638:	51 f0       	breq	.+20     	; 0x64e <Terminal_SET_FrontEnd+0xc0>
     63a:	82 33       	cpi	r24, 0x32	; 50
     63c:	91 05       	cpc	r25, r1
     63e:	39 f0       	breq	.+14     	; 0x64e <Terminal_SET_FrontEnd+0xc0>
     640:	49 97       	sbiw	r24, 0x19	; 25
     642:	29 f0       	breq	.+10     	; 0x64e <Terminal_SET_FrontEnd+0xc0>
			{
				//Wrong Value
				TransmitStringLn("NUMBER ERR");
     644:	8d e1       	ldi	r24, 0x1D	; 29
     646:	92 e0       	ldi	r25, 0x02	; 2
     648:	0e 94 c3 11 	call	0x2386	; 0x2386 <TransmitStringLn>
     64c:	a6 c0       	rjmp	.+332    	; 0x79a <Terminal_SET_FrontEnd+0x20c>
			}
			else
			{
				TransmitString("SWG");
     64e:	88 e2       	ldi	r24, 0x28	; 40
     650:	92 e0       	ldi	r25, 0x02	; 2
     652:	0e 94 c0 11 	call	0x2380	; 0x2380 <TransmitString>
				TransmitInt(mySlotNr, 1);
     656:	00 2e       	mov	r0, r16
     658:	00 0c       	add	r0, r0
     65a:	11 0b       	sbc	r17, r17
     65c:	61 e0       	ldi	r22, 0x01	; 1
     65e:	c8 01       	movw	r24, r16
     660:	0e 94 c6 11 	call	0x238c	; 0x238c <TransmitInt>
				TransmitString("F=");
     664:	8c e2       	ldi	r24, 0x2C	; 44
     666:	92 e0       	ldi	r25, 0x02	; 2
     668:	0e 94 c0 11 	call	0x2380	; 0x2380 <TransmitString>
				TransmitInt(temp16, 1);
     66c:	61 e0       	ldi	r22, 0x01	; 1
     66e:	89 81       	ldd	r24, Y+1	; 0x01
     670:	9a 81       	ldd	r25, Y+2	; 0x02
     672:	0e 94 c6 11 	call	0x238c	; 0x238c <TransmitInt>
				TransmitStringLn(" W/O-Unit");
     676:	8f e2       	ldi	r24, 0x2F	; 47
     678:	92 e0       	ldi	r25, 0x02	; 2
     67a:	0e 94 c3 11 	call	0x2386	; 0x2386 <TransmitStringLn>

				if (frontEnd_gain[mySlotNr-1] != temp16)
     67e:	c8 01       	movw	r24, r16
     680:	01 97       	sbiw	r24, 0x01	; 1
     682:	69 81       	ldd	r22, Y+1	; 0x01
     684:	7a 81       	ldd	r23, Y+2	; 0x02
     686:	fc 01       	movw	r30, r24
     688:	ee 0f       	add	r30, r30
     68a:	ff 1f       	adc	r31, r31
     68c:	e9 53       	subi	r30, 0x39	; 57
     68e:	fb 4f       	sbci	r31, 0xFB	; 251
     690:	20 81       	ld	r18, Z
     692:	31 81       	ldd	r19, Z+1	; 0x01
     694:	26 17       	cp	r18, r22
     696:	37 07       	cpc	r19, r23
     698:	09 f4       	brne	.+2      	; 0x69c <Terminal_SET_FrontEnd+0x10e>
     69a:	7f c0       	rjmp	.+254    	; 0x79a <Terminal_SET_FrontEnd+0x20c>
				{
					frontEnd_gain[mySlotNr-1] = temp16;
     69c:	88 0f       	add	r24, r24
     69e:	99 1f       	adc	r25, r25
     6a0:	fc 01       	movw	r30, r24
     6a2:	e9 53       	subi	r30, 0x39	; 57
     6a4:	fb 4f       	sbci	r31, 0xFB	; 251
     6a6:	7f 01       	movw	r14, r30
     6a8:	71 83       	std	Z+1, r23	; 0x01
     6aa:	60 83       	st	Z, r22
					eeprom_write_word(&parameter1_eeprom[mySlotNr-1], temp16);
     6ac:	80 5e       	subi	r24, 0xE0	; 224
     6ae:	9f 4f       	sbci	r25, 0xFF	; 255
     6b0:	0e 94 51 1f 	call	0x3ea2	; 0x3ea2 <eeprom_write_word>
					FrontEnd_Set_Gain(frontEnd_gain[mySlotNr-1], mySlotNr);
     6b4:	b8 01       	movw	r22, r16
     6b6:	f7 01       	movw	r30, r14
     6b8:	80 81       	ld	r24, Z
     6ba:	91 81       	ldd	r25, Z+1	; 0x01
     6bc:	9f de       	rcall	.-706    	; 0x3fc <FrontEnd_Set_Gain>
     6be:	6d c0       	rjmp	.+218    	; 0x79a <Terminal_SET_FrontEnd+0x20c>
			
			
		//3. Set Window Offset Voltage
		case _MK16('W','O'):
						
			if (!ParseIntLn(&myMessage[6],4,&temp16))
     6c0:	ae 01       	movw	r20, r28
     6c2:	4f 5f       	subi	r20, 0xFF	; 255
     6c4:	5f 4f       	sbci	r21, 0xFF	; 255
     6c6:	64 e0       	ldi	r22, 0x04	; 4
     6c8:	cf 01       	movw	r24, r30
     6ca:	06 96       	adiw	r24, 0x06	; 6
     6cc:	0e 94 8d 10 	call	0x211a	; 0x211a <ParseIntLn>
     6d0:	81 11       	cpse	r24, r1
     6d2:	05 c0       	rjmp	.+10     	; 0x6de <Terminal_SET_FrontEnd+0x150>
			{
				//no number
				TransmitStringLn("FORMAT ERR");
     6d4:	8e e0       	ldi	r24, 0x0E	; 14
     6d6:	92 e0       	ldi	r25, 0x02	; 2
     6d8:	0e 94 c3 11 	call	0x2386	; 0x2386 <TransmitStringLn>
     6dc:	5e c0       	rjmp	.+188    	; 0x79a <Terminal_SET_FrontEnd+0x20c>
			}
			else if (temp16 > 10000 || temp16 < 0)
     6de:	89 81       	ldd	r24, Y+1	; 0x01
     6e0:	9a 81       	ldd	r25, Y+2	; 0x02
     6e2:	81 31       	cpi	r24, 0x11	; 17
     6e4:	97 42       	sbci	r25, 0x27	; 39
     6e6:	28 f0       	brcs	.+10     	; 0x6f2 <Terminal_SET_FrontEnd+0x164>
			{
				//0 bis 10 V
				TransmitStringLn("NUMBER ERR");
     6e8:	8d e1       	ldi	r24, 0x1D	; 29
     6ea:	92 e0       	ldi	r25, 0x02	; 2
     6ec:	0e 94 c3 11 	call	0x2386	; 0x2386 <TransmitStringLn>
     6f0:	54 c0       	rjmp	.+168    	; 0x79a <Terminal_SET_FrontEnd+0x20c>
			}
			else
			{
				TransmitString("SWO");
     6f2:	89 e3       	ldi	r24, 0x39	; 57
     6f4:	92 e0       	ldi	r25, 0x02	; 2
     6f6:	0e 94 c0 11 	call	0x2380	; 0x2380 <TransmitString>
				TransmitInt(mySlotNr, 1);
     6fa:	00 2e       	mov	r0, r16
     6fc:	00 0c       	add	r0, r0
     6fe:	11 0b       	sbc	r17, r17
     700:	61 e0       	ldi	r22, 0x01	; 1
     702:	c8 01       	movw	r24, r16
     704:	0e 94 c6 11 	call	0x238c	; 0x238c <TransmitInt>
				TransmitString("F=");
     708:	8c e2       	ldi	r24, 0x2C	; 44
     70a:	92 e0       	ldi	r25, 0x02	; 2
     70c:	0e 94 c0 11 	call	0x2380	; 0x2380 <TransmitString>
				TransmitFloat(temp16,1, 3);
     710:	43 e0       	ldi	r20, 0x03	; 3
     712:	61 e0       	ldi	r22, 0x01	; 1
     714:	89 81       	ldd	r24, Y+1	; 0x01
     716:	9a 81       	ldd	r25, Y+2	; 0x02
     718:	0e 94 96 12 	call	0x252c	; 0x252c <TransmitFloat>
				TransmitStringLn(" V");
     71c:	8d e3       	ldi	r24, 0x3D	; 61
     71e:	92 e0       	ldi	r25, 0x02	; 2
     720:	0e 94 c3 11 	call	0x2386	; 0x2386 <TransmitStringLn>

				if (frontEnd_offset_voltage_mV[mySlotNr-1] != temp16)
     724:	c8 01       	movw	r24, r16
     726:	01 97       	sbiw	r24, 0x01	; 1
     728:	69 81       	ldd	r22, Y+1	; 0x01
     72a:	7a 81       	ldd	r23, Y+2	; 0x02
     72c:	fc 01       	movw	r30, r24
     72e:	ee 0f       	add	r30, r30
     730:	ff 1f       	adc	r31, r31
     732:	eb 5f       	subi	r30, 0xFB	; 251
     734:	fb 4f       	sbci	r31, 0xFB	; 251
     736:	20 81       	ld	r18, Z
     738:	31 81       	ldd	r19, Z+1	; 0x01
     73a:	26 17       	cp	r18, r22
     73c:	37 07       	cpc	r19, r23
     73e:	69 f1       	breq	.+90     	; 0x79a <Terminal_SET_FrontEnd+0x20c>
				{
					frontEnd_offset_voltage_mV[mySlotNr-1] = temp16;
     740:	88 0f       	add	r24, r24
     742:	99 1f       	adc	r25, r25
     744:	7f 01       	movw	r14, r30
     746:	71 83       	std	Z+1, r23	; 0x01
     748:	60 83       	st	Z, r22
					eeprom_write_word(&parameter2_eeprom[mySlotNr-1], temp16);
     74a:	80 5f       	subi	r24, 0xF0	; 240
     74c:	9f 4f       	sbci	r25, 0xFF	; 255
     74e:	0e 94 51 1f 	call	0x3ea2	; 0x3ea2 <eeprom_write_word>
					FrontEnd_Set_Offset_Voltage(frontEnd_offset_voltage_mV[mySlotNr-1], mySlotNr);
     752:	b8 01       	movw	r22, r16
     754:	f7 01       	movw	r30, r14
     756:	80 81       	ld	r24, Z
     758:	91 81       	ldd	r25, Z+1	; 0x01
     75a:	73 de       	rcall	.-794    	; 0x442 <FrontEnd_Set_Offset_Voltage>
     75c:	1e c0       	rjmp	.+60     	; 0x79a <Terminal_SET_FrontEnd+0x20c>
				}
			}
			break;

		case _MK16('R','F'):
			if (myMessage[5] != '\n')
     75e:	85 81       	ldd	r24, Z+5	; 0x05
     760:	8a 30       	cpi	r24, 0x0A	; 10
     762:	29 f0       	breq	.+10     	; 0x76e <Terminal_SET_FrontEnd+0x1e0>
			{
				//to many signs
				TransmitStringLn("FORMAT ERR");
     764:	8e e0       	ldi	r24, 0x0E	; 14
     766:	92 e0       	ldi	r25, 0x02	; 2
     768:	0e 94 c3 11 	call	0x2386	; 0x2386 <TransmitStringLn>
     76c:	16 c0       	rjmp	.+44     	; 0x79a <Terminal_SET_FrontEnd+0x20c>
			}
			else
			{
				FrontEnd_Reset_FlipFlops(mySlotNr);
     76e:	00 2e       	mov	r0, r16
     770:	00 0c       	add	r0, r0
     772:	11 0b       	sbc	r17, r17
     774:	c8 01       	movw	r24, r16
     776:	f0 de       	rcall	.-544    	; 0x558 <FrontEnd_Reset_FlipFlops>
				//Answer
				TransmitString("SRF");
     778:	80 e4       	ldi	r24, 0x40	; 64
     77a:	92 e0       	ldi	r25, 0x02	; 2
     77c:	0e 94 c0 11 	call	0x2380	; 0x2380 <TransmitString>
				TransmitInt(mySlotNr, 1);
     780:	61 e0       	ldi	r22, 0x01	; 1
     782:	c8 01       	movw	r24, r16
     784:	0e 94 c6 11 	call	0x238c	; 0x238c <TransmitInt>
				TransmitStringLn("F");
     788:	82 e4       	ldi	r24, 0x42	; 66
     78a:	92 e0       	ldi	r25, 0x02	; 2
     78c:	0e 94 c3 11 	call	0x2386	; 0x2386 <TransmitStringLn>
     790:	04 c0       	rjmp	.+8      	; 0x79a <Terminal_SET_FrontEnd+0x20c>
			break;
			
								
		//Default --> Fehler
		default:
			TransmitStringLn("COMMAND ERR");
     792:	84 e4       	ldi	r24, 0x44	; 68
     794:	92 e0       	ldi	r25, 0x02	; 2
     796:	0e 94 c3 11 	call	0x2386	; 0x2386 <TransmitStringLn>
			break;		
				
	}
}
     79a:	0f 90       	pop	r0
     79c:	0f 90       	pop	r0
     79e:	df 91       	pop	r29
     7a0:	cf 91       	pop	r28
     7a2:	1f 91       	pop	r17
     7a4:	0f 91       	pop	r16
     7a6:	ff 90       	pop	r15
     7a8:	ef 90       	pop	r14
     7aa:	08 95       	ret

000007ac <Terminal_GET_FrontEnd>:

void Terminal_GET_FrontEnd(char *myMessage)
{
     7ac:	cf 93       	push	r28
     7ae:	df 93       	push	r29
     7b0:	fc 01       	movw	r30, r24
	//myCMD:		2 indicator Chars (Position 1 and 2)
	//mySlotNr:		Slot Number (Position 3)
		
	//Local variables
	uint16_t myCMD = _MK16(myMessage[1],myMessage[2]);
	int8_t mySlotNr = myMessage[3] - '0';
     7b2:	d3 81       	ldd	r29, Z+3	; 0x03
     7b4:	c0 ed       	ldi	r28, 0xD0	; 208
     7b6:	cd 0f       	add	r28, r29
	
	switch(myCMD){
     7b8:	22 81       	ldd	r18, Z+2	; 0x02
     7ba:	30 e0       	ldi	r19, 0x00	; 0
     7bc:	32 2f       	mov	r19, r18
     7be:	22 27       	eor	r18, r18
     7c0:	81 81       	ldd	r24, Z+1	; 0x01
     7c2:	28 2b       	or	r18, r24
     7c4:	27 35       	cpi	r18, 0x57	; 87
     7c6:	87 e4       	ldi	r24, 0x47	; 71
     7c8:	38 07       	cpc	r19, r24
     7ca:	79 f0       	breq	.+30     	; 0x7ea <Terminal_GET_FrontEnd+0x3e>
     7cc:	28 f4       	brcc	.+10     	; 0x7d8 <Terminal_GET_FrontEnd+0x2c>
     7ce:	26 35       	cpi	r18, 0x56	; 86
     7d0:	36 44       	sbci	r19, 0x46	; 70
     7d2:	09 f4       	brne	.+2      	; 0x7d6 <Terminal_GET_FrontEnd+0x2a>
     7d4:	61 c0       	rjmp	.+194    	; 0x898 <Terminal_GET_FrontEnd+0xec>
     7d6:	79 c0       	rjmp	.+242    	; 0x8ca <Terminal_GET_FrontEnd+0x11e>
     7d8:	23 35       	cpi	r18, 0x53	; 83
     7da:	89 e4       	ldi	r24, 0x49	; 73
     7dc:	38 07       	cpc	r19, r24
     7de:	09 f4       	brne	.+2      	; 0x7e2 <Terminal_GET_FrontEnd+0x36>
     7e0:	3f c0       	rjmp	.+126    	; 0x860 <Terminal_GET_FrontEnd+0xb4>
     7e2:	27 35       	cpi	r18, 0x57	; 87
     7e4:	3f 44       	sbci	r19, 0x4F	; 79
     7e6:	f1 f0       	breq	.+60     	; 0x824 <Terminal_GET_FrontEnd+0x78>
     7e8:	70 c0       	rjmp	.+224    	; 0x8ca <Terminal_GET_FrontEnd+0x11e>
							
		//1. Gain
		case _MK16('W','G'):
			TransmitString("GWG");
     7ea:	80 e5       	ldi	r24, 0x50	; 80
     7ec:	92 e0       	ldi	r25, 0x02	; 2
     7ee:	0e 94 c0 11 	call	0x2380	; 0x2380 <TransmitString>
			TransmitInt(mySlotNr, 1);
     7f2:	0c 2e       	mov	r0, r28
     7f4:	00 0c       	add	r0, r0
     7f6:	dd 0b       	sbc	r29, r29
     7f8:	61 e0       	ldi	r22, 0x01	; 1
     7fa:	ce 01       	movw	r24, r28
     7fc:	0e 94 c6 11 	call	0x238c	; 0x238c <TransmitInt>
			TransmitString("F=");
     800:	8c e2       	ldi	r24, 0x2C	; 44
     802:	92 e0       	ldi	r25, 0x02	; 2
     804:	0e 94 c0 11 	call	0x2380	; 0x2380 <TransmitString>
			TransmitInt(frontEnd_gain[mySlotNr-1], 1);
     808:	cc 0f       	add	r28, r28
     80a:	dd 1f       	adc	r29, r29
     80c:	cb 53       	subi	r28, 0x3B	; 59
     80e:	db 4f       	sbci	r29, 0xFB	; 251
     810:	61 e0       	ldi	r22, 0x01	; 1
     812:	88 81       	ld	r24, Y
     814:	99 81       	ldd	r25, Y+1	; 0x01
     816:	0e 94 c6 11 	call	0x238c	; 0x238c <TransmitInt>
			TransmitStringLn(" W/O-Unit");
     81a:	8f e2       	ldi	r24, 0x2F	; 47
     81c:	92 e0       	ldi	r25, 0x02	; 2
     81e:	0e 94 c3 11 	call	0x2386	; 0x2386 <TransmitStringLn>
			break;
     822:	57 c0       	rjmp	.+174    	; 0x8d2 <Terminal_GET_FrontEnd+0x126>
							
		//2. Offset
		case _MK16('W','O'):
			TransmitString("GWO");
     824:	84 e5       	ldi	r24, 0x54	; 84
     826:	92 e0       	ldi	r25, 0x02	; 2
     828:	0e 94 c0 11 	call	0x2380	; 0x2380 <TransmitString>
			TransmitInt(mySlotNr, 1);
     82c:	0c 2e       	mov	r0, r28
     82e:	00 0c       	add	r0, r0
     830:	dd 0b       	sbc	r29, r29
     832:	61 e0       	ldi	r22, 0x01	; 1
     834:	ce 01       	movw	r24, r28
     836:	0e 94 c6 11 	call	0x238c	; 0x238c <TransmitInt>
			TransmitString("F=");
     83a:	8c e2       	ldi	r24, 0x2C	; 44
     83c:	92 e0       	ldi	r25, 0x02	; 2
     83e:	0e 94 c0 11 	call	0x2380	; 0x2380 <TransmitString>
			TransmitFloat(frontEnd_offset_voltage_mV[mySlotNr-1], 1, 3);
     842:	cc 0f       	add	r28, r28
     844:	dd 1f       	adc	r29, r29
     846:	cd 5f       	subi	r28, 0xFD	; 253
     848:	db 4f       	sbci	r29, 0xFB	; 251
     84a:	43 e0       	ldi	r20, 0x03	; 3
     84c:	61 e0       	ldi	r22, 0x01	; 1
     84e:	88 81       	ld	r24, Y
     850:	99 81       	ldd	r25, Y+1	; 0x01
     852:	0e 94 96 12 	call	0x252c	; 0x252c <TransmitFloat>
			TransmitStringLn(" V");
     856:	8d e3       	ldi	r24, 0x3D	; 61
     858:	92 e0       	ldi	r25, 0x02	; 2
     85a:	0e 94 c3 11 	call	0x2386	; 0x2386 <TransmitStringLn>
			break;
     85e:	39 c0       	rjmp	.+114    	; 0x8d2 <Terminal_GET_FrontEnd+0x126>
			
		//3. Status Info
		case _MK16('S','I'):
			TransmitString("GSI");
     860:	88 e5       	ldi	r24, 0x58	; 88
     862:	92 e0       	ldi	r25, 0x02	; 2
     864:	0e 94 c0 11 	call	0x2380	; 0x2380 <TransmitString>
			TransmitInt(mySlotNr, 1);
     868:	61 e0       	ldi	r22, 0x01	; 1
     86a:	8c 2f       	mov	r24, r28
     86c:	cc 0f       	add	r28, r28
     86e:	99 0b       	sbc	r25, r25
     870:	0e 94 c6 11 	call	0x238c	; 0x238c <TransmitInt>
			TransmitString("F=");
     874:	8c e2       	ldi	r24, 0x2C	; 44
     876:	92 e0       	ldi	r25, 0x02	; 2
     878:	0e 94 c0 11 	call	0x2380	; 0x2380 <TransmitString>
			TransmitByte(IO_Expander_get_Register(register_GPIO, &IO_PORT4, mySlotNr-1));
     87c:	4f ec       	ldi	r20, 0xCF	; 207
     87e:	4d 0f       	add	r20, r29
     880:	65 e0       	ldi	r22, 0x05	; 5
     882:	71 e0       	ldi	r23, 0x01	; 1
     884:	89 e0       	ldi	r24, 0x09	; 9
     886:	23 d6       	rcall	.+3142   	; 0x14ce <IO_Expander_get_Register>
     888:	90 e0       	ldi	r25, 0x00	; 0
     88a:	0e 94 62 13 	call	0x26c4	; 0x26c4 <TransmitByte>
			TransmitStringLn("");
     88e:	83 e7       	ldi	r24, 0x73	; 115
     890:	93 e0       	ldi	r25, 0x03	; 3
     892:	0e 94 c3 11 	call	0x2386	; 0x2386 <TransmitStringLn>
			break;			
     896:	1d c0       	rjmp	.+58     	; 0x8d2 <Terminal_GET_FrontEnd+0x126>
			
		//4. Voltage at full range DAC
		case _MK16('V','F'):
			TransmitString("GVF");
     898:	8c e5       	ldi	r24, 0x5C	; 92
     89a:	92 e0       	ldi	r25, 0x02	; 2
     89c:	0e 94 c0 11 	call	0x2380	; 0x2380 <TransmitString>
			TransmitInt(mySlotNr, 1);
     8a0:	0c 2e       	mov	r0, r28
     8a2:	00 0c       	add	r0, r0
     8a4:	dd 0b       	sbc	r29, r29
     8a6:	61 e0       	ldi	r22, 0x01	; 1
     8a8:	ce 01       	movw	r24, r28
     8aa:	0e 94 c6 11 	call	0x238c	; 0x238c <TransmitInt>
			TransmitString("F=");
     8ae:	8c e2       	ldi	r24, 0x2C	; 44
     8b0:	92 e0       	ldi	r25, 0x02	; 2
     8b2:	0e 94 c0 11 	call	0x2380	; 0x2380 <TransmitString>
			//Measure and return
			TransmitInt(FrontEnd_Get_Voltage_in_mV_FullRange(mySlotNr), 1);
     8b6:	ce 01       	movw	r24, r28
     8b8:	45 de       	rcall	.-886    	; 0x544 <FrontEnd_Get_Voltage_in_mV_FullRange>
     8ba:	61 e0       	ldi	r22, 0x01	; 1
     8bc:	0e 94 c6 11 	call	0x238c	; 0x238c <TransmitInt>
			TransmitStringLn(" mV");
     8c0:	80 e6       	ldi	r24, 0x60	; 96
     8c2:	92 e0       	ldi	r25, 0x02	; 2
     8c4:	0e 94 c3 11 	call	0x2386	; 0x2386 <TransmitStringLn>
			break;
			
							
		//Default --> Fehler
		default:
			TransmitStringLn("COMMAND ERR");
     8c8:	04 c0       	rjmp	.+8      	; 0x8d2 <Terminal_GET_FrontEnd+0x126>
     8ca:	84 e4       	ldi	r24, 0x44	; 68
     8cc:	92 e0       	ldi	r25, 0x02	; 2
     8ce:	0e 94 c3 11 	call	0x2386	; 0x2386 <TransmitStringLn>
			break;							
	}

     8d2:	df 91       	pop	r29
     8d4:	cf 91       	pop	r28
     8d6:	08 95       	ret

000008d8 <LED_Source_Variables_from_EEPROM>:
	led_Source_Heat_Current_mA[slot_nr-1] = led_source_Heat_current_default;
	led_Source_Meas_Current_0mA1[slot_nr-1] = led_source_Meas_current_default;
	
	eeprom_write_word(&parameter1_eeprom[slot_nr-1], led_Source_Heat_Current_mA[slot_nr-1]);
	eeprom_write_word(&parameter2_eeprom[slot_nr-1], led_Source_Meas_Current_0mA1[slot_nr-1]);
}
     8d8:	cf 93       	push	r28
     8da:	df 93       	push	r29
     8dc:	01 97       	sbiw	r24, 0x01	; 1
     8de:	ec 01       	movw	r28, r24
     8e0:	cc 0f       	add	r28, r28
     8e2:	dd 1f       	adc	r29, r29
     8e4:	ce 01       	movw	r24, r28
     8e6:	80 5e       	subi	r24, 0xE0	; 224
     8e8:	9f 4f       	sbci	r25, 0xFF	; 255
     8ea:	0e 94 30 1f 	call	0x3e60	; 0x3e60 <eeprom_read_word>
     8ee:	fe 01       	movw	r30, r28
     8f0:	eb 54       	subi	r30, 0x4B	; 75
     8f2:	fb 4f       	sbci	r31, 0xFB	; 251
     8f4:	91 83       	std	Z+1, r25	; 0x01
     8f6:	80 83       	st	Z, r24
     8f8:	ce 01       	movw	r24, r28
     8fa:	80 5f       	subi	r24, 0xF0	; 240
     8fc:	9f 4f       	sbci	r25, 0xFF	; 255
     8fe:	0e 94 30 1f 	call	0x3e60	; 0x3e60 <eeprom_read_word>
     902:	c9 5e       	subi	r28, 0xE9	; 233
     904:	db 4f       	sbci	r29, 0xFB	; 251
     906:	99 83       	std	Y+1, r25	; 0x01
     908:	88 83       	st	Y, r24
     90a:	df 91       	pop	r29
     90c:	cf 91       	pop	r28
     90e:	08 95       	ret

00000910 <LED_Source_Set_Heat_Current>:


void LED_Source_Set_Heat_Current(uint16_t current_mA, int slot_nr)
{
     910:	cf 93       	push	r28
	//Binär Wert berechnen
	uint16_t binary_value = (((uint32_t) current_mA) * 0xffff) / 1500;
	
	//Senden
	DAC_AD5752_Set(binary_value, &IO_Port3, slot_nr-1, DAC_ADR_DAC_A);
     912:	cf ef       	ldi	r28, 0xFF	; 255
     914:	c6 0f       	add	r28, r22
     916:	9c 01       	movw	r18, r24
     918:	af ef       	ldi	r26, 0xFF	; 255
     91a:	bf ef       	ldi	r27, 0xFF	; 255
     91c:	0e 94 80 1e 	call	0x3d00	; 0x3d00 <__umulhisi3>
     920:	2c ed       	ldi	r18, 0xDC	; 220
     922:	35 e0       	ldi	r19, 0x05	; 5
     924:	40 e0       	ldi	r20, 0x00	; 0
     926:	50 e0       	ldi	r21, 0x00	; 0
     928:	0e 94 3a 1e 	call	0x3c74	; 0x3c74 <__udivmodsi4>
     92c:	da 01       	movw	r26, r20
     92e:	c9 01       	movw	r24, r18
     930:	20 e0       	ldi	r18, 0x00	; 0
     932:	4c 2f       	mov	r20, r28
     934:	62 e2       	ldi	r22, 0x22	; 34
     936:	70 e0       	ldi	r23, 0x00	; 0
     938:	37 d5       	rcall	.+2670   	; 0x13a8 <DAC_AD5752_Set>
	
}
     93a:	cf 91       	pop	r28
     93c:	08 95       	ret

0000093e <LED_Source_Set_Meas_Current>:
void LED_Source_Set_Meas_Current(uint16_t current_10th_mA, int slot_nr)
{
     93e:	cf 93       	push	r28
	
	//Binär Wert berechnen
	uint16_t binary_value = (((uint32_t) current_10th_mA) * 0xffff) / 250;
	
	//Senden
	DAC_AD5752_Set(binary_value, &IO_Port3, slot_nr-1, DAC_ADR_DAC_B);
     940:	cf ef       	ldi	r28, 0xFF	; 255
     942:	c6 0f       	add	r28, r22
     944:	9c 01       	movw	r18, r24
     946:	af ef       	ldi	r26, 0xFF	; 255
     948:	bf ef       	ldi	r27, 0xFF	; 255
     94a:	0e 94 80 1e 	call	0x3d00	; 0x3d00 <__umulhisi3>
     94e:	2a ef       	ldi	r18, 0xFA	; 250
     950:	30 e0       	ldi	r19, 0x00	; 0
     952:	40 e0       	ldi	r20, 0x00	; 0
     954:	50 e0       	ldi	r21, 0x00	; 0
     956:	0e 94 3a 1e 	call	0x3c74	; 0x3c74 <__udivmodsi4>
     95a:	da 01       	movw	r26, r20
     95c:	c9 01       	movw	r24, r18
     95e:	22 e0       	ldi	r18, 0x02	; 2
     960:	4c 2f       	mov	r20, r28
     962:	62 e2       	ldi	r22, 0x22	; 34
     964:	70 e0       	ldi	r23, 0x00	; 0
     966:	20 d5       	rcall	.+2624   	; 0x13a8 <DAC_AD5752_Set>
	
     968:	cf 91       	pop	r28
     96a:	08 95       	ret

0000096c <LED_Source_Init>:

*/


void LED_Source_Init(int slot_nr)
{
     96c:	0f 93       	push	r16
     96e:	1f 93       	push	r17
     970:	cf 93       	push	r28
     972:	df 93       	push	r29
     974:	8c 01       	movw	r16, r24
	//Set HP&MP to LOW, and all CS to HIGH
	_clear_bit(HP_Port, slot_nr - 1);
     976:	e2 e0       	ldi	r30, 0x02	; 2
     978:	f1 e0       	ldi	r31, 0x01	; 1
     97a:	20 81       	ld	r18, Z
     97c:	ec 01       	movw	r28, r24
     97e:	21 97       	sbiw	r28, 0x01	; 1
     980:	81 e0       	ldi	r24, 0x01	; 1
     982:	90 e0       	ldi	r25, 0x00	; 0
     984:	0c 2e       	mov	r0, r28
     986:	02 c0       	rjmp	.+4      	; 0x98c <LED_Source_Init+0x20>
     988:	88 0f       	add	r24, r24
     98a:	99 1f       	adc	r25, r25
     98c:	0a 94       	dec	r0
     98e:	e2 f7       	brpl	.-8      	; 0x988 <LED_Source_Init+0x1c>
     990:	98 2f       	mov	r25, r24
     992:	90 95       	com	r25
     994:	29 23       	and	r18, r25
     996:	20 83       	st	Z, r18
	_clear_bit(MP_Port, slot_nr - 1);
     998:	e8 e0       	ldi	r30, 0x08	; 8
     99a:	f1 e0       	ldi	r31, 0x01	; 1
     99c:	20 81       	ld	r18, Z
     99e:	92 23       	and	r25, r18
     9a0:	90 83       	st	Z, r25
	_set_bit(IO_Port3, slot_nr - 1);
     9a2:	92 b1       	in	r25, 0x02	; 2
     9a4:	98 2b       	or	r25, r24
     9a6:	92 b9       	out	0x02, r25	; 2
	_set_bit(IO_PORT4, slot_nr - 1);
     9a8:	e5 e0       	ldi	r30, 0x05	; 5
     9aa:	f1 e0       	ldi	r31, 0x01	; 1
     9ac:	90 81       	ld	r25, Z
     9ae:	98 2b       	or	r25, r24
     9b0:	90 83       	st	Z, r25
	_set_bit(IO_PORT5, slot_nr - 1);
     9b2:	9b b1       	in	r25, 0x0b	; 11
     9b4:	98 2b       	or	r25, r24
     9b6:	9b b9       	out	0x0b, r25	; 11
	_set_bit(IO_PORT6, slot_nr - 1);
     9b8:	98 b1       	in	r25, 0x08	; 8
     9ba:	98 2b       	or	r25, r24
     9bc:	98 b9       	out	0x08, r25	; 8
	//Set all as Output
	_set_out(HP_Port, slot_nr - 1);
     9be:	e1 e0       	ldi	r30, 0x01	; 1
     9c0:	f1 e0       	ldi	r31, 0x01	; 1
     9c2:	90 81       	ld	r25, Z
     9c4:	98 2b       	or	r25, r24
     9c6:	90 83       	st	Z, r25
	_set_out(MP_Port, slot_nr - 1);
     9c8:	e7 e0       	ldi	r30, 0x07	; 7
     9ca:	f1 e0       	ldi	r31, 0x01	; 1
     9cc:	90 81       	ld	r25, Z
     9ce:	98 2b       	or	r25, r24
     9d0:	90 83       	st	Z, r25
	_set_out(IO_Port3, slot_nr - 1);
     9d2:	91 b1       	in	r25, 0x01	; 1
     9d4:	98 2b       	or	r25, r24
     9d6:	91 b9       	out	0x01, r25	; 1
	_set_out(IO_PORT4, slot_nr - 1);
     9d8:	e4 e0       	ldi	r30, 0x04	; 4
     9da:	f1 e0       	ldi	r31, 0x01	; 1
     9dc:	90 81       	ld	r25, Z
     9de:	98 2b       	or	r25, r24
     9e0:	90 83       	st	Z, r25
	_set_out(IO_PORT5, slot_nr - 1);
     9e2:	9a b1       	in	r25, 0x0a	; 10
     9e4:	98 2b       	or	r25, r24
     9e6:	9a b9       	out	0x0a, r25	; 10
	_set_out(IO_PORT6, slot_nr - 1);
     9e8:	97 b1       	in	r25, 0x07	; 7
     9ea:	89 2b       	or	r24, r25
     9ec:	87 b9       	out	0x07, r24	; 7
	

	//ADC initialization
	//Range: +5V
	//Both Channels on
	DAC_AD5752_Range_and_PowerUp(Range_p5V, PowerUp_AB, &IO_Port3, slot_nr-1);	
     9ee:	2f ef       	ldi	r18, 0xFF	; 255
     9f0:	20 0f       	add	r18, r16
     9f2:	42 e2       	ldi	r20, 0x22	; 34
     9f4:	50 e0       	ldi	r21, 0x00	; 0
     9f6:	65 e0       	ldi	r22, 0x05	; 5
     9f8:	80 e0       	ldi	r24, 0x00	; 0
     9fa:	ab d4       	rcall	.+2390   	; 0x1352 <DAC_AD5752_Range_and_PowerUp>
	
	//Set DAC output
	LED_Source_Set_Heat_Current(led_Source_Heat_Current_mA[slot_nr-1], slot_nr);		
     9fc:	cc 0f       	add	r28, r28
     9fe:	dd 1f       	adc	r29, r29
     a00:	fe 01       	movw	r30, r28
     a02:	eb 54       	subi	r30, 0x4B	; 75
     a04:	fb 4f       	sbci	r31, 0xFB	; 251
     a06:	b8 01       	movw	r22, r16
     a08:	80 81       	ld	r24, Z
     a0a:	91 81       	ldd	r25, Z+1	; 0x01
     a0c:	81 df       	rcall	.-254    	; 0x910 <LED_Source_Set_Heat_Current>
	LED_Source_Set_Meas_Current(led_Source_Meas_Current_0mA1[slot_nr-1], slot_nr);	
     a0e:	c9 5e       	subi	r28, 0xE9	; 233
     a10:	db 4f       	sbci	r29, 0xFB	; 251
     a12:	b8 01       	movw	r22, r16
     a14:	88 81       	ld	r24, Y
     a16:	99 81       	ldd	r25, Y+1	; 0x01
     a18:	92 df       	rcall	.-220    	; 0x93e <LED_Source_Set_Meas_Current>
}
     a1a:	df 91       	pop	r29
     a1c:	cf 91       	pop	r28
     a1e:	1f 91       	pop	r17
     a20:	0f 91       	pop	r16
     a22:	08 95       	ret

00000a24 <BreakDown_Variables_from_EEPROM>:
void BreakDown_Default_Values(int slot_nr)
{
	//Set default values (Local & EEPROM)
	breakDown_V_GS_mV[slot_nr-1] = breakDown_V_GS_mV_default;
	
	eeprom_write_word(&parameter1_eeprom[slot_nr-1], breakDown_V_GS_mV[slot_nr-1]);
     a24:	cf 93       	push	r28
     a26:	df 93       	push	r29
     a28:	01 97       	sbiw	r24, 0x01	; 1
     a2a:	ec 01       	movw	r28, r24
     a2c:	cc 0f       	add	r28, r28
     a2e:	dd 1f       	adc	r29, r29
     a30:	ce 01       	movw	r24, r28
     a32:	80 5e       	subi	r24, 0xE0	; 224
     a34:	9f 4f       	sbci	r25, 0xFF	; 255
     a36:	0e 94 30 1f 	call	0x3e60	; 0x3e60 <eeprom_read_word>
     a3a:	ca 5a       	subi	r28, 0xAA	; 170
     a3c:	da 4f       	sbci	r29, 0xFA	; 250
     a3e:	99 83       	std	Y+1, r25	; 0x01
     a40:	88 83       	st	Y, r24
     a42:	df 91       	pop	r29
     a44:	cf 91       	pop	r28
     a46:	08 95       	ret

00000a48 <B_Set_Relais_to_BreakDownTest>:
//*******************************************************************
//						 Relay - FCTs
//*******************************************************************

void B_Set_Relais_to_BreakDownTest(int slot_nr)
{
     a48:	cf 93       	push	r28
	//Switch of all relays
	IO_Expander_set_Register(register_OLAT, 0x00, &IO_PORT6, slot_nr-1);
     a4a:	cf ef       	ldi	r28, 0xFF	; 255
     a4c:	c8 0f       	add	r28, r24
     a4e:	2c 2f       	mov	r18, r28
     a50:	48 e2       	ldi	r20, 0x28	; 40
     a52:	50 e0       	ldi	r21, 0x00	; 0
     a54:	60 e0       	ldi	r22, 0x00	; 0
     a56:	8a e0       	ldi	r24, 0x0A	; 10
     a58:	18 d5       	rcall	.+2608   	; 0x148a <IO_Expander_set_Register>
	#else
		//round up by default
		__ticks_dc = (uint32_t)(ceil(fabs(__tmp)));
	#endif

	__builtin_avr_delay_cycles(__ticks_dc);
     a5a:	2f ef       	ldi	r18, 0xFF	; 255
     a5c:	81 ee       	ldi	r24, 0xE1	; 225
     a5e:	94 e0       	ldi	r25, 0x04	; 4
     a60:	21 50       	subi	r18, 0x01	; 1
     a62:	80 40       	sbci	r24, 0x00	; 0
     a64:	90 40       	sbci	r25, 0x00	; 0
     a66:	e1 f7       	brne	.-8      	; 0xa60 <B_Set_Relais_to_BreakDownTest+0x18>
     a68:	00 c0       	rjmp	.+0      	; 0xa6a <B_Set_Relais_to_BreakDownTest+0x22>
     a6a:	00 00       	nop
	//Wait to be save that switched of
	_delay_ms(100);
	
	//Switch on relay 2 & 5
	//GS-->GND & DS-->SMU
	IO_Expander_set_Register(register_OLAT, 0x24, &IO_PORT6, slot_nr-1); 
     a6c:	2c 2f       	mov	r18, r28
     a6e:	48 e2       	ldi	r20, 0x28	; 40
     a70:	50 e0       	ldi	r21, 0x00	; 0
     a72:	64 e2       	ldi	r22, 0x24	; 36
     a74:	8a e0       	ldi	r24, 0x0A	; 10
     a76:	09 d5       	rcall	.+2578   	; 0x148a <IO_Expander_set_Register>
}
     a78:	cf 91       	pop	r28
     a7a:	08 95       	ret

00000a7c <B_Set_Relais_to_Leakage_GS>:

void B_Set_Relais_to_Leakage_GS(int slot_nr)
{
     a7c:	cf 93       	push	r28
	//Switch of all relays
	IO_Expander_set_Register(register_OLAT, 0x00, &IO_PORT6, slot_nr-1);
     a7e:	cf ef       	ldi	r28, 0xFF	; 255
     a80:	c8 0f       	add	r28, r24
     a82:	2c 2f       	mov	r18, r28
     a84:	48 e2       	ldi	r20, 0x28	; 40
     a86:	50 e0       	ldi	r21, 0x00	; 0
     a88:	60 e0       	ldi	r22, 0x00	; 0
     a8a:	8a e0       	ldi	r24, 0x0A	; 10
     a8c:	fe d4       	rcall	.+2556   	; 0x148a <IO_Expander_set_Register>
     a8e:	2f ef       	ldi	r18, 0xFF	; 255
     a90:	81 ee       	ldi	r24, 0xE1	; 225
     a92:	94 e0       	ldi	r25, 0x04	; 4
     a94:	21 50       	subi	r18, 0x01	; 1
     a96:	80 40       	sbci	r24, 0x00	; 0
     a98:	90 40       	sbci	r25, 0x00	; 0
     a9a:	e1 f7       	brne	.-8      	; 0xa94 <B_Set_Relais_to_Leakage_GS+0x18>
     a9c:	00 c0       	rjmp	.+0      	; 0xa9e <B_Set_Relais_to_Leakage_GS+0x22>
     a9e:	00 00       	nop
	//Wait to be save that switched of
	_delay_ms(100);
	
	//Switch on relay 1 & 3
	//GS-->SMU & DS-->GND
	IO_Expander_set_Register(register_OLAT, 0x0A, &IO_PORT6, slot_nr-1); 
     aa0:	2c 2f       	mov	r18, r28
     aa2:	48 e2       	ldi	r20, 0x28	; 40
     aa4:	50 e0       	ldi	r21, 0x00	; 0
     aa6:	6a e0       	ldi	r22, 0x0A	; 10
     aa8:	8a e0       	ldi	r24, 0x0A	; 10
     aaa:	ef d4       	rcall	.+2526   	; 0x148a <IO_Expander_set_Register>
}
     aac:	cf 91       	pop	r28
     aae:	08 95       	ret

00000ab0 <B_Set_Relais_to_Characteristic_Curve>:

void B_Set_Relais_to_Characteristic_Curve(int slot_nr)
{
     ab0:	cf 93       	push	r28
	//Switch of all relays
	IO_Expander_set_Register(register_OLAT, 0x00, &IO_PORT6, slot_nr-1);
     ab2:	cf ef       	ldi	r28, 0xFF	; 255
     ab4:	c8 0f       	add	r28, r24
     ab6:	2c 2f       	mov	r18, r28
     ab8:	48 e2       	ldi	r20, 0x28	; 40
     aba:	50 e0       	ldi	r21, 0x00	; 0
     abc:	60 e0       	ldi	r22, 0x00	; 0
     abe:	8a e0       	ldi	r24, 0x0A	; 10
     ac0:	e4 d4       	rcall	.+2504   	; 0x148a <IO_Expander_set_Register>
     ac2:	2f ef       	ldi	r18, 0xFF	; 255
     ac4:	81 ee       	ldi	r24, 0xE1	; 225
     ac6:	94 e0       	ldi	r25, 0x04	; 4
     ac8:	21 50       	subi	r18, 0x01	; 1
     aca:	80 40       	sbci	r24, 0x00	; 0
     acc:	90 40       	sbci	r25, 0x00	; 0
     ace:	e1 f7       	brne	.-8      	; 0xac8 <B_Set_Relais_to_Characteristic_Curve+0x18>
     ad0:	00 c0       	rjmp	.+0      	; 0xad2 <B_Set_Relais_to_Characteristic_Curve+0x22>
     ad2:	00 00       	nop
	//Wait to be save that switched of
	_delay_ms(100);
	
	//Switch on relay 0 & 4
	//GS-->DAC & DS-->COM
	IO_Expander_set_Register(register_OLAT, 0x11, &IO_PORT6, slot_nr-1); 
     ad4:	2c 2f       	mov	r18, r28
     ad6:	48 e2       	ldi	r20, 0x28	; 40
     ad8:	50 e0       	ldi	r21, 0x00	; 0
     ada:	61 e1       	ldi	r22, 0x11	; 17
     adc:	8a e0       	ldi	r24, 0x0A	; 10
     ade:	d5 d4       	rcall	.+2474   	; 0x148a <IO_Expander_set_Register>
}
     ae0:	cf 91       	pop	r28
     ae2:	08 95       	ret

00000ae4 <B_Set_Relais_to_BodyDiode_Curve>:

void B_Set_Relais_to_BodyDiode_Curve(int slot_nr)
{
     ae4:	cf 93       	push	r28
	//Switch of all relays
	IO_Expander_set_Register(register_OLAT, 0x00, &IO_PORT6, slot_nr-1);
     ae6:	cf ef       	ldi	r28, 0xFF	; 255
     ae8:	c8 0f       	add	r28, r24
     aea:	2c 2f       	mov	r18, r28
     aec:	48 e2       	ldi	r20, 0x28	; 40
     aee:	50 e0       	ldi	r21, 0x00	; 0
     af0:	60 e0       	ldi	r22, 0x00	; 0
     af2:	8a e0       	ldi	r24, 0x0A	; 10
     af4:	ca d4       	rcall	.+2452   	; 0x148a <IO_Expander_set_Register>
     af6:	2f ef       	ldi	r18, 0xFF	; 255
     af8:	81 ee       	ldi	r24, 0xE1	; 225
     afa:	94 e0       	ldi	r25, 0x04	; 4
     afc:	21 50       	subi	r18, 0x01	; 1
     afe:	80 40       	sbci	r24, 0x00	; 0
     b00:	90 40       	sbci	r25, 0x00	; 0
     b02:	e1 f7       	brne	.-8      	; 0xafc <B_Set_Relais_to_BodyDiode_Curve+0x18>
     b04:	00 c0       	rjmp	.+0      	; 0xb06 <B_Set_Relais_to_BodyDiode_Curve+0x22>
     b06:	00 00       	nop
	//Wait to be save that switched of
	_delay_ms(100);
	
	//Switch on relay 2 & 4
	//GS-->DAC & DS-->SMU
	IO_Expander_set_Register(register_OLAT, 0x14, &IO_PORT6, slot_nr-1); 
     b08:	2c 2f       	mov	r18, r28
     b0a:	48 e2       	ldi	r20, 0x28	; 40
     b0c:	50 e0       	ldi	r21, 0x00	; 0
     b0e:	64 e1       	ldi	r22, 0x14	; 20
     b10:	8a e0       	ldi	r24, 0x0A	; 10
     b12:	bb d4       	rcall	.+2422   	; 0x148a <IO_Expander_set_Register>
}
     b14:	cf 91       	pop	r28
     b16:	08 95       	ret

00000b18 <B_Set_Relais_all_off>:

void B_Set_Relais_all_off(int slot_nr)
{
	//Switch of all relays
	IO_Expander_set_Register(register_OLAT, 0x00, &IO_PORT6, slot_nr-1);
     b18:	2f ef       	ldi	r18, 0xFF	; 255
     b1a:	28 0f       	add	r18, r24
     b1c:	48 e2       	ldi	r20, 0x28	; 40
     b1e:	50 e0       	ldi	r21, 0x00	; 0
     b20:	60 e0       	ldi	r22, 0x00	; 0
     b22:	8a e0       	ldi	r24, 0x0A	; 10
     b24:	b2 d4       	rcall	.+2404   	; 0x148a <IO_Expander_set_Register>
     b26:	2f ef       	ldi	r18, 0xFF	; 255
     b28:	81 ee       	ldi	r24, 0xE1	; 225
     b2a:	94 e0       	ldi	r25, 0x04	; 4
     b2c:	21 50       	subi	r18, 0x01	; 1
     b2e:	80 40       	sbci	r24, 0x00	; 0
     b30:	90 40       	sbci	r25, 0x00	; 0
     b32:	e1 f7       	brne	.-8      	; 0xb2c <B_Set_Relais_all_off+0x14>
     b34:	00 c0       	rjmp	.+0      	; 0xb36 <B_Set_Relais_all_off+0x1e>
     b36:	00 00       	nop
     b38:	08 95       	ret

00000b3a <BreakDown_Set_V_GS_mV>:
//*******************************************************************
//						 Setting - FCTs
//*******************************************************************

void BreakDown_Set_V_GS_mV(int16_t V_GS_mV, int slot_nr)
{
     b3a:	cf 93       	push	r28
	
	//Calculate binary value
	uint16_t binary_value = (((int32_t)V_GS_mV) * 0xffff) / 40000;
	V_GS_mV = binary_value;
	//Send
	DAC_AD5752_Set(binary_value, &IO_Port3, slot_nr-1, DAC_ADR_DAC_A);		
     b3c:	cf ef       	ldi	r28, 0xFF	; 255
     b3e:	c6 0f       	add	r28, r22
     b40:	2f ef       	ldi	r18, 0xFF	; 255
     b42:	3f ef       	ldi	r19, 0xFF	; 255
     b44:	dc 01       	movw	r26, r24
     b46:	0e 94 8f 1e 	call	0x3d1e	; 0x3d1e <__usmulhisi3>
     b4a:	20 e4       	ldi	r18, 0x40	; 64
     b4c:	3c e9       	ldi	r19, 0x9C	; 156
     b4e:	40 e0       	ldi	r20, 0x00	; 0
     b50:	50 e0       	ldi	r21, 0x00	; 0
     b52:	0e 94 5c 1e 	call	0x3cb8	; 0x3cb8 <__divmodsi4>
     b56:	da 01       	movw	r26, r20
     b58:	c9 01       	movw	r24, r18
     b5a:	20 e0       	ldi	r18, 0x00	; 0
     b5c:	4c 2f       	mov	r20, r28
     b5e:	62 e2       	ldi	r22, 0x22	; 34
     b60:	70 e0       	ldi	r23, 0x00	; 0
     b62:	22 d4       	rcall	.+2116   	; 0x13a8 <DAC_AD5752_Set>
}
     b64:	cf 91       	pop	r28
     b66:	08 95       	ret

00000b68 <MOSFET_BreakDown_Init>:
//*******************************************************************
//						 Init & EEPROM
//*******************************************************************

void MOSFET_BreakDown_Init(int slot_nr)
{
     b68:	0f 93       	push	r16
     b6a:	1f 93       	push	r17
     b6c:	cf 93       	push	r28
	//Set HP&MP to LOW, and all CS to HIGH
	_clear_bit(HP_Port, slot_nr - 1);
     b6e:	e2 e0       	ldi	r30, 0x02	; 2
     b70:	f1 e0       	ldi	r31, 0x01	; 1
     b72:	20 81       	ld	r18, Z
     b74:	8c 01       	movw	r16, r24
     b76:	01 50       	subi	r16, 0x01	; 1
     b78:	11 09       	sbc	r17, r1
     b7a:	41 e0       	ldi	r20, 0x01	; 1
     b7c:	50 e0       	ldi	r21, 0x00	; 0
     b7e:	00 2e       	mov	r0, r16
     b80:	02 c0       	rjmp	.+4      	; 0xb86 <MOSFET_BreakDown_Init+0x1e>
     b82:	44 0f       	add	r20, r20
     b84:	55 1f       	adc	r21, r21
     b86:	0a 94       	dec	r0
     b88:	e2 f7       	brpl	.-8      	; 0xb82 <MOSFET_BreakDown_Init+0x1a>
     b8a:	94 2f       	mov	r25, r20
     b8c:	90 95       	com	r25
     b8e:	29 23       	and	r18, r25
     b90:	20 83       	st	Z, r18
	_clear_bit(MP_Port, slot_nr - 1);
     b92:	e8 e0       	ldi	r30, 0x08	; 8
     b94:	f1 e0       	ldi	r31, 0x01	; 1
     b96:	20 81       	ld	r18, Z
     b98:	92 23       	and	r25, r18
     b9a:	90 83       	st	Z, r25
	_set_bit(IO_Port3, slot_nr - 1);
     b9c:	92 b1       	in	r25, 0x02	; 2
     b9e:	94 2b       	or	r25, r20
     ba0:	92 b9       	out	0x02, r25	; 2
	_set_bit(IO_PORT4, slot_nr - 1);
     ba2:	e5 e0       	ldi	r30, 0x05	; 5
     ba4:	f1 e0       	ldi	r31, 0x01	; 1
     ba6:	90 81       	ld	r25, Z
     ba8:	94 2b       	or	r25, r20
     baa:	90 83       	st	Z, r25
	_set_bit(IO_PORT5, slot_nr - 1);
     bac:	9b b1       	in	r25, 0x0b	; 11
     bae:	94 2b       	or	r25, r20
     bb0:	9b b9       	out	0x0b, r25	; 11
	_set_bit(IO_PORT6, slot_nr - 1);
     bb2:	98 b1       	in	r25, 0x08	; 8
     bb4:	94 2b       	or	r25, r20
     bb6:	98 b9       	out	0x08, r25	; 8
	//Set all as Output
	_set_out(HP_Port, slot_nr - 1);
     bb8:	e1 e0       	ldi	r30, 0x01	; 1
     bba:	f1 e0       	ldi	r31, 0x01	; 1
     bbc:	90 81       	ld	r25, Z
     bbe:	94 2b       	or	r25, r20
     bc0:	90 83       	st	Z, r25
	_set_out(MP_Port, slot_nr - 1);
     bc2:	e7 e0       	ldi	r30, 0x07	; 7
     bc4:	f1 e0       	ldi	r31, 0x01	; 1
     bc6:	90 81       	ld	r25, Z
     bc8:	94 2b       	or	r25, r20
     bca:	90 83       	st	Z, r25
	_set_out(IO_Port3, slot_nr - 1);
     bcc:	91 b1       	in	r25, 0x01	; 1
     bce:	94 2b       	or	r25, r20
     bd0:	91 b9       	out	0x01, r25	; 1
	_set_out(IO_PORT4, slot_nr - 1);
     bd2:	e4 e0       	ldi	r30, 0x04	; 4
     bd4:	f1 e0       	ldi	r31, 0x01	; 1
     bd6:	90 81       	ld	r25, Z
     bd8:	94 2b       	or	r25, r20
     bda:	90 83       	st	Z, r25
	_set_out(IO_PORT5, slot_nr - 1);
     bdc:	9a b1       	in	r25, 0x0a	; 10
     bde:	94 2b       	or	r25, r20
     be0:	9a b9       	out	0x0a, r25	; 10
	_set_out(IO_PORT6, slot_nr - 1);
     be2:	97 b1       	in	r25, 0x07	; 7
     be4:	49 2b       	or	r20, r25
     be6:	47 b9       	out	0x07, r20	; 7
	
	//ADC initialization
	//Range: +10V
	//Only Channel A
	//DAC_AD5752_Range_and_PowerUp(Range_p5V, PowerUp_A, &IO_Port3, slot_nr-1);
	DAC_AD5752_Range_and_PowerUp(Range_pm5V, PowerUp_A, &IO_Port3, slot_nr-1);
     be8:	cf ef       	ldi	r28, 0xFF	; 255
     bea:	c8 0f       	add	r28, r24
     bec:	2c 2f       	mov	r18, r28
     bee:	42 e2       	ldi	r20, 0x22	; 34
     bf0:	50 e0       	ldi	r21, 0x00	; 0
     bf2:	61 e0       	ldi	r22, 0x01	; 1
     bf4:	83 e0       	ldi	r24, 0x03	; 3
     bf6:	ad d3       	rcall	.+1882   	; 0x1352 <DAC_AD5752_Range_and_PowerUp>
	
	//Register in MCP23S08:
	//All as Outputs
	//0 means OUT, 1 means IN
	IO_Expander_set_Register(register_IODIR, 0x00, &IO_PORT6, slot_nr-1);
     bf8:	2c 2f       	mov	r18, r28
     bfa:	48 e2       	ldi	r20, 0x28	; 40
     bfc:	50 e0       	ldi	r21, 0x00	; 0
     bfe:	60 e0       	ldi	r22, 0x00	; 0
     c00:	80 e0       	ldi	r24, 0x00	; 0
     c02:	43 d4       	rcall	.+2182   	; 0x148a <IO_Expander_set_Register>

	//All to LOW (Relays off)
	IO_Expander_set_Register(register_OLAT, 0x00, &IO_PORT6, slot_nr-1);
     c04:	2c 2f       	mov	r18, r28
     c06:	48 e2       	ldi	r20, 0x28	; 40
     c08:	50 e0       	ldi	r21, 0x00	; 0
     c0a:	60 e0       	ldi	r22, 0x00	; 0
     c0c:	8a e0       	ldi	r24, 0x0A	; 10
     c0e:	3d d4       	rcall	.+2170   	; 0x148a <IO_Expander_set_Register>
	
	//Set V_GS
	BreakDown_Set_V_GS_mV(breakDown_V_GS_mV[slot_nr-1], slot_nr-1);
     c10:	f8 01       	movw	r30, r16
     c12:	ee 0f       	add	r30, r30
     c14:	ff 1f       	adc	r31, r31
     c16:	ea 5a       	subi	r30, 0xAA	; 170
     c18:	fa 4f       	sbci	r31, 0xFA	; 250
     c1a:	b8 01       	movw	r22, r16
     c1c:	80 81       	ld	r24, Z
     c1e:	91 81       	ldd	r25, Z+1	; 0x01
     c20:	8c df       	rcall	.-232    	; 0xb3a <BreakDown_Set_V_GS_mV>
}
     c22:	cf 91       	pop	r28
     c24:	1f 91       	pop	r17
     c26:	0f 91       	pop	r16
     c28:	08 95       	ret

00000c2a <B_Get_V_DS_in_mV>:
//*******************************************************************

int B_Get_V_DS_in_mV(int slot_nr)
{
	//get binary value
	uint32_t temp = LTC1864_getBIT_OneShot(&IO_PORT4, slot_nr-1);
     c2a:	6f ef       	ldi	r22, 0xFF	; 255
     c2c:	68 0f       	add	r22, r24
     c2e:	85 e0       	ldi	r24, 0x05	; 5
     c30:	91 e0       	ldi	r25, 0x01	; 1
     c32:	df d3       	rcall	.+1982   	; 0x13f2 <LTC1864_getBIT_OneShot>
	
	//Convert (DAC Range: 0...2,5V / Pre-Divider: 16 --> Whole Range 0...40000mV)
	return (temp * 40000)>>16;
     c34:	9c 01       	movw	r18, r24
     c36:	a0 e4       	ldi	r26, 0x40	; 64
     c38:	bc e9       	ldi	r27, 0x9C	; 156
     c3a:	0c 94 80 1e 	jmp	0x3d00	; 0x3d00 <__umulhisi3>

00000c3e <B_Get_I_DS_in_mA>:
}

int B_Get_I_DS_in_mA(int slot_nr)
{
	//get binary value
	uint32_t temp = LTC1864_getBIT_OneShot(&IO_PORT5, slot_nr-1);
     c3e:	6f ef       	ldi	r22, 0xFF	; 255
     c40:	68 0f       	add	r22, r24
     c42:	8b e2       	ldi	r24, 0x2B	; 43
     c44:	90 e0       	ldi	r25, 0x00	; 0
     c46:	d5 d3       	rcall	.+1962   	; 0x13f2 <LTC1864_getBIT_OneShot>
	
	//Convert (DAC Range: 0...2,5V / R=50mOhm, Gain = 25 --> 0...2A)
	return (temp * 2000)>>16;
     c48:	9c 01       	movw	r18, r24
     c4a:	a0 ed       	ldi	r26, 0xD0	; 208
     c4c:	b7 e0       	ldi	r27, 0x07	; 7
     c4e:	0c 94 80 1e 	jmp	0x3d00	; 0x3d00 <__umulhisi3>

00000c52 <Terminal_SET_BreakDown>:
//*******************************************************************
//							  Terminal
//*******************************************************************

void Terminal_SET_BreakDown(char *myMessage)
{
     c52:	ef 92       	push	r14
     c54:	ff 92       	push	r15
     c56:	0f 93       	push	r16
     c58:	1f 93       	push	r17
     c5a:	cf 93       	push	r28
     c5c:	df 93       	push	r29
     c5e:	1f 92       	push	r1
     c60:	1f 92       	push	r1
     c62:	cd b7       	in	r28, 0x3d	; 61
     c64:	de b7       	in	r29, 0x3e	; 62
     c66:	fc 01       	movw	r30, r24
	//myMessage:	whole message
	//myCMD:		2 indicator Chars (Position 1 and 2)
	//mySlotNr:		Slot Number (Position 3)
	
	//Local variables
	uint16_t myCMD = _MK16(myMessage[1],myMessage[2]);
     c68:	22 81       	ldd	r18, Z+2	; 0x02
     c6a:	30 e0       	ldi	r19, 0x00	; 0
     c6c:	32 2f       	mov	r19, r18
     c6e:	22 27       	eor	r18, r18
     c70:	81 81       	ldd	r24, Z+1	; 0x01
     c72:	28 2b       	or	r18, r24
	int8_t mySlotNr = myMessage[3] - '0';
     c74:	03 81       	ldd	r16, Z+3	; 0x03
     c76:	00 53       	subi	r16, 0x30	; 48
	int16_t temp16 = 0;
     c78:	1a 82       	std	Y+2, r1	; 0x02
     c7a:	19 82       	std	Y+1, r1	; 0x01
	
	//Dependent on indicator Chars --> Command
	switch(myCMD)
     c7c:	22 35       	cpi	r18, 0x52	; 82
     c7e:	84 e4       	ldi	r24, 0x44	; 68
     c80:	38 07       	cpc	r19, r24
     c82:	09 f4       	brne	.+2      	; 0xc86 <Terminal_SET_BreakDown+0x34>
     c84:	ce c0       	rjmp	.+412    	; 0xe22 <Terminal_SET_BreakDown+0x1d0>
     c86:	48 f4       	brcc	.+18     	; 0xc9a <Terminal_SET_BreakDown+0x48>
     c88:	22 35       	cpi	r18, 0x52	; 82
     c8a:	82 e4       	ldi	r24, 0x42	; 66
     c8c:	38 07       	cpc	r19, r24
     c8e:	69 f1       	breq	.+90     	; 0xcea <Terminal_SET_BreakDown+0x98>
     c90:	22 35       	cpi	r18, 0x52	; 82
     c92:	33 44       	sbci	r19, 0x43	; 67
     c94:	09 f4       	brne	.+2      	; 0xc98 <Terminal_SET_BreakDown+0x46>
     c96:	91 c0       	rjmp	.+290    	; 0xdba <Terminal_SET_BreakDown+0x168>
     c98:	49 c1       	rjmp	.+658    	; 0xf2c <Terminal_SET_BreakDown+0x2da>
     c9a:	22 35       	cpi	r18, 0x52	; 82
     c9c:	8c e4       	ldi	r24, 0x4C	; 76
     c9e:	38 07       	cpc	r19, r24
     ca0:	09 f4       	brne	.+2      	; 0xca4 <Terminal_SET_BreakDown+0x52>
     ca2:	57 c0       	rjmp	.+174    	; 0xd52 <Terminal_SET_BreakDown+0x100>
     ca4:	29 34       	cpi	r18, 0x49	; 73
     ca6:	8e e4       	ldi	r24, 0x4E	; 78
     ca8:	38 07       	cpc	r19, r24
     caa:	29 f0       	breq	.+10     	; 0xcb6 <Terminal_SET_BreakDown+0x64>
     cac:	26 35       	cpi	r18, 0x56	; 86
     cae:	37 44       	sbci	r19, 0x47	; 71
     cb0:	09 f0       	breq	.+2      	; 0xcb4 <Terminal_SET_BreakDown+0x62>
     cb2:	3c c1       	rjmp	.+632    	; 0xf2c <Terminal_SET_BreakDown+0x2da>
     cb4:	ea c0       	rjmp	.+468    	; 0xe8a <Terminal_SET_BreakDown+0x238>
	{
		//1. Initialization
		case _MK16('I','N'):
			if (myMessage[5] != '\n')
     cb6:	85 81       	ldd	r24, Z+5	; 0x05
     cb8:	8a 30       	cpi	r24, 0x0A	; 10
     cba:	29 f0       	breq	.+10     	; 0xcc6 <Terminal_SET_BreakDown+0x74>
			{
				//to many signs
				TransmitStringLn("FORMAT ERR");
     cbc:	8e e0       	ldi	r24, 0x0E	; 14
     cbe:	92 e0       	ldi	r25, 0x02	; 2
     cc0:	0e 94 c3 11 	call	0x2386	; 0x2386 <TransmitStringLn>
     cc4:	37 c1       	rjmp	.+622    	; 0xf34 <Terminal_SET_BreakDown+0x2e2>
			}
			else
			{
				MOSFET_BreakDown_Init(mySlotNr);
     cc6:	00 2e       	mov	r0, r16
     cc8:	00 0c       	add	r0, r0
     cca:	11 0b       	sbc	r17, r17
     ccc:	c8 01       	movw	r24, r16
     cce:	4c df       	rcall	.-360    	; 0xb68 <MOSFET_BreakDown_Init>
			
				//Answer
				TransmitString("SIN");
     cd0:	89 e1       	ldi	r24, 0x19	; 25
     cd2:	92 e0       	ldi	r25, 0x02	; 2
     cd4:	0e 94 c0 11 	call	0x2380	; 0x2380 <TransmitString>
				TransmitInt(mySlotNr, 1);
     cd8:	61 e0       	ldi	r22, 0x01	; 1
     cda:	c8 01       	movw	r24, r16
     cdc:	0e 94 c6 11 	call	0x238c	; 0x238c <TransmitInt>
				TransmitStringLn("B");
     ce0:	86 e6       	ldi	r24, 0x66	; 102
     ce2:	92 e0       	ldi	r25, 0x02	; 2
     ce4:	0e 94 c3 11 	call	0x2386	; 0x2386 <TransmitStringLn>
     ce8:	25 c1       	rjmp	.+586    	; 0xf34 <Terminal_SET_BreakDown+0x2e2>
			}
			break;
		
		//2. Relays for Breakdown
		case _MK16('R','B'):
			if (myMessage[6] == '1' && myMessage[7] == '\n')
     cea:	86 81       	ldd	r24, Z+6	; 0x06
     cec:	81 33       	cpi	r24, 0x31	; 49
     cee:	a9 f4       	brne	.+42     	; 0xd1a <Terminal_SET_BreakDown+0xc8>
     cf0:	87 81       	ldd	r24, Z+7	; 0x07
     cf2:	8a 30       	cpi	r24, 0x0A	; 10
     cf4:	49 f5       	brne	.+82     	; 0xd48 <Terminal_SET_BreakDown+0xf6>
			{
				//Switch Relays
				B_Set_Relais_to_BreakDownTest(mySlotNr);
     cf6:	00 2e       	mov	r0, r16
     cf8:	00 0c       	add	r0, r0
     cfa:	11 0b       	sbc	r17, r17
     cfc:	c8 01       	movw	r24, r16
     cfe:	a4 de       	rcall	.-696    	; 0xa48 <B_Set_Relais_to_BreakDownTest>

				//Answer
				TransmitString("SRB");
     d00:	84 e6       	ldi	r24, 0x64	; 100
     d02:	92 e0       	ldi	r25, 0x02	; 2
     d04:	0e 94 c0 11 	call	0x2380	; 0x2380 <TransmitString>
				TransmitInt(mySlotNr, 1);
     d08:	61 e0       	ldi	r22, 0x01	; 1
     d0a:	c8 01       	movw	r24, r16
     d0c:	0e 94 c6 11 	call	0x238c	; 0x238c <TransmitInt>
				TransmitStringLn("B=1");
     d10:	88 e6       	ldi	r24, 0x68	; 104
     d12:	92 e0       	ldi	r25, 0x02	; 2
     d14:	0e 94 c3 11 	call	0x2386	; 0x2386 <TransmitStringLn>
     d18:	0d c1       	rjmp	.+538    	; 0xf34 <Terminal_SET_BreakDown+0x2e2>
			}
			else if (myMessage[6] == '0' && myMessage[7] == '\n')
     d1a:	80 33       	cpi	r24, 0x30	; 48
     d1c:	a9 f4       	brne	.+42     	; 0xd48 <Terminal_SET_BreakDown+0xf6>
     d1e:	87 81       	ldd	r24, Z+7	; 0x07
     d20:	8a 30       	cpi	r24, 0x0A	; 10
     d22:	91 f4       	brne	.+36     	; 0xd48 <Terminal_SET_BreakDown+0xf6>
			{
				//Switch Relays
				B_Set_Relais_all_off(mySlotNr);
     d24:	00 2e       	mov	r0, r16
     d26:	00 0c       	add	r0, r0
     d28:	11 0b       	sbc	r17, r17
     d2a:	c8 01       	movw	r24, r16
     d2c:	f5 de       	rcall	.-534    	; 0xb18 <B_Set_Relais_all_off>

				//Answer
				TransmitString("SRB");
     d2e:	84 e6       	ldi	r24, 0x64	; 100
     d30:	92 e0       	ldi	r25, 0x02	; 2
     d32:	0e 94 c0 11 	call	0x2380	; 0x2380 <TransmitString>
				TransmitInt(mySlotNr, 1);
     d36:	61 e0       	ldi	r22, 0x01	; 1
     d38:	c8 01       	movw	r24, r16
     d3a:	0e 94 c6 11 	call	0x238c	; 0x238c <TransmitInt>
				TransmitStringLn("B=0");
     d3e:	8c e6       	ldi	r24, 0x6C	; 108
     d40:	92 e0       	ldi	r25, 0x02	; 2
     d42:	0e 94 c3 11 	call	0x2386	; 0x2386 <TransmitStringLn>
     d46:	f6 c0       	rjmp	.+492    	; 0xf34 <Terminal_SET_BreakDown+0x2e2>
			}
			else
			{
				//no number
				TransmitStringLn("FORMAT ERR");
     d48:	8e e0       	ldi	r24, 0x0E	; 14
     d4a:	92 e0       	ldi	r25, 0x02	; 2
     d4c:	0e 94 c3 11 	call	0x2386	; 0x2386 <TransmitStringLn>
     d50:	f1 c0       	rjmp	.+482    	; 0xf34 <Terminal_SET_BreakDown+0x2e2>
			}
			break;
		
		//3. Relays for Leakage
		case _MK16('R','L'):
			if (myMessage[6] == '1' && myMessage[7] == '\n')
     d52:	86 81       	ldd	r24, Z+6	; 0x06
     d54:	81 33       	cpi	r24, 0x31	; 49
     d56:	a9 f4       	brne	.+42     	; 0xd82 <Terminal_SET_BreakDown+0x130>
     d58:	87 81       	ldd	r24, Z+7	; 0x07
     d5a:	8a 30       	cpi	r24, 0x0A	; 10
     d5c:	49 f5       	brne	.+82     	; 0xdb0 <Terminal_SET_BreakDown+0x15e>
			{
				//Switch Relays
				B_Set_Relais_to_Leakage_GS(mySlotNr);
     d5e:	00 2e       	mov	r0, r16
     d60:	00 0c       	add	r0, r0
     d62:	11 0b       	sbc	r17, r17
     d64:	c8 01       	movw	r24, r16
     d66:	8a de       	rcall	.-748    	; 0xa7c <B_Set_Relais_to_Leakage_GS>

				//Answer
				TransmitString("SRL");
     d68:	80 e7       	ldi	r24, 0x70	; 112
     d6a:	92 e0       	ldi	r25, 0x02	; 2
     d6c:	0e 94 c0 11 	call	0x2380	; 0x2380 <TransmitString>
				TransmitInt(mySlotNr, 1);
     d70:	61 e0       	ldi	r22, 0x01	; 1
     d72:	c8 01       	movw	r24, r16
     d74:	0e 94 c6 11 	call	0x238c	; 0x238c <TransmitInt>
				TransmitStringLn("B=1");
     d78:	88 e6       	ldi	r24, 0x68	; 104
     d7a:	92 e0       	ldi	r25, 0x02	; 2
     d7c:	0e 94 c3 11 	call	0x2386	; 0x2386 <TransmitStringLn>
     d80:	d9 c0       	rjmp	.+434    	; 0xf34 <Terminal_SET_BreakDown+0x2e2>
			}
			else if (myMessage[6] == '0' && myMessage[7] == '\n')
     d82:	80 33       	cpi	r24, 0x30	; 48
     d84:	a9 f4       	brne	.+42     	; 0xdb0 <Terminal_SET_BreakDown+0x15e>
     d86:	87 81       	ldd	r24, Z+7	; 0x07
     d88:	8a 30       	cpi	r24, 0x0A	; 10
			{
				//Switch Relays off
				B_Set_Relais_all_off(mySlotNr);
     d8a:	91 f4       	brne	.+36     	; 0xdb0 <Terminal_SET_BreakDown+0x15e>
     d8c:	00 2e       	mov	r0, r16
     d8e:	00 0c       	add	r0, r0
     d90:	11 0b       	sbc	r17, r17
     d92:	c8 01       	movw	r24, r16

				//Answer
				TransmitString("SRL");
     d94:	c1 de       	rcall	.-638    	; 0xb18 <B_Set_Relais_all_off>
     d96:	80 e7       	ldi	r24, 0x70	; 112
     d98:	92 e0       	ldi	r25, 0x02	; 2
     d9a:	0e 94 c0 11 	call	0x2380	; 0x2380 <TransmitString>
				TransmitInt(mySlotNr, 1);
     d9e:	61 e0       	ldi	r22, 0x01	; 1
     da0:	c8 01       	movw	r24, r16
     da2:	0e 94 c6 11 	call	0x238c	; 0x238c <TransmitInt>
				TransmitStringLn("B=0");
     da6:	8c e6       	ldi	r24, 0x6C	; 108
     da8:	92 e0       	ldi	r25, 0x02	; 2
     daa:	0e 94 c3 11 	call	0x2386	; 0x2386 <TransmitStringLn>
			}
			else
			{
				//no number
				TransmitStringLn("FORMAT ERR");
     dae:	c2 c0       	rjmp	.+388    	; 0xf34 <Terminal_SET_BreakDown+0x2e2>
     db0:	8e e0       	ldi	r24, 0x0E	; 14
     db2:	92 e0       	ldi	r25, 0x02	; 2
     db4:	0e 94 c3 11 	call	0x2386	; 0x2386 <TransmitStringLn>
			}
			break;
		
		//4. Relays for Characteristic Curve
		case _MK16('R','C'):
			if (myMessage[6] == '1' && myMessage[7] == '\n')
     db8:	bd c0       	rjmp	.+378    	; 0xf34 <Terminal_SET_BreakDown+0x2e2>
     dba:	86 81       	ldd	r24, Z+6	; 0x06
     dbc:	81 33       	cpi	r24, 0x31	; 49
     dbe:	a9 f4       	brne	.+42     	; 0xdea <Terminal_SET_BreakDown+0x198>
     dc0:	87 81       	ldd	r24, Z+7	; 0x07
			{
				//Switch Relays
				B_Set_Relais_to_Characteristic_Curve(mySlotNr);
     dc2:	8a 30       	cpi	r24, 0x0A	; 10
     dc4:	49 f5       	brne	.+82     	; 0xe18 <Terminal_SET_BreakDown+0x1c6>
     dc6:	00 2e       	mov	r0, r16
     dc8:	00 0c       	add	r0, r0
     dca:	11 0b       	sbc	r17, r17
     dcc:	c8 01       	movw	r24, r16

				//Answer
				TransmitString("SRC");
     dce:	70 de       	rcall	.-800    	; 0xab0 <B_Set_Relais_to_Characteristic_Curve>
     dd0:	84 e7       	ldi	r24, 0x74	; 116
     dd2:	92 e0       	ldi	r25, 0x02	; 2
     dd4:	0e 94 c0 11 	call	0x2380	; 0x2380 <TransmitString>
				TransmitInt(mySlotNr, 1);
     dd8:	61 e0       	ldi	r22, 0x01	; 1
     dda:	c8 01       	movw	r24, r16
     ddc:	0e 94 c6 11 	call	0x238c	; 0x238c <TransmitInt>
				TransmitStringLn("B=1");
     de0:	88 e6       	ldi	r24, 0x68	; 104
     de2:	92 e0       	ldi	r25, 0x02	; 2
     de4:	0e 94 c3 11 	call	0x2386	; 0x2386 <TransmitStringLn>
			}
			else if (myMessage[6] == '0' && myMessage[7] == '\n')
     de8:	a5 c0       	rjmp	.+330    	; 0xf34 <Terminal_SET_BreakDown+0x2e2>
     dea:	80 33       	cpi	r24, 0x30	; 48
     dec:	a9 f4       	brne	.+42     	; 0xe18 <Terminal_SET_BreakDown+0x1c6>
     dee:	87 81       	ldd	r24, Z+7	; 0x07
			{
				//Switch Relays off
				B_Set_Relais_all_off(mySlotNr);
     df0:	8a 30       	cpi	r24, 0x0A	; 10
     df2:	91 f4       	brne	.+36     	; 0xe18 <Terminal_SET_BreakDown+0x1c6>
     df4:	00 2e       	mov	r0, r16
     df6:	00 0c       	add	r0, r0
     df8:	11 0b       	sbc	r17, r17
     dfa:	c8 01       	movw	r24, r16

				//Answer
				TransmitString("SRC");
     dfc:	8d de       	rcall	.-742    	; 0xb18 <B_Set_Relais_all_off>
     dfe:	84 e7       	ldi	r24, 0x74	; 116
     e00:	92 e0       	ldi	r25, 0x02	; 2
     e02:	0e 94 c0 11 	call	0x2380	; 0x2380 <TransmitString>
				TransmitInt(mySlotNr, 1);
     e06:	61 e0       	ldi	r22, 0x01	; 1
     e08:	c8 01       	movw	r24, r16
     e0a:	0e 94 c6 11 	call	0x238c	; 0x238c <TransmitInt>
				TransmitStringLn("B=0");
     e0e:	8c e6       	ldi	r24, 0x6C	; 108
     e10:	92 e0       	ldi	r25, 0x02	; 2
     e12:	0e 94 c3 11 	call	0x2386	; 0x2386 <TransmitStringLn>
			}
			else
			{
				//no number
				TransmitStringLn("FORMAT ERR");
     e16:	8e c0       	rjmp	.+284    	; 0xf34 <Terminal_SET_BreakDown+0x2e2>
     e18:	8e e0       	ldi	r24, 0x0E	; 14
     e1a:	92 e0       	ldi	r25, 0x02	; 2
     e1c:	0e 94 c3 11 	call	0x2386	; 0x2386 <TransmitStringLn>
			}
			break;
		
		//5. Relays for BodyDiode
		case _MK16('R','D'):
			if (myMessage[6] == '1' && myMessage[7] == '\n')
     e20:	89 c0       	rjmp	.+274    	; 0xf34 <Terminal_SET_BreakDown+0x2e2>
     e22:	86 81       	ldd	r24, Z+6	; 0x06
     e24:	81 33       	cpi	r24, 0x31	; 49
     e26:	a9 f4       	brne	.+42     	; 0xe52 <Terminal_SET_BreakDown+0x200>
			{
				//Switch Relays
				B_Set_Relais_to_BodyDiode_Curve(mySlotNr);
     e28:	87 81       	ldd	r24, Z+7	; 0x07
     e2a:	8a 30       	cpi	r24, 0x0A	; 10
     e2c:	49 f5       	brne	.+82     	; 0xe80 <Terminal_SET_BreakDown+0x22e>
     e2e:	00 2e       	mov	r0, r16
     e30:	00 0c       	add	r0, r0
     e32:	11 0b       	sbc	r17, r17

				//Answer
				TransmitString("SRD");
     e34:	c8 01       	movw	r24, r16
     e36:	56 de       	rcall	.-852    	; 0xae4 <B_Set_Relais_to_BodyDiode_Curve>
     e38:	88 e7       	ldi	r24, 0x78	; 120
     e3a:	92 e0       	ldi	r25, 0x02	; 2
				TransmitInt(mySlotNr, 1);
     e3c:	0e 94 c0 11 	call	0x2380	; 0x2380 <TransmitString>
     e40:	61 e0       	ldi	r22, 0x01	; 1
     e42:	c8 01       	movw	r24, r16
				TransmitStringLn("B=1");
     e44:	0e 94 c6 11 	call	0x238c	; 0x238c <TransmitInt>
     e48:	88 e6       	ldi	r24, 0x68	; 104
     e4a:	92 e0       	ldi	r25, 0x02	; 2
     e4c:	0e 94 c3 11 	call	0x2386	; 0x2386 <TransmitStringLn>
			}
			else if (myMessage[6] == '0' && myMessage[7] == '\n')
     e50:	71 c0       	rjmp	.+226    	; 0xf34 <Terminal_SET_BreakDown+0x2e2>
     e52:	80 33       	cpi	r24, 0x30	; 48
     e54:	a9 f4       	brne	.+42     	; 0xe80 <Terminal_SET_BreakDown+0x22e>
			{
				//Switch Relays off
				B_Set_Relais_all_off(mySlotNr);
     e56:	87 81       	ldd	r24, Z+7	; 0x07
     e58:	8a 30       	cpi	r24, 0x0A	; 10
     e5a:	91 f4       	brne	.+36     	; 0xe80 <Terminal_SET_BreakDown+0x22e>
     e5c:	00 2e       	mov	r0, r16
     e5e:	00 0c       	add	r0, r0
     e60:	11 0b       	sbc	r17, r17

				//Answer
				TransmitString("SRD");
     e62:	c8 01       	movw	r24, r16
     e64:	59 de       	rcall	.-846    	; 0xb18 <B_Set_Relais_all_off>
     e66:	88 e7       	ldi	r24, 0x78	; 120
     e68:	92 e0       	ldi	r25, 0x02	; 2
				TransmitInt(mySlotNr, 1);
     e6a:	0e 94 c0 11 	call	0x2380	; 0x2380 <TransmitString>
     e6e:	61 e0       	ldi	r22, 0x01	; 1
     e70:	c8 01       	movw	r24, r16
				TransmitStringLn("B=0");
     e72:	0e 94 c6 11 	call	0x238c	; 0x238c <TransmitInt>
     e76:	8c e6       	ldi	r24, 0x6C	; 108
     e78:	92 e0       	ldi	r25, 0x02	; 2
     e7a:	0e 94 c3 11 	call	0x2386	; 0x2386 <TransmitStringLn>
			}
			else
			{
				//no number
				TransmitStringLn("FORMAT ERR");
     e7e:	5a c0       	rjmp	.+180    	; 0xf34 <Terminal_SET_BreakDown+0x2e2>
     e80:	8e e0       	ldi	r24, 0x0E	; 14
     e82:	92 e0       	ldi	r25, 0x02	; 2
     e84:	0e 94 c3 11 	call	0x2386	; 0x2386 <TransmitStringLn>
			}
			break;
			
		//6. Set V_GS voltage
		case _MK16('V', 'G'):
			if (!ParseIntLn(&myMessage[6],5,&temp16))
     e88:	55 c0       	rjmp	.+170    	; 0xf34 <Terminal_SET_BreakDown+0x2e2>
     e8a:	ae 01       	movw	r20, r28
     e8c:	4f 5f       	subi	r20, 0xFF	; 255
     e8e:	5f 4f       	sbci	r21, 0xFF	; 255
     e90:	65 e0       	ldi	r22, 0x05	; 5
     e92:	cf 01       	movw	r24, r30
     e94:	06 96       	adiw	r24, 0x06	; 6
     e96:	0e 94 8d 10 	call	0x211a	; 0x211a <ParseIntLn>
			{
				//no number
				TransmitStringLn("FORMAT ERR");
     e9a:	81 11       	cpse	r24, r1
     e9c:	05 c0       	rjmp	.+10     	; 0xea8 <Terminal_SET_BreakDown+0x256>
     e9e:	8e e0       	ldi	r24, 0x0E	; 14
     ea0:	92 e0       	ldi	r25, 0x02	; 2
     ea2:	0e 94 c3 11 	call	0x2386	; 0x2386 <TransmitStringLn>
			}
			else if (temp16 > 20000 || temp16 < -20000)
     ea6:	46 c0       	rjmp	.+140    	; 0xf34 <Terminal_SET_BreakDown+0x2e2>
     ea8:	89 81       	ldd	r24, Y+1	; 0x01
     eaa:	9a 81       	ldd	r25, Y+2	; 0x02
     eac:	80 5e       	subi	r24, 0xE0	; 224
     eae:	91 4b       	sbci	r25, 0xB1	; 177
     eb0:	81 34       	cpi	r24, 0x41	; 65
			{
				//0 bis 10 V
				TransmitStringLn("NUMBER ERR");
     eb2:	9c 49       	sbci	r25, 0x9C	; 156
     eb4:	28 f0       	brcs	.+10     	; 0xec0 <Terminal_SET_BreakDown+0x26e>
     eb6:	8d e1       	ldi	r24, 0x1D	; 29
     eb8:	92 e0       	ldi	r25, 0x02	; 2
     eba:	0e 94 c3 11 	call	0x2386	; 0x2386 <TransmitStringLn>
			}
			else
			{
				TransmitString("SVG");
     ebe:	3a c0       	rjmp	.+116    	; 0xf34 <Terminal_SET_BreakDown+0x2e2>
     ec0:	8c e7       	ldi	r24, 0x7C	; 124
     ec2:	92 e0       	ldi	r25, 0x02	; 2
				TransmitInt(mySlotNr, 1);
     ec4:	0e 94 c0 11 	call	0x2380	; 0x2380 <TransmitString>
     ec8:	00 2e       	mov	r0, r16
     eca:	00 0c       	add	r0, r0
     ecc:	11 0b       	sbc	r17, r17
     ece:	61 e0       	ldi	r22, 0x01	; 1
     ed0:	c8 01       	movw	r24, r16
				TransmitString("B=");
     ed2:	0e 94 c6 11 	call	0x238c	; 0x238c <TransmitInt>
     ed6:	80 e8       	ldi	r24, 0x80	; 128
     ed8:	92 e0       	ldi	r25, 0x02	; 2
				TransmitFloat(temp16,1, 3);
     eda:	0e 94 c0 11 	call	0x2380	; 0x2380 <TransmitString>
     ede:	43 e0       	ldi	r20, 0x03	; 3
     ee0:	61 e0       	ldi	r22, 0x01	; 1
     ee2:	89 81       	ldd	r24, Y+1	; 0x01
     ee4:	9a 81       	ldd	r25, Y+2	; 0x02
				TransmitStringLn(" V");
     ee6:	0e 94 96 12 	call	0x252c	; 0x252c <TransmitFloat>
     eea:	8d e3       	ldi	r24, 0x3D	; 61
     eec:	92 e0       	ldi	r25, 0x02	; 2

				if (breakDown_V_GS_mV[mySlotNr-1] != temp16)
     eee:	0e 94 c3 11 	call	0x2386	; 0x2386 <TransmitStringLn>
     ef2:	c8 01       	movw	r24, r16
     ef4:	01 97       	sbiw	r24, 0x01	; 1
     ef6:	69 81       	ldd	r22, Y+1	; 0x01
     ef8:	7a 81       	ldd	r23, Y+2	; 0x02
     efa:	fc 01       	movw	r30, r24
     efc:	ee 0f       	add	r30, r30
     efe:	ff 1f       	adc	r31, r31
     f00:	ea 5a       	subi	r30, 0xAA	; 170
     f02:	fa 4f       	sbci	r31, 0xFA	; 250
     f04:	20 81       	ld	r18, Z
     f06:	31 81       	ldd	r19, Z+1	; 0x01
     f08:	26 17       	cp	r18, r22
				{
					breakDown_V_GS_mV[mySlotNr-1] = temp16;
     f0a:	37 07       	cpc	r19, r23
     f0c:	99 f0       	breq	.+38     	; 0xf34 <Terminal_SET_BreakDown+0x2e2>
     f0e:	88 0f       	add	r24, r24
     f10:	99 1f       	adc	r25, r25
					eeprom_write_word(&parameter1_eeprom[mySlotNr-1], temp16);
     f12:	7f 01       	movw	r14, r30
     f14:	71 83       	std	Z+1, r23	; 0x01
     f16:	60 83       	st	Z, r22
     f18:	80 5e       	subi	r24, 0xE0	; 224
					BreakDown_Set_V_GS_mV(breakDown_V_GS_mV[mySlotNr-1], mySlotNr);
     f1a:	9f 4f       	sbci	r25, 0xFF	; 255
     f1c:	0e 94 51 1f 	call	0x3ea2	; 0x3ea2 <eeprom_write_word>
     f20:	b8 01       	movw	r22, r16
     f22:	f7 01       	movw	r30, r14
     f24:	80 81       	ld	r24, Z
     f26:	91 81       	ldd	r25, Z+1	; 0x01
				}
			}
			break;
			
		default:
			TransmitStringLn("COMMAND ERR");
     f28:	08 de       	rcall	.-1008   	; 0xb3a <BreakDown_Set_V_GS_mV>
     f2a:	04 c0       	rjmp	.+8      	; 0xf34 <Terminal_SET_BreakDown+0x2e2>
     f2c:	84 e4       	ldi	r24, 0x44	; 68
     f2e:	92 e0       	ldi	r25, 0x02	; 2
			break;
		
	}
}
     f30:	0e 94 c3 11 	call	0x2386	; 0x2386 <TransmitStringLn>
     f34:	0f 90       	pop	r0
     f36:	0f 90       	pop	r0
     f38:	df 91       	pop	r29
     f3a:	cf 91       	pop	r28
     f3c:	1f 91       	pop	r17
     f3e:	0f 91       	pop	r16
     f40:	ff 90       	pop	r15
     f42:	ef 90       	pop	r14
     f44:	08 95       	ret

00000f46 <Terminal_GET_BreakDown>:

void Terminal_GET_BreakDown(char *myMessage)
{
     f46:	cf 93       	push	r28
     f48:	df 93       	push	r29
     f4a:	fc 01       	movw	r30, r24
	//myCMD:		2 indicator Chars (Position 1 and 2)
	//mySlotNr:		Slot Number (Position 3)
		
	//Local variables
	uint16_t myCMD = _MK16(myMessage[1],myMessage[2]);
	int8_t mySlotNr = myMessage[3] - '0';
     f4c:	c3 81       	ldd	r28, Z+3	; 0x03
     f4e:	c0 53       	subi	r28, 0x30	; 48
	
	switch(myCMD){
     f50:	22 81       	ldd	r18, Z+2	; 0x02
     f52:	30 e0       	ldi	r19, 0x00	; 0
     f54:	32 2f       	mov	r19, r18
     f56:	22 27       	eor	r18, r18
     f58:	81 81       	ldd	r24, Z+1	; 0x01
     f5a:	28 2b       	or	r18, r24
     f5c:	26 35       	cpi	r18, 0x56	; 86
     f5e:	84 e4       	ldi	r24, 0x44	; 68
     f60:	38 07       	cpc	r19, r24
     f62:	31 f1       	breq	.+76     	; 0xfb0 <Terminal_GET_BreakDown+0x6a>
     f64:	26 35       	cpi	r18, 0x56	; 86
     f66:	87 e4       	ldi	r24, 0x47	; 71
     f68:	38 07       	cpc	r19, r24
     f6a:	29 f0       	breq	.+10     	; 0xf76 <Terminal_GET_BreakDown+0x30>
     f6c:	23 34       	cpi	r18, 0x43	; 67
     f6e:	34 44       	sbci	r19, 0x44	; 68
     f70:	09 f0       	breq	.+2      	; 0xf74 <Terminal_GET_BreakDown+0x2e>
     f72:	50 c0       	rjmp	.+160    	; 0x1014 <Terminal_GET_BreakDown+0xce>
     f74:	36 c0       	rjmp	.+108    	; 0xfe2 <Terminal_GET_BreakDown+0x9c>
							
		//1. Voltage GS (set)
		case _MK16('V','G'):
			TransmitString("GVG");
     f76:	83 e8       	ldi	r24, 0x83	; 131
     f78:	92 e0       	ldi	r25, 0x02	; 2
     f7a:	0e 94 c0 11 	call	0x2380	; 0x2380 <TransmitString>
			TransmitInt(mySlotNr, 1);
     f7e:	0c 2e       	mov	r0, r28
     f80:	00 0c       	add	r0, r0
     f82:	dd 0b       	sbc	r29, r29
     f84:	61 e0       	ldi	r22, 0x01	; 1
     f86:	ce 01       	movw	r24, r28
     f88:	0e 94 c6 11 	call	0x238c	; 0x238c <TransmitInt>
			TransmitString("B=");
     f8c:	80 e8       	ldi	r24, 0x80	; 128
     f8e:	92 e0       	ldi	r25, 0x02	; 2
     f90:	0e 94 c0 11 	call	0x2380	; 0x2380 <TransmitString>
			TransmitInt(breakDown_V_GS_mV[mySlotNr-1], 1);
     f94:	cc 0f       	add	r28, r28
     f96:	dd 1f       	adc	r29, r29
     f98:	cc 5a       	subi	r28, 0xAC	; 172
     f9a:	da 4f       	sbci	r29, 0xFA	; 250
     f9c:	61 e0       	ldi	r22, 0x01	; 1
     f9e:	88 81       	ld	r24, Y
     fa0:	99 81       	ldd	r25, Y+1	; 0x01
     fa2:	0e 94 c6 11 	call	0x238c	; 0x238c <TransmitInt>
			TransmitStringLn(" V");
     fa6:	8d e3       	ldi	r24, 0x3D	; 61
     fa8:	92 e0       	ldi	r25, 0x02	; 2
     faa:	0e 94 c3 11 	call	0x2386	; 0x2386 <TransmitStringLn>
			break;
     fae:	36 c0       	rjmp	.+108    	; 0x101c <Terminal_GET_BreakDown+0xd6>
			
		//2. Voltage DS (measured)
		case _MK16('V','D'):
			TransmitString("GVD");
     fb0:	87 e8       	ldi	r24, 0x87	; 135
     fb2:	92 e0       	ldi	r25, 0x02	; 2
     fb4:	0e 94 c0 11 	call	0x2380	; 0x2380 <TransmitString>
			TransmitInt(mySlotNr, 1);
     fb8:	0c 2e       	mov	r0, r28
     fba:	00 0c       	add	r0, r0
     fbc:	dd 0b       	sbc	r29, r29
     fbe:	61 e0       	ldi	r22, 0x01	; 1
     fc0:	ce 01       	movw	r24, r28
     fc2:	0e 94 c6 11 	call	0x238c	; 0x238c <TransmitInt>
			TransmitString("B=");
     fc6:	80 e8       	ldi	r24, 0x80	; 128
     fc8:	92 e0       	ldi	r25, 0x02	; 2
     fca:	0e 94 c0 11 	call	0x2380	; 0x2380 <TransmitString>
			TransmitInt(B_Get_V_DS_in_mV(mySlotNr), 1);
     fce:	ce 01       	movw	r24, r28
     fd0:	2c de       	rcall	.-936    	; 0xc2a <B_Get_V_DS_in_mV>
     fd2:	61 e0       	ldi	r22, 0x01	; 1
     fd4:	0e 94 c6 11 	call	0x238c	; 0x238c <TransmitInt>
			TransmitStringLn(" mV");
     fd8:	80 e6       	ldi	r24, 0x60	; 96
     fda:	92 e0       	ldi	r25, 0x02	; 2
     fdc:	0e 94 c3 11 	call	0x2386	; 0x2386 <TransmitStringLn>
			break;			
     fe0:	1d c0       	rjmp	.+58     	; 0x101c <Terminal_GET_BreakDown+0xd6>

		//3. Current DS (measured)
		case _MK16('C','D'):
		TransmitString("GCD");
     fe2:	8b e8       	ldi	r24, 0x8B	; 139
     fe4:	92 e0       	ldi	r25, 0x02	; 2
     fe6:	0e 94 c0 11 	call	0x2380	; 0x2380 <TransmitString>
		TransmitInt(mySlotNr, 1);
     fea:	0c 2e       	mov	r0, r28
     fec:	00 0c       	add	r0, r0
     fee:	dd 0b       	sbc	r29, r29
     ff0:	61 e0       	ldi	r22, 0x01	; 1
     ff2:	ce 01       	movw	r24, r28
     ff4:	0e 94 c6 11 	call	0x238c	; 0x238c <TransmitInt>
		TransmitString("B=");
     ff8:	80 e8       	ldi	r24, 0x80	; 128
     ffa:	92 e0       	ldi	r25, 0x02	; 2
     ffc:	0e 94 c0 11 	call	0x2380	; 0x2380 <TransmitString>
		TransmitInt(B_Get_I_DS_in_mA(mySlotNr), 1);
    1000:	ce 01       	movw	r24, r28
    1002:	1d de       	rcall	.-966    	; 0xc3e <B_Get_I_DS_in_mA>
    1004:	61 e0       	ldi	r22, 0x01	; 1
    1006:	0e 94 c6 11 	call	0x238c	; 0x238c <TransmitInt>
		TransmitStringLn(" mA");
    100a:	8f e8       	ldi	r24, 0x8F	; 143
    100c:	92 e0       	ldi	r25, 0x02	; 2
    100e:	0e 94 c3 11 	call	0x2386	; 0x2386 <TransmitStringLn>
		break;
												
		//Default --> Fehler
		default:
			TransmitStringLn("COMMAND ERR");
    1012:	04 c0       	rjmp	.+8      	; 0x101c <Terminal_GET_BreakDown+0xd6>
    1014:	84 e4       	ldi	r24, 0x44	; 68
    1016:	92 e0       	ldi	r25, 0x02	; 2
    1018:	0e 94 c3 11 	call	0x2386	; 0x2386 <TransmitStringLn>
			break;							
	}

    101c:	df 91       	pop	r29
    101e:	cf 91       	pop	r28
    1020:	08 95       	ret

00001022 <Slot_Tester_Init>:
/*
 ** Functions
 */

void Slot_Tester_Init(int slot_nr)
{
    1022:	cf 93       	push	r28
    1024:	df 93       	push	r29
	//Set all to 0
	_clear_bit(HP_Port, slot_nr - 1);
    1026:	e2 e0       	ldi	r30, 0x02	; 2
    1028:	f1 e0       	ldi	r31, 0x01	; 1
    102a:	20 81       	ld	r18, Z
    102c:	bc 01       	movw	r22, r24
    102e:	61 50       	subi	r22, 0x01	; 1
    1030:	71 09       	sbc	r23, r1
    1032:	41 e0       	ldi	r20, 0x01	; 1
    1034:	50 e0       	ldi	r21, 0x00	; 0
    1036:	02 c0       	rjmp	.+4      	; 0x103c <Slot_Tester_Init+0x1a>
    1038:	44 0f       	add	r20, r20
    103a:	55 1f       	adc	r21, r21
    103c:	6a 95       	dec	r22
    103e:	e2 f7       	brpl	.-8      	; 0x1038 <Slot_Tester_Init+0x16>
    1040:	c4 2f       	mov	r28, r20
    1042:	c0 95       	com	r28
    1044:	92 2f       	mov	r25, r18
    1046:	9c 23       	and	r25, r28
    1048:	90 83       	st	Z, r25
	_clear_bit(MP_Port, slot_nr - 1);
    104a:	e8 e0       	ldi	r30, 0x08	; 8
    104c:	f1 e0       	ldi	r31, 0x01	; 1
    104e:	90 81       	ld	r25, Z
    1050:	9c 23       	and	r25, r28
    1052:	90 83       	st	Z, r25
	_clear_bit(IO_Port3, slot_nr - 1);
    1054:	92 b1       	in	r25, 0x02	; 2
    1056:	9c 23       	and	r25, r28
    1058:	92 b9       	out	0x02, r25	; 2
	_clear_bit(IO_PORT4, slot_nr - 1);
    105a:	e5 e0       	ldi	r30, 0x05	; 5
    105c:	f1 e0       	ldi	r31, 0x01	; 1
    105e:	90 81       	ld	r25, Z
    1060:	9c 23       	and	r25, r28
    1062:	90 83       	st	Z, r25
	_clear_bit(IO_PORT5, slot_nr - 1);
    1064:	9b b1       	in	r25, 0x0b	; 11
    1066:	9c 23       	and	r25, r28
    1068:	9b b9       	out	0x0b, r25	; 11
	_clear_bit(IO_PORT6, slot_nr - 1);
    106a:	98 b1       	in	r25, 0x08	; 8
    106c:	9c 23       	and	r25, r28
    106e:	98 b9       	out	0x08, r25	; 8
	//Set all as Output
	_set_out(HP_Port, slot_nr - 1);
    1070:	e1 e0       	ldi	r30, 0x01	; 1
    1072:	f1 e0       	ldi	r31, 0x01	; 1
    1074:	90 81       	ld	r25, Z
    1076:	94 2b       	or	r25, r20
    1078:	90 83       	st	Z, r25
	_set_out(MP_Port, slot_nr - 1);
    107a:	e7 e0       	ldi	r30, 0x07	; 7
    107c:	f1 e0       	ldi	r31, 0x01	; 1
    107e:	90 81       	ld	r25, Z
    1080:	94 2b       	or	r25, r20
    1082:	90 83       	st	Z, r25
	_set_out(IO_Port3, slot_nr - 1);
    1084:	91 b1       	in	r25, 0x01	; 1
    1086:	94 2b       	or	r25, r20
    1088:	91 b9       	out	0x01, r25	; 1
	_set_out(IO_PORT4, slot_nr - 1);
    108a:	e4 e0       	ldi	r30, 0x04	; 4
    108c:	f1 e0       	ldi	r31, 0x01	; 1
    108e:	90 81       	ld	r25, Z
    1090:	94 2b       	or	r25, r20
    1092:	90 83       	st	Z, r25
	_set_out(IO_PORT5, slot_nr - 1);
    1094:	9a b1       	in	r25, 0x0a	; 10
    1096:	94 2b       	or	r25, r20
    1098:	9a b9       	out	0x0a, r25	; 10
	_set_out(IO_PORT6, slot_nr - 1);
    109a:	97 b1       	in	r25, 0x07	; 7
    109c:	94 2b       	or	r25, r20
    109e:	97 b9       	out	0x07, r25	; 7
	
	//Register in MCP23S08:
	//CS wieder auf 1, (sonst auf 0) und kurz warten
	_set_bit(IO_PORT6, slot_nr - 1);
    10a0:	98 b1       	in	r25, 0x08	; 8
    10a2:	49 2b       	or	r20, r25
    10a4:	48 b9       	out	0x08, r20	; 8
    10a6:	ef e9       	ldi	r30, 0x9F	; 159
    10a8:	ff e0       	ldi	r31, 0x0F	; 15
    10aa:	31 97       	sbiw	r30, 0x01	; 1
    10ac:	f1 f7       	brne	.-4      	; 0x10aa <Slot_Tester_Init+0x88>
    10ae:	00 c0       	rjmp	.+0      	; 0x10b0 <Slot_Tester_Init+0x8e>
    10b0:	00 00       	nop
	_delay_ms(1);
	//All as Outputs 
	IO_Expander_set_Register(register_IODIR, 0x00, &IO_PORT6, slot_nr-1);
    10b2:	df ef       	ldi	r29, 0xFF	; 255
    10b4:	d8 0f       	add	r29, r24
    10b6:	2d 2f       	mov	r18, r29
    10b8:	48 e2       	ldi	r20, 0x28	; 40
    10ba:	50 e0       	ldi	r21, 0x00	; 0
    10bc:	60 e0       	ldi	r22, 0x00	; 0
    10be:	80 e0       	ldi	r24, 0x00	; 0
    10c0:	e4 d1       	rcall	.+968    	; 0x148a <IO_Expander_set_Register>

	//All to high (LEDs off)
	IO_Expander_set_Register(register_OLAT, 0xFF, &IO_PORT6, slot_nr-1);
    10c2:	2d 2f       	mov	r18, r29
    10c4:	48 e2       	ldi	r20, 0x28	; 40
    10c6:	50 e0       	ldi	r21, 0x00	; 0
    10c8:	6f ef       	ldi	r22, 0xFF	; 255
    10ca:	8a e0       	ldi	r24, 0x0A	; 10
    10cc:	de d1       	rcall	.+956    	; 0x148a <IO_Expander_set_Register>
	//CS wieder auf 0
	_clear_bit(IO_PORT6, slot_nr - 1);
    10ce:	88 b1       	in	r24, 0x08	; 8
    10d0:	c8 23       	and	r28, r24
    10d2:	c8 b9       	out	0x08, r28	; 8
}
    10d4:	df 91       	pop	r29
    10d6:	cf 91       	pop	r28
    10d8:	08 95       	ret

000010da <Slot_Tester_set_7Segment>:
	}
	
}
	
void Slot_Tester_set_7Segment(int slot_nr)
{
    10da:	0f 93       	push	r16
    10dc:	1f 93       	push	r17
    10de:	cf 93       	push	r28
    10e0:	9c 01       	movw	r18, r24
	//CS wieder auf 1, (sonst auf 0) und kurz warten
	_set_bit(IO_PORT6, slot_nr - 1);
    10e2:	88 b1       	in	r24, 0x08	; 8
    10e4:	a9 01       	movw	r20, r18
    10e6:	41 50       	subi	r20, 0x01	; 1
    10e8:	51 09       	sbc	r21, r1
    10ea:	01 e0       	ldi	r16, 0x01	; 1
    10ec:	10 e0       	ldi	r17, 0x00	; 0
    10ee:	02 c0       	rjmp	.+4      	; 0x10f4 <Slot_Tester_set_7Segment+0x1a>
    10f0:	00 0f       	add	r16, r16
    10f2:	11 1f       	adc	r17, r17
    10f4:	4a 95       	dec	r20
    10f6:	e2 f7       	brpl	.-8      	; 0x10f0 <Slot_Tester_set_7Segment+0x16>
    10f8:	80 2b       	or	r24, r16
    10fa:	88 b9       	out	0x08, r24	; 8
    10fc:	8f e9       	ldi	r24, 0x9F	; 159
    10fe:	9f e0       	ldi	r25, 0x0F	; 15
    1100:	01 97       	sbiw	r24, 0x01	; 1
    1102:	f1 f7       	brne	.-4      	; 0x1100 <Slot_Tester_set_7Segment+0x26>
    1104:	00 c0       	rjmp	.+0      	; 0x1106 <Slot_Tester_set_7Segment+0x2c>
    1106:	00 00       	nop
	_delay_ms(1);
	
	//nr. in 7-Segment
	uint8_t value = 0xFF;
	switch (slot_nr)
    1108:	2a 30       	cpi	r18, 0x0A	; 10
    110a:	31 05       	cpc	r19, r1
    110c:	c8 f4       	brcc	.+50     	; 0x1140 <Slot_Tester_set_7Segment+0x66>
    110e:	f9 01       	movw	r30, r18
    1110:	88 27       	eor	r24, r24
    1112:	ee 58       	subi	r30, 0x8E	; 142
    1114:	ff 4f       	sbci	r31, 0xFF	; 255
    1116:	8f 4f       	sbci	r24, 0xFF	; 255
    1118:	0c 94 78 1e 	jmp	0x3cf0	; 0x3cf0 <__tablejump2__>
	{
		case 0:
			value = Segment_0;
			break;
		case 1:
			value = Segment_1;
    111c:	6f ec       	ldi	r22, 0xCF	; 207
    111e:	13 c0       	rjmp	.+38     	; 0x1146 <Slot_Tester_set_7Segment+0x6c>
			break;
		case 2:
			value = Segment_2;
    1120:	65 e2       	ldi	r22, 0x25	; 37
			break;
    1122:	11 c0       	rjmp	.+34     	; 0x1146 <Slot_Tester_set_7Segment+0x6c>
		case 3:
			value = Segment_3;
    1124:	65 e8       	ldi	r22, 0x85	; 133
			break;
    1126:	0f c0       	rjmp	.+30     	; 0x1146 <Slot_Tester_set_7Segment+0x6c>
		case 4:
			value = Segment_4;
    1128:	69 ec       	ldi	r22, 0xC9	; 201
			break;
    112a:	0d c0       	rjmp	.+26     	; 0x1146 <Slot_Tester_set_7Segment+0x6c>
		case 5:
			value = Segment_5;
    112c:	61 e9       	ldi	r22, 0x91	; 145
			break;
    112e:	0b c0       	rjmp	.+22     	; 0x1146 <Slot_Tester_set_7Segment+0x6c>
		case 6:
			value = Segment_6;
    1130:	61 e1       	ldi	r22, 0x11	; 17
			break;
    1132:	09 c0       	rjmp	.+18     	; 0x1146 <Slot_Tester_set_7Segment+0x6c>
		case 7:
		value = Segment_7;
    1134:	67 ec       	ldi	r22, 0xC7	; 199
		break;
    1136:	07 c0       	rjmp	.+14     	; 0x1146 <Slot_Tester_set_7Segment+0x6c>
		case 8:
			value = Segment_8;
    1138:	61 e0       	ldi	r22, 0x01	; 1
			break;
    113a:	05 c0       	rjmp	.+10     	; 0x1146 <Slot_Tester_set_7Segment+0x6c>
		case 9:
			value = Segment_9;
    113c:	61 e8       	ldi	r22, 0x81	; 129
			break;
    113e:	03 c0       	rjmp	.+6      	; 0x1146 <Slot_Tester_set_7Segment+0x6c>
		default:
			value = 0xFF;
    1140:	6f ef       	ldi	r22, 0xFF	; 255
			break;		
    1142:	01 c0       	rjmp	.+2      	; 0x1146 <Slot_Tester_set_7Segment+0x6c>
	//nr. in 7-Segment
	uint8_t value = 0xFF;
	switch (slot_nr)
	{
		case 0:
			value = Segment_0;
    1144:	63 e0       	ldi	r22, 0x03	; 3
			value = 0xFF;
			break;		
	}
		
	//Switch LEDs according to number (0 is ON)
	IO_Expander_set_Register(register_OLAT, value, &IO_PORT6, slot_nr - 1);
    1146:	cf ef       	ldi	r28, 0xFF	; 255
    1148:	c2 0f       	add	r28, r18
    114a:	2c 2f       	mov	r18, r28
    114c:	48 e2       	ldi	r20, 0x28	; 40
    114e:	50 e0       	ldi	r21, 0x00	; 0
    1150:	8a e0       	ldi	r24, 0x0A	; 10
    1152:	9b d1       	rcall	.+822    	; 0x148a <IO_Expander_set_Register>
    1154:	8f e9       	ldi	r24, 0x9F	; 159
    1156:	9f e0       	ldi	r25, 0x0F	; 15
    1158:	01 97       	sbiw	r24, 0x01	; 1
    115a:	f1 f7       	brne	.-4      	; 0x1158 <Slot_Tester_set_7Segment+0x7e>
    115c:	00 c0       	rjmp	.+0      	; 0x115e <Slot_Tester_set_7Segment+0x84>
    115e:	00 00       	nop
	
	//CS wieder auf 0
	_delay_ms(1);
	IO_Expander_set_Register(register_IODIR, 0x00, &IO_PORT6, slot_nr - 1);
    1160:	2c 2f       	mov	r18, r28
    1162:	48 e2       	ldi	r20, 0x28	; 40
    1164:	50 e0       	ldi	r21, 0x00	; 0
    1166:	60 e0       	ldi	r22, 0x00	; 0
    1168:	80 e0       	ldi	r24, 0x00	; 0
    116a:	8f d1       	rcall	.+798    	; 0x148a <IO_Expander_set_Register>
    116c:	8f e9       	ldi	r24, 0x9F	; 159
    116e:	9f e0       	ldi	r25, 0x0F	; 15
    1170:	01 97       	sbiw	r24, 0x01	; 1
    1172:	f1 f7       	brne	.-4      	; 0x1170 <Slot_Tester_set_7Segment+0x96>
    1174:	00 c0       	rjmp	.+0      	; 0x1176 <Slot_Tester_set_7Segment+0x9c>
    1176:	00 00       	nop
	_delay_ms(1);
	_clear_bit(IO_PORT6, slot_nr - 1);
    1178:	88 b1       	in	r24, 0x08	; 8
    117a:	00 95       	com	r16
    117c:	08 23       	and	r16, r24
    117e:	08 b9       	out	0x08, r16	; 8
	
}
    1180:	cf 91       	pop	r28
    1182:	1f 91       	pop	r17
    1184:	0f 91       	pop	r16
    1186:	08 95       	ret

00001188 <Slot_Tester_get_7Segment>:

int Slot_Tester_get_7Segment(int slot_nr)
{
    1188:	cf 93       	push	r28
    118a:	df 93       	push	r29
		//CS wieder auf 1, (sonst auf 0) und kurz warten
		_set_bit(IO_PORT6, slot_nr - 1);
    118c:	28 b1       	in	r18, 0x08	; 8
    118e:	ac 01       	movw	r20, r24
    1190:	41 50       	subi	r20, 0x01	; 1
    1192:	51 09       	sbc	r21, r1
    1194:	c1 e0       	ldi	r28, 0x01	; 1
    1196:	d0 e0       	ldi	r29, 0x00	; 0
    1198:	02 c0       	rjmp	.+4      	; 0x119e <Slot_Tester_get_7Segment+0x16>
    119a:	cc 0f       	add	r28, r28
    119c:	dd 1f       	adc	r29, r29
    119e:	4a 95       	dec	r20
    11a0:	e2 f7       	brpl	.-8      	; 0x119a <Slot_Tester_get_7Segment+0x12>
    11a2:	9c 2f       	mov	r25, r28
    11a4:	92 2b       	or	r25, r18
    11a6:	98 b9       	out	0x08, r25	; 8
    11a8:	ef e9       	ldi	r30, 0x9F	; 159
    11aa:	ff e0       	ldi	r31, 0x0F	; 15
    11ac:	31 97       	sbiw	r30, 0x01	; 1
    11ae:	f1 f7       	brne	.-4      	; 0x11ac <Slot_Tester_get_7Segment+0x24>
    11b0:	00 c0       	rjmp	.+0      	; 0x11b2 <Slot_Tester_get_7Segment+0x2a>
    11b2:	00 00       	nop
		_delay_ms(1);

		uint8_t local = IO_Expander_get_Register(register_OLAT, &IO_PORT6, slot_nr - 1);
    11b4:	4f ef       	ldi	r20, 0xFF	; 255
    11b6:	48 0f       	add	r20, r24
    11b8:	68 e2       	ldi	r22, 0x28	; 40
    11ba:	70 e0       	ldi	r23, 0x00	; 0
    11bc:	8a e0       	ldi	r24, 0x0A	; 10
    11be:	87 d1       	rcall	.+782    	; 0x14ce <IO_Expander_get_Register>
		int value = -1;
		
		switch (local)
    11c0:	81 38       	cpi	r24, 0x81	; 129
    11c2:	81 f1       	breq	.+96     	; 0x1224 <Slot_Tester_get_7Segment+0x9c>
    11c4:	58 f4       	brcc	.+22     	; 0x11dc <Slot_Tester_get_7Segment+0x54>
    11c6:	83 30       	cpi	r24, 0x03	; 3
    11c8:	99 f1       	breq	.+102    	; 0x1230 <Slot_Tester_get_7Segment+0xa8>
    11ca:	18 f4       	brcc	.+6      	; 0x11d2 <Slot_Tester_get_7Segment+0x4a>
    11cc:	81 30       	cpi	r24, 0x01	; 1
    11ce:	39 f1       	breq	.+78     	; 0x121e <Slot_Tester_get_7Segment+0x96>
    11d0:	2c c0       	rjmp	.+88     	; 0x122a <Slot_Tester_get_7Segment+0xa2>
    11d2:	81 31       	cpi	r24, 0x11	; 17
    11d4:	f1 f0       	breq	.+60     	; 0x1212 <Slot_Tester_get_7Segment+0x8a>
    11d6:	85 32       	cpi	r24, 0x25	; 37
    11d8:	81 f0       	breq	.+32     	; 0x11fa <Slot_Tester_get_7Segment+0x72>
    11da:	27 c0       	rjmp	.+78     	; 0x122a <Slot_Tester_get_7Segment+0xa2>
    11dc:	87 3c       	cpi	r24, 0xC7	; 199
    11de:	e1 f0       	breq	.+56     	; 0x1218 <Slot_Tester_get_7Segment+0x90>
    11e0:	28 f4       	brcc	.+10     	; 0x11ec <Slot_Tester_get_7Segment+0x64>
    11e2:	85 38       	cpi	r24, 0x85	; 133
    11e4:	69 f0       	breq	.+26     	; 0x1200 <Slot_Tester_get_7Segment+0x78>
    11e6:	81 39       	cpi	r24, 0x91	; 145
    11e8:	89 f0       	breq	.+34     	; 0x120c <Slot_Tester_get_7Segment+0x84>
    11ea:	1f c0       	rjmp	.+62     	; 0x122a <Slot_Tester_get_7Segment+0xa2>
    11ec:	89 3c       	cpi	r24, 0xC9	; 201
    11ee:	59 f0       	breq	.+22     	; 0x1206 <Slot_Tester_get_7Segment+0x7e>
    11f0:	8f 3c       	cpi	r24, 0xCF	; 207
    11f2:	d9 f4       	brne	.+54     	; 0x122a <Slot_Tester_get_7Segment+0xa2>
		{
			case Segment_0:
				value = 0;
				break;
			case Segment_1:
				value = 1;
    11f4:	21 e0       	ldi	r18, 0x01	; 1
    11f6:	30 e0       	ldi	r19, 0x00	; 0
    11f8:	1d c0       	rjmp	.+58     	; 0x1234 <Slot_Tester_get_7Segment+0xac>
				break;
			case Segment_2:
				value = 2;
    11fa:	22 e0       	ldi	r18, 0x02	; 2
    11fc:	30 e0       	ldi	r19, 0x00	; 0
				break;
    11fe:	1a c0       	rjmp	.+52     	; 0x1234 <Slot_Tester_get_7Segment+0xac>
			case Segment_3:
				value = 3;
    1200:	23 e0       	ldi	r18, 0x03	; 3
    1202:	30 e0       	ldi	r19, 0x00	; 0
				break;
    1204:	17 c0       	rjmp	.+46     	; 0x1234 <Slot_Tester_get_7Segment+0xac>
			case Segment_4:
				value = 4;
    1206:	24 e0       	ldi	r18, 0x04	; 4
    1208:	30 e0       	ldi	r19, 0x00	; 0
				break;
    120a:	14 c0       	rjmp	.+40     	; 0x1234 <Slot_Tester_get_7Segment+0xac>
			case Segment_5:
				value = 5;
    120c:	25 e0       	ldi	r18, 0x05	; 5
    120e:	30 e0       	ldi	r19, 0x00	; 0
				break;
    1210:	11 c0       	rjmp	.+34     	; 0x1234 <Slot_Tester_get_7Segment+0xac>
			case Segment_6:
				value = 6;
    1212:	26 e0       	ldi	r18, 0x06	; 6
    1214:	30 e0       	ldi	r19, 0x00	; 0
				break;
    1216:	0e c0       	rjmp	.+28     	; 0x1234 <Slot_Tester_get_7Segment+0xac>
			case Segment_7:
			value = 7;
    1218:	27 e0       	ldi	r18, 0x07	; 7
    121a:	30 e0       	ldi	r19, 0x00	; 0
			break;
    121c:	0b c0       	rjmp	.+22     	; 0x1234 <Slot_Tester_get_7Segment+0xac>
			case Segment_8:
				value = 8;
    121e:	28 e0       	ldi	r18, 0x08	; 8
    1220:	30 e0       	ldi	r19, 0x00	; 0
				break;
    1222:	08 c0       	rjmp	.+16     	; 0x1234 <Slot_Tester_get_7Segment+0xac>
			case Segment_9:
				value = 9;
    1224:	29 e0       	ldi	r18, 0x09	; 9
    1226:	30 e0       	ldi	r19, 0x00	; 0
				break;
    1228:	05 c0       	rjmp	.+10     	; 0x1234 <Slot_Tester_get_7Segment+0xac>
			default:
				value = -1;
    122a:	2f ef       	ldi	r18, 0xFF	; 255
    122c:	3f ef       	ldi	r19, 0xFF	; 255
				break;		
    122e:	02 c0       	rjmp	.+4      	; 0x1234 <Slot_Tester_get_7Segment+0xac>
		int value = -1;
		
		switch (local)
		{
			case Segment_0:
				value = 0;
    1230:	20 e0       	ldi	r18, 0x00	; 0
    1232:	30 e0       	ldi	r19, 0x00	; 0
    1234:	8f e9       	ldi	r24, 0x9F	; 159
    1236:	9f e0       	ldi	r25, 0x0F	; 15
    1238:	01 97       	sbiw	r24, 0x01	; 1
    123a:	f1 f7       	brne	.-4      	; 0x1238 <Slot_Tester_get_7Segment+0xb0>
    123c:	00 c0       	rjmp	.+0      	; 0x123e <Slot_Tester_get_7Segment+0xb6>
    123e:	00 00       	nop
				break;		
		}
			
		//CS wieder auf 0
		_delay_ms(1);
		_clear_bit(IO_PORT6, slot_nr - 1);
    1240:	98 b1       	in	r25, 0x08	; 8
    1242:	c0 95       	com	r28
    1244:	c9 23       	and	r28, r25
    1246:	c8 b9       	out	0x08, r28	; 8
		
		return value;	
}
    1248:	c9 01       	movw	r24, r18
    124a:	df 91       	pop	r29
    124c:	cf 91       	pop	r28
    124e:	08 95       	ret

00001250 <Slot_Tester_IO_Lauflicht>:
	
void Slot_Tester_IO_Lauflicht(int slot_nr)
{
	//Alle Ouptup LEDs werden nacheinander angesporchen
	//Um zu verhindern das man in Watchdog läuft wird der Counter jedesmal auf 0 gesetzt	
	_set_bit(HP_Port, slot_nr - 1);
    1250:	e2 e0       	ldi	r30, 0x02	; 2
    1252:	f1 e0       	ldi	r31, 0x01	; 1
    1254:	20 81       	ld	r18, Z
    1256:	ac 01       	movw	r20, r24
    1258:	41 50       	subi	r20, 0x01	; 1
    125a:	51 09       	sbc	r21, r1
    125c:	81 e0       	ldi	r24, 0x01	; 1
    125e:	90 e0       	ldi	r25, 0x00	; 0
    1260:	02 c0       	rjmp	.+4      	; 0x1266 <Slot_Tester_IO_Lauflicht+0x16>
    1262:	88 0f       	add	r24, r24
    1264:	99 1f       	adc	r25, r25
    1266:	4a 95       	dec	r20
    1268:	e2 f7       	brpl	.-8      	; 0x1262 <Slot_Tester_IO_Lauflicht+0x12>
    126a:	28 2b       	or	r18, r24
    126c:	20 83       	st	Z, r18
    126e:	2f ef       	ldi	r18, 0xFF	; 255
    1270:	39 e6       	ldi	r19, 0x69	; 105
    1272:	48 e1       	ldi	r20, 0x18	; 24
    1274:	21 50       	subi	r18, 0x01	; 1
    1276:	30 40       	sbci	r19, 0x00	; 0
    1278:	40 40       	sbci	r20, 0x00	; 0
    127a:	e1 f7       	brne	.-8      	; 0x1274 <Slot_Tester_IO_Lauflicht+0x24>
    127c:	00 c0       	rjmp	.+0      	; 0x127e <Slot_Tester_IO_Lauflicht+0x2e>
    127e:	00 00       	nop
	_delay_ms(500);
	wdt_reset();	
    1280:	a8 95       	wdr
	_clear_bit(HP_Port, slot_nr - 1);
    1282:	20 81       	ld	r18, Z
    1284:	98 2f       	mov	r25, r24
    1286:	90 95       	com	r25
    1288:	29 23       	and	r18, r25
    128a:	20 83       	st	Z, r18
	_set_bit(MP_Port, slot_nr - 1);
    128c:	e8 e0       	ldi	r30, 0x08	; 8
    128e:	f1 e0       	ldi	r31, 0x01	; 1
    1290:	20 81       	ld	r18, Z
    1292:	28 2b       	or	r18, r24
    1294:	20 83       	st	Z, r18
    1296:	2f ef       	ldi	r18, 0xFF	; 255
    1298:	39 e6       	ldi	r19, 0x69	; 105
    129a:	48 e1       	ldi	r20, 0x18	; 24
    129c:	21 50       	subi	r18, 0x01	; 1
    129e:	30 40       	sbci	r19, 0x00	; 0
    12a0:	40 40       	sbci	r20, 0x00	; 0
    12a2:	e1 f7       	brne	.-8      	; 0x129c <Slot_Tester_IO_Lauflicht+0x4c>
    12a4:	00 c0       	rjmp	.+0      	; 0x12a6 <Slot_Tester_IO_Lauflicht+0x56>
    12a6:	00 00       	nop
	_delay_ms(500);	
	wdt_reset();
    12a8:	a8 95       	wdr
	_set_bit(IO_Port3, slot_nr - 1);
    12aa:	22 b1       	in	r18, 0x02	; 2
    12ac:	28 2b       	or	r18, r24
    12ae:	22 b9       	out	0x02, r18	; 2
	_clear_bit(MP_Port, slot_nr - 1);
    12b0:	20 81       	ld	r18, Z
    12b2:	29 23       	and	r18, r25
    12b4:	20 83       	st	Z, r18
    12b6:	2f ef       	ldi	r18, 0xFF	; 255
    12b8:	39 e6       	ldi	r19, 0x69	; 105
    12ba:	48 e1       	ldi	r20, 0x18	; 24
    12bc:	21 50       	subi	r18, 0x01	; 1
    12be:	30 40       	sbci	r19, 0x00	; 0
    12c0:	40 40       	sbci	r20, 0x00	; 0
    12c2:	e1 f7       	brne	.-8      	; 0x12bc <Slot_Tester_IO_Lauflicht+0x6c>
    12c4:	00 c0       	rjmp	.+0      	; 0x12c6 <Slot_Tester_IO_Lauflicht+0x76>
    12c6:	00 00       	nop
	_delay_ms(500);
	wdt_reset();
    12c8:	a8 95       	wdr
	_set_bit(IO_PORT4, slot_nr - 1);
    12ca:	e5 e0       	ldi	r30, 0x05	; 5
    12cc:	f1 e0       	ldi	r31, 0x01	; 1
    12ce:	20 81       	ld	r18, Z
    12d0:	28 2b       	or	r18, r24
    12d2:	20 83       	st	Z, r18
	_clear_bit(IO_Port3, slot_nr - 1);
    12d4:	22 b1       	in	r18, 0x02	; 2
    12d6:	29 23       	and	r18, r25
    12d8:	22 b9       	out	0x02, r18	; 2
    12da:	2f ef       	ldi	r18, 0xFF	; 255
    12dc:	39 e6       	ldi	r19, 0x69	; 105
    12de:	48 e1       	ldi	r20, 0x18	; 24
    12e0:	21 50       	subi	r18, 0x01	; 1
    12e2:	30 40       	sbci	r19, 0x00	; 0
    12e4:	40 40       	sbci	r20, 0x00	; 0
    12e6:	e1 f7       	brne	.-8      	; 0x12e0 <Slot_Tester_IO_Lauflicht+0x90>
    12e8:	00 c0       	rjmp	.+0      	; 0x12ea <Slot_Tester_IO_Lauflicht+0x9a>
    12ea:	00 00       	nop
	_delay_ms(500);
	wdt_reset();
    12ec:	a8 95       	wdr
	_set_bit(IO_PORT5, slot_nr - 1);
    12ee:	2b b1       	in	r18, 0x0b	; 11
    12f0:	28 2b       	or	r18, r24
    12f2:	2b b9       	out	0x0b, r18	; 11
	_clear_bit(IO_PORT4, slot_nr - 1);
    12f4:	20 81       	ld	r18, Z
    12f6:	29 23       	and	r18, r25
    12f8:	20 83       	st	Z, r18
    12fa:	2f ef       	ldi	r18, 0xFF	; 255
    12fc:	39 e6       	ldi	r19, 0x69	; 105
    12fe:	48 e1       	ldi	r20, 0x18	; 24
    1300:	21 50       	subi	r18, 0x01	; 1
    1302:	30 40       	sbci	r19, 0x00	; 0
    1304:	40 40       	sbci	r20, 0x00	; 0
    1306:	e1 f7       	brne	.-8      	; 0x1300 <Slot_Tester_IO_Lauflicht+0xb0>
    1308:	00 c0       	rjmp	.+0      	; 0x130a <Slot_Tester_IO_Lauflicht+0xba>
    130a:	00 00       	nop
	_delay_ms(500);
	wdt_reset();
    130c:	a8 95       	wdr
	_set_bit(IO_PORT6, slot_nr - 1);
    130e:	28 b1       	in	r18, 0x08	; 8
    1310:	82 2b       	or	r24, r18
    1312:	88 b9       	out	0x08, r24	; 8
	_clear_bit(IO_PORT5, slot_nr - 1);
    1314:	8b b1       	in	r24, 0x0b	; 11
    1316:	89 23       	and	r24, r25
    1318:	8b b9       	out	0x0b, r24	; 11
    131a:	8f ef       	ldi	r24, 0xFF	; 255
    131c:	29 e6       	ldi	r18, 0x69	; 105
    131e:	38 e1       	ldi	r19, 0x18	; 24
    1320:	81 50       	subi	r24, 0x01	; 1
    1322:	20 40       	sbci	r18, 0x00	; 0
    1324:	30 40       	sbci	r19, 0x00	; 0
    1326:	e1 f7       	brne	.-8      	; 0x1320 <Slot_Tester_IO_Lauflicht+0xd0>
    1328:	00 c0       	rjmp	.+0      	; 0x132a <Slot_Tester_IO_Lauflicht+0xda>
    132a:	00 00       	nop
	_delay_ms(500);
	wdt_reset();
    132c:	a8 95       	wdr
	_clear_bit(IO_PORT6, slot_nr - 1);	
    132e:	88 b1       	in	r24, 0x08	; 8
    1330:	98 23       	and	r25, r24
    1332:	98 b9       	out	0x08, r25	; 8
    1334:	08 95       	ret

00001336 <Slot_Tester_Gesamtablauf>:
	//CS wieder auf 0
	_clear_bit(IO_PORT6, slot_nr - 1);
}

void Slot_Tester_Gesamtablauf(int slot_nr)
{
    1336:	cf 93       	push	r28
    1338:	df 93       	push	r29
	//Nummer in 7 Segment schreiben (SPI In test)
	Slot_Tester_set_7Segment(slot_nr);
	//Nummer in 7 Segment lesen (SPI Out test)
	if(Slot_Tester_get_7Segment(slot_nr) == slot_nr)
    133a:	ec 01       	movw	r28, r24
    133c:	ce de       	rcall	.-612    	; 0x10da <Slot_Tester_set_7Segment>
    133e:	ce 01       	movw	r24, r28
    1340:	23 df       	rcall	.-442    	; 0x1188 <Slot_Tester_get_7Segment>
	{
		//Lauflicht starten
		Slot_Tester_IO_Lauflicht(slot_nr);
    1342:	c8 17       	cp	r28, r24
    1344:	d9 07       	cpc	r29, r25
    1346:	11 f4       	brne	.+4      	; 0x134c <Slot_Tester_Gesamtablauf+0x16>
	}
	
}
    1348:	ce 01       	movw	r24, r28
    134a:	82 df       	rcall	.-252    	; 0x1250 <Slot_Tester_IO_Lauflicht>
    134c:	df 91       	pop	r29
    134e:	cf 91       	pop	r28
    1350:	08 95       	ret

00001352 <DAC_AD5752_Range_and_PowerUp>:
// DAC Initialisieren
// -------------------------------------------------------------


void DAC_AD5752_Range_and_PowerUp(uint8_t range, uint8_t powerUP, volatile uint8_t *port, uint8_t pin)
{
    1352:	ff 92       	push	r15
    1354:	0f 93       	push	r16
    1356:	1f 93       	push	r17
    1358:	cf 93       	push	r28
    135a:	df 93       	push	r29
    135c:	d8 2f       	mov	r29, r24
    135e:	c6 2f       	mov	r28, r22
    1360:	8a 01       	movw	r16, r20
    1362:	f2 2e       	mov	r15, r18
	//Warten bis fertig gesendet
	while(USART_SPI_TXWaiting());
    1364:	0e 94 ea 1c 	call	0x39d4	; 0x39d4 <USART_SPI_TXWaiting>
    1368:	81 11       	cpse	r24, r1
    136a:	fc cf       	rjmp	.-8      	; 0x1364 <DAC_AD5752_Range_and_PowerUp+0x12>
	//CS ändern
	USART_SPI_SetCS(port, pin, 1, 3);
    136c:	23 e0       	ldi	r18, 0x03	; 3
    136e:	41 e0       	ldi	r20, 0x01	; 1
    1370:	6f 2d       	mov	r22, r15
    1372:	c8 01       	movw	r24, r16
    1374:	0e 94 7c 1c 	call	0x38f8	; 0x38f8 <USART_SPI_SetCS>
	
	//OUTPUT Range Select Register for both channels
	USART_SPI_TxByte(DAC_REG_RANGE | DAC_ADR_DAC_AB);	
    1378:	8c e0       	ldi	r24, 0x0C	; 12
    137a:	0e 94 d7 1d 	call	0x3bae	; 0x3bae <USART_SPI_TxByte>
	USART_SPI_TxByte(0);
    137e:	80 e0       	ldi	r24, 0x00	; 0
    1380:	0e 94 d7 1d 	call	0x3bae	; 0x3bae <USART_SPI_TxByte>
	USART_SPI_TxByte(range);
    1384:	8d 2f       	mov	r24, r29
    1386:	0e 94 d7 1d 	call	0x3bae	; 0x3bae <USART_SPI_TxByte>
	
	
	//Power Control Register  
	USART_SPI_TxByte(DAC_REG_POWER);	//Read/Write bit -->0 (write)
    138a:	80 e1       	ldi	r24, 0x10	; 16
    138c:	0e 94 d7 1d 	call	0x3bae	; 0x3bae <USART_SPI_TxByte>
	USART_SPI_TxByte(0);
    1390:	80 e0       	ldi	r24, 0x00	; 0
    1392:	0e 94 d7 1d 	call	0x3bae	; 0x3bae <USART_SPI_TxByte>
	USART_SPI_TxByte(powerUP);
    1396:	8c 2f       	mov	r24, r28
    1398:	0e 94 d7 1d 	call	0x3bae	; 0x3bae <USART_SPI_TxByte>
}
    139c:	df 91       	pop	r29
    139e:	cf 91       	pop	r28
    13a0:	1f 91       	pop	r17
    13a2:	0f 91       	pop	r16
    13a4:	ff 90       	pop	r15
    13a6:	08 95       	ret

000013a8 <DAC_AD5752_Set>:
// -------------------------------------------------------------
// Ausgang setzen
// -------------------------------------------------------------

void DAC_AD5752_Set(uint16_t val, volatile uint8_t *port, uint8_t pin, uint8_t ch)
{
    13a8:	ef 92       	push	r14
    13aa:	ff 92       	push	r15
    13ac:	0f 93       	push	r16
    13ae:	1f 93       	push	r17
    13b0:	cf 93       	push	r28
    13b2:	df 93       	push	r29
    13b4:	c8 2f       	mov	r28, r24
    13b6:	d9 2f       	mov	r29, r25
    13b8:	7b 01       	movw	r14, r22
    13ba:	04 2f       	mov	r16, r20
    13bc:	12 2f       	mov	r17, r18
	//Wait to finish previous communication
	while(USART_SPI_TXWaiting());
    13be:	0e 94 ea 1c 	call	0x39d4	; 0x39d4 <USART_SPI_TXWaiting>
    13c2:	81 11       	cpse	r24, r1
    13c4:	fc cf       	rjmp	.-8      	; 0x13be <DAC_AD5752_Set+0x16>
	//CS change
	USART_SPI_SetCS(port, pin, 1, 3);
    13c6:	23 e0       	ldi	r18, 0x03	; 3
    13c8:	41 e0       	ldi	r20, 0x01	; 1
    13ca:	60 2f       	mov	r22, r16
    13cc:	c7 01       	movw	r24, r14
    13ce:	0e 94 7c 1c 	call	0x38f8	; 0x38f8 <USART_SPI_SetCS>
	
	//Send message
	USART_SPI_TxByte(DAC_REG_DAC | ch);	
    13d2:	81 2f       	mov	r24, r17
    13d4:	0e 94 d7 1d 	call	0x3bae	; 0x3bae <USART_SPI_TxByte>
	USART_SPI_TxByte(val>>8);
    13d8:	8d 2f       	mov	r24, r29
    13da:	0e 94 d7 1d 	call	0x3bae	; 0x3bae <USART_SPI_TxByte>
	USART_SPI_TxByte(val);
    13de:	8c 2f       	mov	r24, r28
    13e0:	0e 94 d7 1d 	call	0x3bae	; 0x3bae <USART_SPI_TxByte>
}
    13e4:	df 91       	pop	r29
    13e6:	cf 91       	pop	r28
    13e8:	1f 91       	pop	r17
    13ea:	0f 91       	pop	r16
    13ec:	ff 90       	pop	r15
    13ee:	ef 90       	pop	r14
    13f0:	08 95       	ret

000013f2 <LTC1864_getBIT_OneShot>:
//////////////////////////////////////////////////////////////////////////
//								Functions								//
//////////////////////////////////////////////////////////////////////////

uint16_t LTC1864_getBIT_OneShot(volatile uint8_t *port, uint8_t pin)
{
    13f2:	ff 92       	push	r15
    13f4:	0f 93       	push	r16
    13f6:	1f 93       	push	r17
    13f8:	cf 93       	push	r28
    13fa:	df 93       	push	r29
    13fc:	1f 92       	push	r1
    13fe:	1f 92       	push	r1
    1400:	cd b7       	in	r28, 0x3d	; 61
    1402:	de b7       	in	r29, 0x3e	; 62
    1404:	8c 01       	movw	r16, r24
    1406:	f6 2e       	mov	r15, r22
	//Complete Measurement-Sequence with return value
	//CS to LOW --> Wait --> CS to HIGH (Sample) --> Wait converstion time --> CS to LOW --> Reseive data --> CS Low
	
	//Wait to finish previous communication
	while(USART_SPI_TXWaiting());
    1408:	0e 94 ea 1c 	call	0x39d4	; 0x39d4 <USART_SPI_TXWaiting>
    140c:	81 11       	cpse	r24, r1
    140e:	fc cf       	rjmp	.-8      	; 0x1408 <LTC1864_getBIT_OneShot+0x16>
	//CS change
	USART_SPI_SetCS(port, pin, 1, 2);
    1410:	22 e0       	ldi	r18, 0x02	; 2
    1412:	41 e0       	ldi	r20, 0x01	; 1
    1414:	6f 2d       	mov	r22, r15
    1416:	c8 01       	movw	r24, r16
    1418:	0e 94 7c 1c 	call	0x38f8	; 0x38f8 <USART_SPI_SetCS>
	
	//CS to LOW
	_clear_bit(*port, pin);
    141c:	f8 01       	movw	r30, r16
    141e:	20 81       	ld	r18, Z
    1420:	81 e0       	ldi	r24, 0x01	; 1
    1422:	90 e0       	ldi	r25, 0x00	; 0
    1424:	02 c0       	rjmp	.+4      	; 0x142a <LTC1864_getBIT_OneShot+0x38>
    1426:	88 0f       	add	r24, r24
    1428:	99 1f       	adc	r25, r25
    142a:	fa 94       	dec	r15
    142c:	e2 f7       	brpl	.-8      	; 0x1426 <LTC1864_getBIT_OneShot+0x34>
    142e:	98 2f       	mov	r25, r24
    1430:	90 95       	com	r25
    1432:	92 23       	and	r25, r18
    1434:	90 83       	st	Z, r25
	#else
		//round up by default
		__ticks_dc = (uint32_t)(ceil(fabs(__tmp)));
	#endif

	__builtin_avr_delay_cycles(__ticks_dc);
    1436:	fa e0       	ldi	r31, 0x0A	; 10
    1438:	fa 95       	dec	r31
    143a:	f1 f7       	brne	.-4      	; 0x1438 <LTC1864_getBIT_OneShot+0x46>
    143c:	00 c0       	rjmp	.+0      	; 0x143e <LTC1864_getBIT_OneShot+0x4c>
	
	//Wait short time
	_delay_us(2);
	
	//CS to HIGH (Sample)
	_set_bit(*port, pin);
    143e:	f8 01       	movw	r30, r16
    1440:	90 81       	ld	r25, Z
    1442:	89 2b       	or	r24, r25
    1444:	80 83       	st	Z, r24
    1446:	fa e1       	ldi	r31, 0x1A	; 26
    1448:	fa 95       	dec	r31
    144a:	f1 f7       	brne	.-4      	; 0x1448 <LTC1864_getBIT_OneShot+0x56>
    144c:	00 c0       	rjmp	.+0      	; 0x144e <LTC1864_getBIT_OneShot+0x5c>
		
	//Wait conversion time (3.3µs)
	_delay_us(5);
	
	//Send 16bit message and receive bit value
	char message[2] = {0x00, 0x00};
    144e:	19 82       	std	Y+1, r1	; 0x01
    1450:	1a 82       	std	Y+2, r1	; 0x02
	USART_SPI_RxBytes(message, 2);
    1452:	62 e0       	ldi	r22, 0x02	; 2
    1454:	ce 01       	movw	r24, r28
    1456:	01 96       	adiw	r24, 0x01	; 1
    1458:	0e 94 21 1e 	call	0x3c42	; 0x3c42 <USART_SPI_RxBytes>
	
	//Wait until all bytes are available
	while(USART_SPI_RXWaiting() < 2){}
    145c:	0e 94 de 1c 	call	0x39bc	; 0x39bc <USART_SPI_RXWaiting>
    1460:	82 30       	cpi	r24, 0x02	; 2
    1462:	e0 f3       	brcs	.-8      	; 0x145c <LTC1864_getBIT_OneShot+0x6a>

	//Read two bytes
	USART_SPI_ReceiveLen(2);
    1464:	82 e0       	ldi	r24, 0x02	; 2
    1466:	0e 94 b3 1c 	call	0x3966	; 0x3966 <USART_SPI_ReceiveLen>
		
	//Return
	return usart_spi_rx[0] << 8 | usart_spi_rx[1];
    146a:	ec ee       	ldi	r30, 0xEC	; 236
    146c:	f4 e0       	ldi	r31, 0x04	; 4
    146e:	80 81       	ld	r24, Z
    1470:	90 e0       	ldi	r25, 0x00	; 0
    1472:	98 2f       	mov	r25, r24
    1474:	88 27       	eor	r24, r24
    1476:	21 81       	ldd	r18, Z+1	; 0x01
}
    1478:	82 2b       	or	r24, r18
    147a:	0f 90       	pop	r0
    147c:	0f 90       	pop	r0
    147e:	df 91       	pop	r29
    1480:	cf 91       	pop	r28
    1482:	1f 91       	pop	r17
    1484:	0f 91       	pop	r16
    1486:	ff 90       	pop	r15
    1488:	08 95       	ret

0000148a <IO_Expander_set_Register>:


void IO_Expander_Init(){}
	
void IO_Expander_set_Register(uint8_t reg, uint8_t value, volatile uint8_t *port, uint8_t pin)
{
    148a:	ff 92       	push	r15
    148c:	0f 93       	push	r16
    148e:	1f 93       	push	r17
    1490:	cf 93       	push	r28
    1492:	df 93       	push	r29
    1494:	d8 2f       	mov	r29, r24
    1496:	c6 2f       	mov	r28, r22
    1498:	8a 01       	movw	r16, r20
    149a:	f2 2e       	mov	r15, r18
	//Warten bis fertig gesendet
	while(USART_SPI_TXWaiting());
    149c:	0e 94 ea 1c 	call	0x39d4	; 0x39d4 <USART_SPI_TXWaiting>
    14a0:	81 11       	cpse	r24, r1
    14a2:	fc cf       	rjmp	.-8      	; 0x149c <IO_Expander_set_Register+0x12>
	//CS ändern
	USART_SPI_SetCS(port, pin, 1, 3);
    14a4:	23 e0       	ldi	r18, 0x03	; 3
    14a6:	41 e0       	ldi	r20, 0x01	; 1
    14a8:	6f 2d       	mov	r22, r15
    14aa:	c8 01       	movw	r24, r16
    14ac:	0e 94 7c 1c 	call	0x38f8	; 0x38f8 <USART_SPI_SetCS>
	//Nachricht senden
	USART_SPI_TxByte(IO_Expander_adresse);	//Read/Write bit -->0 (write)
    14b0:	80 e4       	ldi	r24, 0x40	; 64
    14b2:	0e 94 d7 1d 	call	0x3bae	; 0x3bae <USART_SPI_TxByte>
	USART_SPI_TxByte(reg);
    14b6:	8d 2f       	mov	r24, r29
    14b8:	0e 94 d7 1d 	call	0x3bae	; 0x3bae <USART_SPI_TxByte>
	USART_SPI_TxByte(value);
    14bc:	8c 2f       	mov	r24, r28
    14be:	0e 94 d7 1d 	call	0x3bae	; 0x3bae <USART_SPI_TxByte>
}
    14c2:	df 91       	pop	r29
    14c4:	cf 91       	pop	r28
    14c6:	1f 91       	pop	r17
    14c8:	0f 91       	pop	r16
    14ca:	ff 90       	pop	r15
    14cc:	08 95       	ret

000014ce <IO_Expander_get_Register>:

uint8_t IO_Expander_get_Register(uint8_t reg, volatile uint8_t *port, uint8_t pin)
{
    14ce:	ef 92       	push	r14
    14d0:	ff 92       	push	r15
    14d2:	0f 93       	push	r16
    14d4:	1f 93       	push	r17
    14d6:	cf 93       	push	r28
    14d8:	df 93       	push	r29
    14da:	00 d0       	rcall	.+0      	; 0x14dc <IO_Expander_get_Register+0xe>
    14dc:	cd b7       	in	r28, 0x3d	; 61
    14de:	de b7       	in	r29, 0x3e	; 62
    14e0:	18 2f       	mov	r17, r24
    14e2:	7b 01       	movw	r14, r22
    14e4:	04 2f       	mov	r16, r20
	//Warten bis fertig gesendet
	while(USART_SPI_TXWaiting());
    14e6:	0e 94 ea 1c 	call	0x39d4	; 0x39d4 <USART_SPI_TXWaiting>
    14ea:	81 11       	cpse	r24, r1
    14ec:	fc cf       	rjmp	.-8      	; 0x14e6 <IO_Expander_get_Register+0x18>
	//CS ändern
	USART_SPI_SetCS(port, pin, 1, 3);
    14ee:	23 e0       	ldi	r18, 0x03	; 3
    14f0:	41 e0       	ldi	r20, 0x01	; 1
    14f2:	60 2f       	mov	r22, r16
    14f4:	c7 01       	movw	r24, r14
    14f6:	0e 94 7c 1c 	call	0x38f8	; 0x38f8 <USART_SPI_SetCS>
	//Nachricht senden
	//USART_SPI_TxByte(IO_Expander_adresse | 0x01);	//Read/Write bit -->1 (read)
	//USART_SPI_TxByte(reg);
	
	char message[3] = {IO_Expander_adresse | 0x01, reg, 0x00};
    14fa:	81 e4       	ldi	r24, 0x41	; 65
    14fc:	89 83       	std	Y+1, r24	; 0x01
    14fe:	1a 83       	std	Y+2, r17	; 0x02
    1500:	1b 82       	std	Y+3, r1	; 0x03
	USART_SPI_RxBytes(message, 3);
    1502:	63 e0       	ldi	r22, 0x03	; 3
    1504:	ce 01       	movw	r24, r28
    1506:	01 96       	adiw	r24, 0x01	; 1
    1508:	0e 94 21 1e 	call	0x3c42	; 0x3c42 <USART_SPI_RxBytes>
	
	//Warten bis alle Daten da sind
	while(USART_SPI_RXWaiting() < 3){}
    150c:	0e 94 de 1c 	call	0x39bc	; 0x39bc <USART_SPI_RXWaiting>
    1510:	83 30       	cpi	r24, 0x03	; 3
    1512:	e0 f3       	brcs	.-8      	; 0x150c <IO_Expander_get_Register+0x3e>

	//Wieviele Bytes müssen gelesen werden
	USART_SPI_ReceiveLen(3);
    1514:	83 e0       	ldi	r24, 0x03	; 3
    1516:	0e 94 b3 1c 	call	0x3966	; 0x3966 <USART_SPI_ReceiveLen>
	
	//Auslesen (nur letztes Byte wichtig)
	return usart_spi_rx[2];

}
    151a:	80 91 ee 04 	lds	r24, 0x04EE	; 0x8004ee <usart_spi_rx+0x2>
    151e:	0f 90       	pop	r0
    1520:	0f 90       	pop	r0
    1522:	0f 90       	pop	r0
    1524:	df 91       	pop	r29
    1526:	cf 91       	pop	r28
    1528:	1f 91       	pop	r17
    152a:	0f 91       	pop	r16
    152c:	ff 90       	pop	r15
    152e:	ef 90       	pop	r14
    1530:	08 95       	ret

00001532 <Measure_Voltage_MOSFET_with_DataAnalyse>:
//////////////////////////////////////////////////////////////////////////
//					1. Spannungs-Messung für MOSFETs					//
//////////////////////////////////////////////////////////////////////////

uint32_t Measure_Voltage_MOSFET_with_DataAnalyse()
{
    1532:	cf 93       	push	r28
    1534:	df 93       	push	r29
    1536:	1f 92       	push	r1
    1538:	1f 92       	push	r1
    153a:	cd b7       	in	r28, 0x3d	; 61
    153c:	de b7       	in	r29, 0x3e	; 62
	//Variablen für Rückgabe
	uint32_t returnValue = 0;
	
	//Chip select festlegen
	//USART_SPI_SetCS(volatile uint8_t *csr, uint8_t csp, uint8_t neg, uint8_t len)
	USART_SPI_SetCS(&IO_PORT5, 6, 1, 2);
    153e:	22 e0       	ldi	r18, 0x02	; 2
    1540:	41 e0       	ldi	r20, 0x01	; 1
    1542:	66 e0       	ldi	r22, 0x06	; 6
    1544:	8b e2       	ldi	r24, 0x2B	; 43
    1546:	90 e0       	ldi	r25, 0x00	; 0
    1548:	0e 94 7c 1c 	call	0x38f8	; 0x38f8 <USART_SPI_SetCS>
		
	//LTC1864 braucht steigende Flanke um Messung zu starten
	clear_bit(IO_PORT5_3);
    154c:	5a 98       	cbi	0x0b, 2	; 11
    154e:	8a e1       	ldi	r24, 0x1A	; 26
    1550:	8a 95       	dec	r24
    1552:	f1 f7       	brne	.-4      	; 0x1550 <Measure_Voltage_MOSFET_with_DataAnalyse+0x1e>
    1554:	00 c0       	rjmp	.+0      	; 0x1556 <Measure_Voltage_MOSFET_with_DataAnalyse+0x24>
	_delay_us(5);
	set_bit(IO_PORT5_3);
    1556:	5a 9a       	sbi	0x0b, 2	; 11
    1558:	8a e1       	ldi	r24, 0x1A	; 26
    155a:	8a 95       	dec	r24
    155c:	f1 f7       	brne	.-4      	; 0x155a <Measure_Voltage_MOSFET_with_DataAnalyse+0x28>
    155e:	00 c0       	rjmp	.+0      	; 0x1560 <Measure_Voltage_MOSFET_with_DataAnalyse+0x2e>
	//Kurz bis Daten aufgenommen (Datasheet > 3.2µs)
	_delay_us(5);
	
	
	//Nachricht definieren 0x0000
	char message[2] = {0x00, 0x00};
    1560:	19 82       	std	Y+1, r1	; 0x01
    1562:	1a 82       	std	Y+2, r1	; 0x02
	USART_SPI_RxBytes(message, 2);
    1564:	62 e0       	ldi	r22, 0x02	; 2
    1566:	ce 01       	movw	r24, r28
    1568:	01 96       	adiw	r24, 0x01	; 1
    156a:	0e 94 21 1e 	call	0x3c42	; 0x3c42 <USART_SPI_RxBytes>
	
	//Warten bis alle Daten da sind
	while(USART_SPI_RXWaiting() < 2){}
    156e:	0e 94 de 1c 	call	0x39bc	; 0x39bc <USART_SPI_RXWaiting>
    1572:	82 30       	cpi	r24, 0x02	; 2
    1574:	e0 f3       	brcs	.-8      	; 0x156e <Measure_Voltage_MOSFET_with_DataAnalyse+0x3c>

	//Wieviele Bytes müssen gelesen werden
	USART_SPI_ReceiveLen(2);
    1576:	82 e0       	ldi	r24, 0x02	; 2
    1578:	0e 94 b3 1c 	call	0x3966	; 0x3966 <USART_SPI_ReceiveLen>
	
	//Auslesen
	returnValue = usart_spi_rx[0] << 8 | usart_spi_rx[1];
    157c:	ec ee       	ldi	r30, 0xEC	; 236
    157e:	f4 e0       	ldi	r31, 0x04	; 4

	//Umrechnen
	returnValue = returnValue * 2500 * 11 / 65536;
    1580:	a0 81       	ld	r26, Z
    1582:	b0 e0       	ldi	r27, 0x00	; 0
    1584:	ba 2f       	mov	r27, r26
    1586:	aa 27       	eor	r26, r26
    1588:	81 81       	ldd	r24, Z+1	; 0x01
    158a:	a8 2b       	or	r26, r24
    158c:	2c e6       	ldi	r18, 0x6C	; 108
    158e:	3b e6       	ldi	r19, 0x6B	; 107
    1590:	0e 94 8f 1e 	call	0x3d1e	; 0x3d1e <__usmulhisi3>

	//Rückgabe
	return returnValue;	
    1594:	bc 01       	movw	r22, r24
    1596:	88 27       	eor	r24, r24
    1598:	99 27       	eor	r25, r25
}
    159a:	0f 90       	pop	r0
    159c:	0f 90       	pop	r0
    159e:	df 91       	pop	r29
    15a0:	cf 91       	pop	r28
    15a2:	08 95       	ret

000015a4 <Measure_Voltage_MOSFET_without_DataAnalyse>:

void Measure_Voltage_MOSFET_without_DataAnalyse()
{
    15a4:	cf 93       	push	r28
    15a6:	df 93       	push	r29
    15a8:	1f 92       	push	r1
    15aa:	1f 92       	push	r1
    15ac:	cd b7       	in	r28, 0x3d	; 61
    15ae:	de b7       	in	r29, 0x3e	; 62
	//Wird später gemacht
	//Probleme mit while(alle Daten da) im Interrupt
	
	//Chip select festlegen
	//USART_SPI_SetCS(volatile uint8_t *csr, uint8_t csp, uint8_t neg, uint8_t len)
	USART_SPI_SetCS(&IO_PORT5, 6, 1, 2);
    15b0:	22 e0       	ldi	r18, 0x02	; 2
    15b2:	41 e0       	ldi	r20, 0x01	; 1
    15b4:	66 e0       	ldi	r22, 0x06	; 6
    15b6:	8b e2       	ldi	r24, 0x2B	; 43
    15b8:	90 e0       	ldi	r25, 0x00	; 0
    15ba:	0e 94 7c 1c 	call	0x38f8	; 0x38f8 <USART_SPI_SetCS>
	
	//LTC1864 braucht steigende Flanke um Messung zu starten
	clear_bit(IO_PORT5_3);
    15be:	5a 98       	cbi	0x0b, 2	; 11
    15c0:	8a e1       	ldi	r24, 0x1A	; 26
    15c2:	8a 95       	dec	r24
    15c4:	f1 f7       	brne	.-4      	; 0x15c2 <Measure_Voltage_MOSFET_without_DataAnalyse+0x1e>
    15c6:	00 c0       	rjmp	.+0      	; 0x15c8 <Measure_Voltage_MOSFET_without_DataAnalyse+0x24>
	_delay_us(5);
	set_bit(IO_PORT5_3);
    15c8:	5a 9a       	sbi	0x0b, 2	; 11
    15ca:	8a e1       	ldi	r24, 0x1A	; 26
    15cc:	8a 95       	dec	r24
    15ce:	f1 f7       	brne	.-4      	; 0x15cc <Measure_Voltage_MOSFET_without_DataAnalyse+0x28>
    15d0:	00 c0       	rjmp	.+0      	; 0x15d2 <Measure_Voltage_MOSFET_without_DataAnalyse+0x2e>
	//Kurz bis Daten aufgenommen (Datasheet > 3.2µs)
	_delay_us(5);
	
	
	//Nachricht definieren 0x0000
	char message[2] = {0x00, 0x00};
    15d2:	19 82       	std	Y+1, r1	; 0x01
    15d4:	1a 82       	std	Y+2, r1	; 0x02
	USART_SPI_RxBytes(message, 2);	
    15d6:	62 e0       	ldi	r22, 0x02	; 2
    15d8:	ce 01       	movw	r24, r28
    15da:	01 96       	adiw	r24, 0x01	; 1
    15dc:	0e 94 21 1e 	call	0x3c42	; 0x3c42 <USART_SPI_RxBytes>
	
	return;
}
    15e0:	0f 90       	pop	r0
    15e2:	0f 90       	pop	r0
    15e4:	df 91       	pop	r29
    15e6:	cf 91       	pop	r28
    15e8:	08 95       	ret

000015ea <Measure_Voltage_MOSFET_get_Data>:
{
	//Variablen für Rückgabe
	uint32_t returnValue = 0;
	
	//Wieviele Bytes müssen gelesen werden
	USART_SPI_ReceiveLen(2);
    15ea:	82 e0       	ldi	r24, 0x02	; 2
    15ec:	0e 94 b3 1c 	call	0x3966	; 0x3966 <USART_SPI_ReceiveLen>
		
	//Auslesen
	returnValue = usart_spi_rx[0] << 8 | usart_spi_rx[1];
    15f0:	ec ee       	ldi	r30, 0xEC	; 236
    15f2:	f4 e0       	ldi	r31, 0x04	; 4

	//Umrechnen
	returnValue = returnValue * 2500 * 11 / 65536;
    15f4:	a0 81       	ld	r26, Z
    15f6:	b0 e0       	ldi	r27, 0x00	; 0
    15f8:	ba 2f       	mov	r27, r26
    15fa:	aa 27       	eor	r26, r26
    15fc:	81 81       	ldd	r24, Z+1	; 0x01
    15fe:	a8 2b       	or	r26, r24
    1600:	2c e6       	ldi	r18, 0x6C	; 108
    1602:	3b e6       	ldi	r19, 0x6B	; 107
    1604:	0e 94 8f 1e 	call	0x3d1e	; 0x3d1e <__usmulhisi3>

	//Rückgabe
	return returnValue;
    1608:	bc 01       	movw	r22, r24
    160a:	88 27       	eor	r24, r24
    160c:	99 27       	eor	r25, r25
}
    160e:	08 95       	ret

00001610 <Init_IO_Pins>:
	//Switch off all Heat pulses
	HP_Port = 0;
	MP_Port = 0;
	
	//Start Timer 1
	Start_Timer_100us();	    	
    1610:	af 92       	push	r10
    1612:	bf 92       	push	r11
    1614:	df 92       	push	r13
    1616:	ef 92       	push	r14
    1618:	ff 92       	push	r15
    161a:	0f 93       	push	r16
    161c:	1f 93       	push	r17
    161e:	cf 93       	push	r28
    1620:	df 93       	push	r29
    1622:	a3 98       	cbi	0x14, 3	; 20
    1624:	a2 98       	cbi	0x14, 2	; 20
    1626:	a0 98       	cbi	0x14, 0	; 20
    1628:	a1 98       	cbi	0x14, 1	; 20
    162a:	9b 9a       	sbi	0x13, 3	; 19
    162c:	9a 9a       	sbi	0x13, 2	; 19
    162e:	99 9a       	sbi	0x13, 1	; 19
    1630:	98 9a       	sbi	0x13, 0	; 19
    1632:	20 e0       	ldi	r18, 0x00	; 0
    1634:	30 e0       	ldi	r19, 0x00	; 0
    1636:	02 e0       	ldi	r16, 0x02	; 2
    1638:	11 e0       	ldi	r17, 0x01	; 1
    163a:	ee 24       	eor	r14, r14
    163c:	e3 94       	inc	r14
    163e:	f1 2c       	mov	r15, r1
    1640:	68 e0       	ldi	r22, 0x08	; 8
    1642:	71 e0       	ldi	r23, 0x01	; 1
    1644:	45 e0       	ldi	r20, 0x05	; 5
    1646:	51 e0       	ldi	r21, 0x01	; 1
    1648:	c1 e0       	ldi	r28, 0x01	; 1
    164a:	d1 e0       	ldi	r29, 0x01	; 1
    164c:	a7 e0       	ldi	r26, 0x07	; 7
    164e:	b1 e0       	ldi	r27, 0x01	; 1
    1650:	68 94       	set
    1652:	aa 24       	eor	r10, r10
    1654:	a2 f8       	bld	r10, 2
    1656:	bb 24       	eor	r11, r11
    1658:	b3 94       	inc	r11
    165a:	f8 01       	movw	r30, r16
    165c:	d0 80       	ld	r13, Z
    165e:	c7 01       	movw	r24, r14
    1660:	02 2e       	mov	r0, r18
    1662:	02 c0       	rjmp	.+4      	; 0x1668 <Init_IO_Pins+0x58>
    1664:	88 0f       	add	r24, r24
    1666:	99 1f       	adc	r25, r25
    1668:	0a 94       	dec	r0
    166a:	e2 f7       	brpl	.-8      	; 0x1664 <Init_IO_Pins+0x54>
    166c:	98 2f       	mov	r25, r24
    166e:	90 95       	com	r25
    1670:	d9 22       	and	r13, r25
    1672:	d0 82       	st	Z, r13
    1674:	fb 01       	movw	r30, r22
    1676:	d0 80       	ld	r13, Z
    1678:	9d 21       	and	r25, r13
    167a:	90 83       	st	Z, r25
    167c:	92 b1       	in	r25, 0x02	; 2
    167e:	98 2b       	or	r25, r24
    1680:	92 b9       	out	0x02, r25	; 2
    1682:	fa 01       	movw	r30, r20
    1684:	90 81       	ld	r25, Z
    1686:	98 2b       	or	r25, r24
    1688:	90 83       	st	Z, r25
    168a:	98 81       	ld	r25, Y
    168c:	98 2b       	or	r25, r24
    168e:	98 83       	st	Y, r25
    1690:	9c 91       	ld	r25, X
    1692:	98 2b       	or	r25, r24
    1694:	9c 93       	st	X, r25
    1696:	91 b1       	in	r25, 0x01	; 1
    1698:	98 2b       	or	r25, r24
    169a:	91 b9       	out	0x01, r25	; 1
    169c:	f5 01       	movw	r30, r10
    169e:	90 81       	ld	r25, Z
    16a0:	89 2b       	or	r24, r25
    16a2:	80 83       	st	Z, r24
    16a4:	2f 5f       	subi	r18, 0xFF	; 255
    16a6:	3f 4f       	sbci	r19, 0xFF	; 255
    16a8:	27 30       	cpi	r18, 0x07	; 7
    16aa:	31 05       	cpc	r19, r1
    16ac:	b1 f6       	brne	.-84     	; 0x165a <Init_IO_Pins+0x4a>
    16ae:	74 9a       	sbi	0x0e, 4	; 14
    16b0:	71 9a       	sbi	0x0e, 1	; 14
    16b2:	6c 9a       	sbi	0x0d, 4	; 13
    16b4:	69 9a       	sbi	0x0d, 1	; 13
    16b6:	72 98       	cbi	0x0e, 2	; 14
    16b8:	6a 9a       	sbi	0x0d, 2	; 13
    16ba:	2e 98       	cbi	0x05, 6	; 5
    16bc:	26 9a       	sbi	0x04, 6	; 4
    16be:	27 98       	cbi	0x04, 7	; 4
    16c0:	df 91       	pop	r29
    16c2:	cf 91       	pop	r28
    16c4:	1f 91       	pop	r17
    16c6:	0f 91       	pop	r16
    16c8:	ff 90       	pop	r15
    16ca:	ef 90       	pop	r14
    16cc:	df 90       	pop	r13
    16ce:	bf 90       	pop	r11
    16d0:	af 90       	pop	r10
    16d2:	08 95       	ret

000016d4 <Lauflicht>:
    16d4:	86 e0       	ldi	r24, 0x06	; 6
    16d6:	80 93 42 05 	sts	0x0542, r24	; 0x800542 <startup_wait_counter>
    16da:	39 c0       	rjmp	.+114    	; 0x174e <Lauflicht+0x7a>
    16dc:	80 91 2a 04 	lds	r24, 0x042A	; 0x80042a <interrupt_1ms>
    16e0:	8a 30       	cpi	r24, 0x0A	; 10
    16e2:	90 f0       	brcs	.+36     	; 0x1708 <Lauflicht+0x34>
    16e4:	10 92 2a 04 	sts	0x042A, r1	; 0x80042a <interrupt_1ms>
    16e8:	80 91 49 05 	lds	r24, 0x0549	; 0x800549 <interrupt_10hz>
    16ec:	8f 5f       	subi	r24, 0xFF	; 255
    16ee:	8a 30       	cpi	r24, 0x0A	; 10
    16f0:	19 f0       	breq	.+6      	; 0x16f8 <Lauflicht+0x24>
    16f2:	80 93 49 05 	sts	0x0549, r24	; 0x800549 <interrupt_10hz>
    16f6:	08 c0       	rjmp	.+16     	; 0x1708 <Lauflicht+0x34>
    16f8:	10 92 49 05 	sts	0x0549, r1	; 0x800549 <interrupt_10hz>
    16fc:	80 91 42 05 	lds	r24, 0x0542	; 0x800542 <startup_wait_counter>
    1700:	81 50       	subi	r24, 0x01	; 1
    1702:	80 93 42 05 	sts	0x0542, r24	; 0x800542 <startup_wait_counter>
    1706:	a8 95       	wdr
    1708:	80 91 42 05 	lds	r24, 0x0542	; 0x800542 <startup_wait_counter>
    170c:	86 30       	cpi	r24, 0x06	; 6
    170e:	09 f4       	brne	.+2      	; 0x1712 <Lauflicht+0x3e>
    1710:	a3 9a       	sbi	0x14, 3	; 20
    1712:	80 91 42 05 	lds	r24, 0x0542	; 0x800542 <startup_wait_counter>
    1716:	85 30       	cpi	r24, 0x05	; 5
    1718:	11 f4       	brne	.+4      	; 0x171e <Lauflicht+0x4a>
    171a:	a3 98       	cbi	0x14, 3	; 20
    171c:	a2 9a       	sbi	0x14, 2	; 20
    171e:	80 91 42 05 	lds	r24, 0x0542	; 0x800542 <startup_wait_counter>
    1722:	84 30       	cpi	r24, 0x04	; 4
    1724:	11 f4       	brne	.+4      	; 0x172a <Lauflicht+0x56>
    1726:	a3 9a       	sbi	0x14, 3	; 20
    1728:	a2 9a       	sbi	0x14, 2	; 20
    172a:	80 91 42 05 	lds	r24, 0x0542	; 0x800542 <startup_wait_counter>
    172e:	83 30       	cpi	r24, 0x03	; 3
    1730:	19 f4       	brne	.+6      	; 0x1738 <Lauflicht+0x64>
    1732:	a3 98       	cbi	0x14, 3	; 20
    1734:	a2 98       	cbi	0x14, 2	; 20
    1736:	a0 9a       	sbi	0x14, 0	; 20
    1738:	80 91 42 05 	lds	r24, 0x0542	; 0x800542 <startup_wait_counter>
    173c:	82 30       	cpi	r24, 0x02	; 2
    173e:	11 f4       	brne	.+4      	; 0x1744 <Lauflicht+0x70>
    1740:	a0 98       	cbi	0x14, 0	; 20
    1742:	a1 9a       	sbi	0x14, 1	; 20
    1744:	80 91 42 05 	lds	r24, 0x0542	; 0x800542 <startup_wait_counter>
    1748:	81 30       	cpi	r24, 0x01	; 1
    174a:	09 f4       	brne	.+2      	; 0x174e <Lauflicht+0x7a>
    174c:	a1 98       	cbi	0x14, 1	; 20
    174e:	80 91 42 05 	lds	r24, 0x0542	; 0x800542 <startup_wait_counter>
    1752:	81 11       	cpse	r24, r1
    1754:	c3 cf       	rjmp	.-122    	; 0x16dc <Lauflicht+0x8>
    1756:	08 95       	ret

00001758 <EEPROM_default_Values>:
    1758:	cf 93       	push	r28
    175a:	df 93       	push	r29
    175c:	cd b7       	in	r28, 0x3d	; 61
    175e:	de b7       	in	r29, 0x3e	; 62
    1760:	28 97       	sbiw	r28, 0x08	; 8
    1762:	0f b6       	in	r0, 0x3f	; 63
    1764:	f8 94       	cli
    1766:	de bf       	out	0x3e, r29	; 62
    1768:	0f be       	out	0x3f, r0	; 63
    176a:	cd bf       	out	0x3d, r28	; 61
    176c:	65 e0       	ldi	r22, 0x05	; 5
    176e:	70 e0       	ldi	r23, 0x00	; 0
    1770:	8f e4       	ldi	r24, 0x4F	; 79
    1772:	90 e0       	ldi	r25, 0x00	; 0
    1774:	0e 94 51 1f 	call	0x3ea2	; 0x3ea2 <eeprom_write_word>
    1778:	62 e3       	ldi	r22, 0x32	; 50
    177a:	70 e0       	ldi	r23, 0x00	; 0
    177c:	8d e4       	ldi	r24, 0x4D	; 77
    177e:	90 e0       	ldi	r25, 0x00	; 0
    1780:	0e 94 51 1f 	call	0x3ea2	; 0x3ea2 <eeprom_write_word>
    1784:	62 e3       	ldi	r22, 0x32	; 50
    1786:	70 e0       	ldi	r23, 0x00	; 0
    1788:	87 e4       	ldi	r24, 0x47	; 71
    178a:	90 e0       	ldi	r25, 0x00	; 0
    178c:	0e 94 51 1f 	call	0x3ea2	; 0x3ea2 <eeprom_write_word>
    1790:	60 ee       	ldi	r22, 0xE0	; 224
    1792:	7e e2       	ldi	r23, 0x2E	; 46
    1794:	8d e3       	ldi	r24, 0x3D	; 61
    1796:	90 e0       	ldi	r25, 0x00	; 0
    1798:	0e 94 51 1f 	call	0x3ea2	; 0x3ea2 <eeprom_write_word>
    179c:	68 eb       	ldi	r22, 0xB8	; 184
    179e:	7b e0       	ldi	r23, 0x0B	; 11
    17a0:	8f e3       	ldi	r24, 0x3F	; 63
    17a2:	90 e0       	ldi	r25, 0x00	; 0
    17a4:	0e 94 51 1f 	call	0x3ea2	; 0x3ea2 <eeprom_write_word>
    17a8:	49 e1       	ldi	r20, 0x19	; 25
    17aa:	50 e0       	ldi	r21, 0x00	; 0
    17ac:	60 e0       	ldi	r22, 0x00	; 0
    17ae:	70 e0       	ldi	r23, 0x00	; 0
    17b0:	89 e4       	ldi	r24, 0x49	; 73
    17b2:	90 e0       	ldi	r25, 0x00	; 0
    17b4:	0e 94 4c 1f 	call	0x3e98	; 0x3e98 <eeprom_write_dword>
    17b8:	49 e1       	ldi	r20, 0x19	; 25
    17ba:	50 e0       	ldi	r21, 0x00	; 0
    17bc:	60 e0       	ldi	r22, 0x00	; 0
    17be:	70 e0       	ldi	r23, 0x00	; 0
    17c0:	83 e4       	ldi	r24, 0x43	; 67
    17c2:	90 e0       	ldi	r25, 0x00	; 0
    17c4:	0e 94 4c 1f 	call	0x3e98	; 0x3e98 <eeprom_write_dword>
    17c8:	6a e0       	ldi	r22, 0x0A	; 10
    17ca:	70 e0       	ldi	r23, 0x00	; 0
    17cc:	8b e3       	ldi	r24, 0x3B	; 59
    17ce:	90 e0       	ldi	r25, 0x00	; 0
    17d0:	0e 94 51 1f 	call	0x3ea2	; 0x3ea2 <eeprom_write_word>
    17d4:	64 e6       	ldi	r22, 0x64	; 100
    17d6:	70 e0       	ldi	r23, 0x00	; 0
    17d8:	89 e3       	ldi	r24, 0x39	; 57
    17da:	90 e0       	ldi	r25, 0x00	; 0
    17dc:	0e 94 51 1f 	call	0x3ea2	; 0x3ea2 <eeprom_write_word>
    17e0:	60 e0       	ldi	r22, 0x00	; 0
    17e2:	88 e3       	ldi	r24, 0x38	; 56
    17e4:	90 e0       	ldi	r25, 0x00	; 0
    17e6:	0e 94 3e 1f 	call	0x3e7c	; 0x3e7c <eeprom_write_byte>
    17ea:	88 e0       	ldi	r24, 0x08	; 8
    17ec:	e5 e0       	ldi	r30, 0x05	; 5
    17ee:	f2 e0       	ldi	r31, 0x02	; 2
    17f0:	de 01       	movw	r26, r28
    17f2:	11 96       	adiw	r26, 0x01	; 1
    17f4:	01 90       	ld	r0, Z+
    17f6:	0d 92       	st	X+, r0
    17f8:	8a 95       	dec	r24
    17fa:	e1 f7       	brne	.-8      	; 0x17f4 <EEPROM_default_Values+0x9c>
    17fc:	48 e0       	ldi	r20, 0x08	; 8
    17fe:	50 e0       	ldi	r21, 0x00	; 0
    1800:	be 01       	movw	r22, r28
    1802:	6f 5f       	subi	r22, 0xFF	; 255
    1804:	7f 4f       	sbci	r23, 0xFF	; 255
    1806:	80 e3       	ldi	r24, 0x30	; 48
    1808:	90 e0       	ldi	r25, 0x00	; 0
    180a:	0e 94 35 1f 	call	0x3e6a	; 0x3e6a <eeprom_write_block>
    180e:	28 96       	adiw	r28, 0x08	; 8
    1810:	0f b6       	in	r0, 0x3f	; 63
    1812:	f8 94       	cli
    1814:	de bf       	out	0x3e, r29	; 62
    1816:	0f be       	out	0x3f, r0	; 63
    1818:	cd bf       	out	0x3d, r28	; 61
    181a:	df 91       	pop	r29
    181c:	cf 91       	pop	r28
    181e:	08 95       	ret

00001820 <EEPROM_last_Values>:
    1820:	0f 93       	push	r16
    1822:	1f 93       	push	r17
    1824:	cf 93       	push	r28
    1826:	df 93       	push	r29
    1828:	89 e4       	ldi	r24, 0x49	; 73
    182a:	90 e0       	ldi	r25, 0x00	; 0
    182c:	0e 94 2b 1f 	call	0x3e56	; 0x3e56 <eeprom_read_dword>
    1830:	60 93 2b 04 	sts	0x042B, r22	; 0x80042b <heat_pulse_length>
    1834:	70 93 2c 04 	sts	0x042C, r23	; 0x80042c <heat_pulse_length+0x1>
    1838:	80 93 2d 04 	sts	0x042D, r24	; 0x80042d <heat_pulse_length+0x2>
    183c:	90 93 2e 04 	sts	0x042E, r25	; 0x80042e <heat_pulse_length+0x3>
    1840:	83 e4       	ldi	r24, 0x43	; 67
    1842:	90 e0       	ldi	r25, 0x00	; 0
    1844:	0e 94 2b 1f 	call	0x3e56	; 0x3e56 <eeprom_read_dword>
    1848:	60 93 2c 05 	sts	0x052C, r22	; 0x80052c <measure_pulse_length>
    184c:	70 93 2d 05 	sts	0x052D, r23	; 0x80052d <measure_pulse_length+0x1>
    1850:	80 93 2e 05 	sts	0x052E, r24	; 0x80052e <measure_pulse_length+0x2>
    1854:	90 93 2f 05 	sts	0x052F, r25	; 0x80052f <measure_pulse_length+0x3>
    1858:	8b e3       	ldi	r24, 0x3B	; 59
    185a:	90 e0       	ldi	r25, 0x00	; 0
    185c:	0e 94 30 1f 	call	0x3e60	; 0x3e60 <eeprom_read_word>
    1860:	90 93 28 04 	sts	0x0428, r25	; 0x800428 <deterministic_pulse_length+0x1>
    1864:	80 93 27 04 	sts	0x0427, r24	; 0x800427 <deterministic_pulse_length>
    1868:	89 e3       	ldi	r24, 0x39	; 57
    186a:	90 e0       	ldi	r25, 0x00	; 0
    186c:	0e 94 30 1f 	call	0x3e60	; 0x3e60 <eeprom_read_word>
    1870:	90 93 30 04 	sts	0x0430, r25	; 0x800430 <deterministic_pulse_cycles+0x1>
    1874:	80 93 2f 04 	sts	0x042F, r24	; 0x80042f <deterministic_pulse_cycles>
    1878:	88 e3       	ldi	r24, 0x38	; 56
    187a:	90 e0       	ldi	r25, 0x00	; 0
    187c:	0e 94 23 1f 	call	0x3e46	; 0x3e46 <eeprom_read_byte>
    1880:	80 93 4b 05 	sts	0x054B, r24	; 0x80054b <pulse_output_register>
    1884:	48 e0       	ldi	r20, 0x08	; 8
    1886:	50 e0       	ldi	r21, 0x00	; 0
    1888:	60 e3       	ldi	r22, 0x30	; 48
    188a:	70 e0       	ldi	r23, 0x00	; 0
    188c:	8e e4       	ldi	r24, 0x4E	; 78
    188e:	95 e0       	ldi	r25, 0x05	; 5
    1890:	0e 94 13 1f 	call	0x3e26	; 0x3e26 <eeprom_read_block>
    1894:	0e e4       	ldi	r16, 0x4E	; 78
    1896:	15 e0       	ldi	r17, 0x05	; 5
    1898:	c1 e0       	ldi	r28, 0x01	; 1
    189a:	d0 e0       	ldi	r29, 0x00	; 0
    189c:	f8 01       	movw	r30, r16
    189e:	81 91       	ld	r24, Z+
    18a0:	8f 01       	movw	r16, r30
    18a2:	82 34       	cpi	r24, 0x42	; 66
    18a4:	a1 f0       	breq	.+40     	; 0x18ce <EEPROM_last_Values+0xae>
    18a6:	18 f4       	brcc	.+6      	; 0x18ae <EEPROM_last_Values+0x8e>
    18a8:	81 34       	cpi	r24, 0x41	; 65
    18aa:	31 f0       	breq	.+12     	; 0x18b8 <EEPROM_last_Values+0x98>
    18ac:	12 c0       	rjmp	.+36     	; 0x18d2 <EEPROM_last_Values+0xb2>
    18ae:	86 34       	cpi	r24, 0x46	; 70
    18b0:	51 f0       	breq	.+20     	; 0x18c6 <EEPROM_last_Values+0xa6>
    18b2:	8c 34       	cpi	r24, 0x4C	; 76
    18b4:	29 f0       	breq	.+10     	; 0x18c0 <EEPROM_last_Values+0xa0>
    18b6:	0d c0       	rjmp	.+26     	; 0x18d2 <EEPROM_last_Values+0xb2>
    18b8:	ce 01       	movw	r24, r28
    18ba:	0e 94 58 01 	call	0x2b0	; 0x2b0 <Amplifier_Variables_from_EEPROM>
    18be:	09 c0       	rjmp	.+18     	; 0x18d2 <EEPROM_last_Values+0xb2>
    18c0:	ce 01       	movw	r24, r28
    18c2:	0a d8       	rcall	.-4076   	; 0x8d8 <LED_Source_Variables_from_EEPROM>
    18c4:	06 c0       	rjmp	.+12     	; 0x18d2 <EEPROM_last_Values+0xb2>
    18c6:	ce 01       	movw	r24, r28
    18c8:	0e 94 e2 01 	call	0x3c4	; 0x3c4 <FrontEnd_Variables_from_EEPROM>
    18cc:	02 c0       	rjmp	.+4      	; 0x18d2 <EEPROM_last_Values+0xb2>
    18ce:	ce 01       	movw	r24, r28
    18d0:	a9 d8       	rcall	.-3758   	; 0xa24 <BreakDown_Variables_from_EEPROM>
    18d2:	21 96       	adiw	r28, 0x01	; 1
    18d4:	c9 30       	cpi	r28, 0x09	; 9
    18d6:	d1 05       	cpc	r29, r1
    18d8:	09 f7       	brne	.-62     	; 0x189c <EEPROM_last_Values+0x7c>
    18da:	8d e4       	ldi	r24, 0x4D	; 77
    18dc:	90 e0       	ldi	r25, 0x00	; 0
    18de:	0e 94 30 1f 	call	0x3e60	; 0x3e60 <eeprom_read_word>
    18e2:	90 93 d9 04 	sts	0x04D9, r25	; 0x8004d9 <heat_pulse_current+0x1>
    18e6:	80 93 d8 04 	sts	0x04D8, r24	; 0x8004d8 <heat_pulse_current>
    18ea:	87 e4       	ldi	r24, 0x47	; 71
    18ec:	90 e0       	ldi	r25, 0x00	; 0
    18ee:	0e 94 30 1f 	call	0x3e60	; 0x3e60 <eeprom_read_word>
    18f2:	90 93 b4 04 	sts	0x04B4, r25	; 0x8004b4 <measure_pulse_current+0x1>
    18f6:	80 93 b3 04 	sts	0x04B3, r24	; 0x8004b3 <measure_pulse_current>
    18fa:	8d e3       	ldi	r24, 0x3D	; 61
    18fc:	90 e0       	ldi	r25, 0x00	; 0
    18fe:	0e 94 30 1f 	call	0x3e60	; 0x3e60 <eeprom_read_word>
    1902:	90 93 48 05 	sts	0x0548, r25	; 0x800548 <window_offset+0x1>
    1906:	80 93 47 05 	sts	0x0547, r24	; 0x800547 <window_offset>
    190a:	8f e3       	ldi	r24, 0x3F	; 63
    190c:	90 e0       	ldi	r25, 0x00	; 0
    190e:	0e 94 30 1f 	call	0x3e60	; 0x3e60 <eeprom_read_word>
    1912:	90 93 c6 04 	sts	0x04C6, r25	; 0x8004c6 <offset_voltage+0x1>
    1916:	80 93 c5 04 	sts	0x04C5, r24	; 0x8004c5 <offset_voltage>
    191a:	df 91       	pop	r29
    191c:	cf 91       	pop	r28
    191e:	1f 91       	pop	r17
    1920:	0f 91       	pop	r16
    1922:	08 95       	ret

00001924 <Init_All_Cards>:
    1924:	ef 92       	push	r14
    1926:	ff 92       	push	r15
    1928:	0f 93       	push	r16
    192a:	1f 93       	push	r17
    192c:	cf 93       	push	r28
    192e:	df 93       	push	r29
    1930:	7c 01       	movw	r14, r24
    1932:	06 2f       	mov	r16, r22
    1934:	17 2f       	mov	r17, r23
    1936:	c1 e0       	ldi	r28, 0x01	; 1
    1938:	d0 e0       	ldi	r29, 0x00	; 0
    193a:	f7 01       	movw	r30, r14
    193c:	81 91       	ld	r24, Z+
    193e:	7f 01       	movw	r14, r30
    1940:	f8 01       	movw	r30, r16
    1942:	91 91       	ld	r25, Z+
    1944:	8f 01       	movw	r16, r30
    1946:	89 17       	cp	r24, r25
    1948:	f1 f0       	breq	.+60     	; 0x1986 <Init_All_Cards+0x62>
    194a:	86 34       	cpi	r24, 0x46	; 70
    194c:	c9 f0       	breq	.+50     	; 0x1980 <Init_All_Cards+0x5c>
    194e:	28 f4       	brcc	.+10     	; 0x195a <Init_All_Cards+0x36>
    1950:	81 34       	cpi	r24, 0x41	; 65
    1952:	41 f0       	breq	.+16     	; 0x1964 <Init_All_Cards+0x40>
    1954:	82 34       	cpi	r24, 0x42	; 66
    1956:	71 f0       	breq	.+28     	; 0x1974 <Init_All_Cards+0x50>
    1958:	16 c0       	rjmp	.+44     	; 0x1986 <Init_All_Cards+0x62>
    195a:	8c 34       	cpi	r24, 0x4C	; 76
    195c:	39 f0       	breq	.+14     	; 0x196c <Init_All_Cards+0x48>
    195e:	84 35       	cpi	r24, 0x54	; 84
    1960:	61 f0       	breq	.+24     	; 0x197a <Init_All_Cards+0x56>
    1962:	11 c0       	rjmp	.+34     	; 0x1986 <Init_All_Cards+0x62>
    1964:	ce 01       	movw	r24, r28
    1966:	0e 94 8d 01 	call	0x31a	; 0x31a <Amplifier_Init>
    196a:	0d c0       	rjmp	.+26     	; 0x1986 <Init_All_Cards+0x62>
    196c:	ce 01       	movw	r24, r28
    196e:	0e 94 b6 04 	call	0x96c	; 0x96c <LED_Source_Init>
    1972:	09 c0       	rjmp	.+18     	; 0x1986 <Init_All_Cards+0x62>
    1974:	ce 01       	movw	r24, r28
    1976:	f8 d8       	rcall	.-3600   	; 0xb68 <MOSFET_BreakDown_Init>
    1978:	06 c0       	rjmp	.+12     	; 0x1986 <Init_All_Cards+0x62>
    197a:	ce 01       	movw	r24, r28
    197c:	52 db       	rcall	.-2396   	; 0x1022 <Slot_Tester_Init>
    197e:	03 c0       	rjmp	.+6      	; 0x1986 <Init_All_Cards+0x62>
    1980:	ce 01       	movw	r24, r28
    1982:	0e 94 38 02 	call	0x470	; 0x470 <FrontEnd_Init>
    1986:	21 96       	adiw	r28, 0x01	; 1
    1988:	c9 30       	cpi	r28, 0x09	; 9
    198a:	d1 05       	cpc	r29, r1
    198c:	b1 f6       	brne	.-84     	; 0x193a <Init_All_Cards+0x16>
    198e:	df 91       	pop	r29
    1990:	cf 91       	pop	r28
    1992:	1f 91       	pop	r17
    1994:	0f 91       	pop	r16
    1996:	ff 90       	pop	r15
    1998:	ef 90       	pop	r14
    199a:	08 95       	ret

0000199c <PulseStop>:
    199c:	1e d1       	rcall	.+572    	; 0x1bda <Stop_Timer_100us>
    199e:	10 92 08 01 	sts	0x0108, r1	; 0x800108 <__TEXT_REGION_LENGTH__+0x700108>
    19a2:	10 92 02 01 	sts	0x0102, r1	; 0x800102 <__TEXT_REGION_LENGTH__+0x700102>
    19a6:	a1 98       	cbi	0x14, 1	; 20
    19a8:	08 95       	ret

000019aa <Init>:
    19aa:	cf 93       	push	r28
    19ac:	df 93       	push	r29
    19ae:	cd b7       	in	r28, 0x3d	; 61
    19b0:	de b7       	in	r29, 0x3e	; 62
    19b2:	28 97       	sbiw	r28, 0x08	; 8
    19b4:	0f b6       	in	r0, 0x3f	; 63
    19b6:	f8 94       	cli
    19b8:	de bf       	out	0x3e, r29	; 62
    19ba:	0f be       	out	0x3f, r0	; 63
    19bc:	cd bf       	out	0x3d, r28	; 61
    19be:	9e e0       	ldi	r25, 0x0E	; 14
    19c0:	88 e1       	ldi	r24, 0x18	; 24
    19c2:	0f b6       	in	r0, 0x3f	; 63
    19c4:	f8 94       	cli
    19c6:	a8 95       	wdr
    19c8:	80 93 60 00 	sts	0x0060, r24	; 0x800060 <__TEXT_REGION_LENGTH__+0x700060>
    19cc:	0f be       	out	0x3f, r0	; 63
    19ce:	90 93 60 00 	sts	0x0060, r25	; 0x800060 <__TEXT_REGION_LENGTH__+0x700060>
    19d2:	a8 95       	wdr
    19d4:	c0 d0       	rcall	.+384    	; 0x1b56 <Init_Timer_1ms>
    19d6:	dd d0       	rcall	.+442    	; 0x1b92 <Init_Timer_100us>
    19d8:	0c d1       	rcall	.+536    	; 0x1bf2 <Init_Counter_100us>
    19da:	e0 df       	rcall	.-64     	; 0x199c <PulseStop>
    19dc:	19 de       	rcall	.-974    	; 0x1610 <Init_IO_Pins>
    19de:	8f e4       	ldi	r24, 0x4F	; 79
    19e0:	90 e0       	ldi	r25, 0x00	; 0
    19e2:	0e 94 30 1f 	call	0x3e60	; 0x3e60 <eeprom_read_word>
    19e6:	05 97       	sbiw	r24, 0x05	; 5
    19e8:	31 f0       	breq	.+12     	; 0x19f6 <Init+0x4c>
    19ea:	a3 9a       	sbi	0x14, 3	; 20
    19ec:	a2 9a       	sbi	0x14, 2	; 20
    19ee:	a0 9a       	sbi	0x14, 0	; 20
    19f0:	a1 9a       	sbi	0x14, 1	; 20
    19f2:	b2 de       	rcall	.-668    	; 0x1758 <EEPROM_default_Values>
    19f4:	a8 95       	wdr
    19f6:	78 94       	sei
    19f8:	8b d3       	rcall	.+1814   	; 0x2110 <TerminalInit>
    19fa:	12 df       	rcall	.-476    	; 0x1820 <EEPROM_last_Values>
    19fc:	10 92 41 05 	sts	0x0541, r1	; 0x800541 <current_source_enabled>
    1a00:	8d e7       	ldi	r24, 0x7D	; 125
    1a02:	90 e0       	ldi	r25, 0x00	; 0
    1a04:	0e 94 68 1c 	call	0x38d0	; 0x38d0 <USART_SPI_InitBaudrate>
    1a08:	88 e0       	ldi	r24, 0x08	; 8
    1a0a:	e5 e0       	ldi	r30, 0x05	; 5
    1a0c:	f2 e0       	ldi	r31, 0x02	; 2
    1a0e:	de 01       	movw	r26, r28
    1a10:	11 96       	adiw	r26, 0x01	; 1
    1a12:	01 90       	ld	r0, Z+
    1a14:	0d 92       	st	X+, r0
    1a16:	8a 95       	dec	r24
    1a18:	e1 f7       	brne	.-8      	; 0x1a12 <Init+0x68>
    1a1a:	be 01       	movw	r22, r28
    1a1c:	6f 5f       	subi	r22, 0xFF	; 255
    1a1e:	7f 4f       	sbci	r23, 0xFF	; 255
    1a20:	8e e4       	ldi	r24, 0x4E	; 78
    1a22:	95 e0       	ldi	r25, 0x05	; 5
    1a24:	7f df       	rcall	.-258    	; 0x1924 <Init_All_Cards>
    1a26:	56 de       	rcall	.-852    	; 0x16d4 <Lauflicht>
    1a28:	28 96       	adiw	r28, 0x08	; 8
    1a2a:	0f b6       	in	r0, 0x3f	; 63
    1a2c:	f8 94       	cli
    1a2e:	de bf       	out	0x3e, r29	; 62
    1a30:	0f be       	out	0x3f, r0	; 63
    1a32:	cd bf       	out	0x3d, r28	; 61
    1a34:	df 91       	pop	r29
    1a36:	cf 91       	pop	r28
    1a38:	08 95       	ret

00001a3a <main>:
    1a3a:	b7 df       	rcall	.-146    	; 0x19aa <Init>
    1a3c:	0e 94 a8 1b 	call	0x3750	; 0x3750 <UART0ClearRx>
    1a40:	a8 95       	wdr
    1a42:	0e 94 c8 1a 	call	0x3590	; 0x3590 <TerminalCheckCommand>
    1a46:	80 91 2a 04 	lds	r24, 0x042A	; 0x80042a <interrupt_1ms>
    1a4a:	8a 30       	cpi	r24, 0x0A	; 10
    1a4c:	40 f0       	brcs	.+16     	; 0x1a5e <main+0x24>
    1a4e:	10 92 2a 04 	sts	0x042A, r1	; 0x80042a <interrupt_1ms>
    1a52:	80 91 49 05 	lds	r24, 0x0549	; 0x800549 <interrupt_10hz>
    1a56:	8f 5f       	subi	r24, 0xFF	; 255
    1a58:	80 93 49 05 	sts	0x0549, r24	; 0x800549 <interrupt_10hz>
    1a5c:	f1 cf       	rjmp	.-30     	; 0x1a40 <main+0x6>
    1a5e:	80 91 49 05 	lds	r24, 0x0549	; 0x800549 <interrupt_10hz>
    1a62:	8a 30       	cpi	r24, 0x0A	; 10
    1a64:	d8 f0       	brcs	.+54     	; 0x1a9c <main+0x62>
    1a66:	10 92 49 05 	sts	0x0549, r1	; 0x800549 <interrupt_10hz>
    1a6a:	80 91 31 04 	lds	r24, 0x0431	; 0x800431 <interrupt_1hz>
    1a6e:	8f 5f       	subi	r24, 0xFF	; 255
    1a70:	80 93 31 04 	sts	0x0431, r24	; 0x800431 <interrupt_1hz>
    1a74:	80 91 4a 05 	lds	r24, 0x054A	; 0x80054a <uart0_active_timer>
    1a78:	88 23       	and	r24, r24
    1a7a:	29 f0       	breq	.+10     	; 0x1a86 <main+0x4c>
    1a7c:	81 50       	subi	r24, 0x01	; 1
    1a7e:	80 93 4a 05 	sts	0x054A, r24	; 0x80054a <uart0_active_timer>
    1a82:	a0 9a       	sbi	0x14, 0	; 20
    1a84:	01 c0       	rjmp	.+2      	; 0x1a88 <main+0x4e>
    1a86:	a0 98       	cbi	0x14, 0	; 20
    1a88:	80 91 41 05 	lds	r24, 0x0541	; 0x800541 <current_source_enabled>
    1a8c:	88 23       	and	r24, r24
    1a8e:	19 f0       	breq	.+6      	; 0x1a96 <main+0x5c>
    1a90:	a3 9a       	sbi	0x14, 3	; 20
    1a92:	a2 9a       	sbi	0x14, 2	; 20
    1a94:	d5 cf       	rjmp	.-86     	; 0x1a40 <main+0x6>
    1a96:	a3 9a       	sbi	0x14, 3	; 20
    1a98:	a2 98       	cbi	0x14, 2	; 20
    1a9a:	d2 cf       	rjmp	.-92     	; 0x1a40 <main+0x6>
    1a9c:	80 91 31 04 	lds	r24, 0x0431	; 0x800431 <interrupt_1hz>
    1aa0:	8a 30       	cpi	r24, 0x0A	; 10
    1aa2:	70 f2       	brcs	.-100    	; 0x1a40 <main+0x6>
    1aa4:	10 92 31 04 	sts	0x0431, r1	; 0x800431 <interrupt_1hz>
    1aa8:	cb cf       	rjmp	.-106    	; 0x1a40 <main+0x6>

00001aaa <PulseStart_stdTTA>:
    1aaa:	97 d0       	rcall	.+302    	; 0x1bda <Stop_Timer_100us>
    1aac:	81 e0       	ldi	r24, 0x01	; 1
    1aae:	80 93 da 04 	sts	0x04DA, r24	; 0x8004da <flag_std_TTA>
    1ab2:	10 92 29 04 	sts	0x0429, r1	; 0x800429 <flag_DPA_TTA>
    1ab6:	10 92 4c 05 	sts	0x054C, r1	; 0x80054c <flag_HPP_TTA>
    1aba:	b9 d0       	rcall	.+370    	; 0x1c2e <Setup_Counter_for_stdTTA>
    1abc:	a1 9a       	sbi	0x14, 1	; 20
    1abe:	80 91 2b 04 	lds	r24, 0x042B	; 0x80042b <heat_pulse_length>
    1ac2:	90 91 2c 04 	lds	r25, 0x042C	; 0x80042c <heat_pulse_length+0x1>
    1ac6:	a0 91 2d 04 	lds	r26, 0x042D	; 0x80042d <heat_pulse_length+0x2>
    1aca:	b0 91 2e 04 	lds	r27, 0x042E	; 0x80042e <heat_pulse_length+0x3>
    1ace:	89 2b       	or	r24, r25
    1ad0:	8a 2b       	or	r24, r26
    1ad2:	8b 2b       	or	r24, r27
    1ad4:	21 f0       	breq	.+8      	; 0x1ade <PulseStart_stdTTA+0x34>
    1ad6:	80 91 4b 05 	lds	r24, 0x054B	; 0x80054b <pulse_output_register>
    1ada:	80 93 02 01 	sts	0x0102, r24	; 0x800102 <__TEXT_REGION_LENGTH__+0x700102>
    1ade:	80 91 4b 05 	lds	r24, 0x054B	; 0x80054b <pulse_output_register>
    1ae2:	80 93 08 01 	sts	0x0108, r24	; 0x800108 <__TEXT_REGION_LENGTH__+0x700108>
    1ae6:	73 c0       	rjmp	.+230    	; 0x1bce <Start_Timer_100us>
    1ae8:	08 95       	ret

00001aea <PulseStart_Sensitivity>:
    1aea:	a1 9a       	sbi	0x14, 1	; 20
    1aec:	80 91 4b 05 	lds	r24, 0x054B	; 0x80054b <pulse_output_register>
    1af0:	80 93 08 01 	sts	0x0108, r24	; 0x800108 <__TEXT_REGION_LENGTH__+0x700108>
    1af4:	08 95       	ret

00001af6 <PulseStart_DPA_TTA_HighStart>:
// Deterministic Pulses with Heat PrePulse (edit Maxi 12.09.2019)		  
//													  ()
// -------------------------------------------------------------

void PulseStart_DPA_TTA_HighStart()
{
    1af6:	71 d0       	rcall	.+226    	; 0x1bda <Stop_Timer_100us>
    1af8:	10 92 29 04 	sts	0x0429, r1	; 0x800429 <flag_DPA_TTA>
    1afc:	10 92 da 04 	sts	0x04DA, r1	; 0x8004da <flag_std_TTA>
    1b00:	81 e0       	ldi	r24, 0x01	; 1
    1b02:	80 93 4c 05 	sts	0x054C, r24	; 0x80054c <flag_HPP_TTA>
    1b06:	88 d1       	rcall	.+784    	; 0x1e18 <Setup_Counter_for_DPA_TTA_HighLevel>
    1b08:	a1 9a       	sbi	0x14, 1	; 20
    1b0a:	80 91 4b 05 	lds	r24, 0x054B	; 0x80054b <pulse_output_register>
    1b0e:	80 93 02 01 	sts	0x0102, r24	; 0x800102 <__TEXT_REGION_LENGTH__+0x700102>
    1b12:	80 91 4b 05 	lds	r24, 0x054B	; 0x80054b <pulse_output_register>
    1b16:	80 93 08 01 	sts	0x0108, r24	; 0x800108 <__TEXT_REGION_LENGTH__+0x700108>
    1b1a:	59 c0       	rjmp	.+178    	; 0x1bce <Start_Timer_100us>
    1b1c:	08 95       	ret

00001b1e <PulseStart_DPA_TTA_fromHPP>:
    1b1e:	5d d0       	rcall	.+186    	; 0x1bda <Stop_Timer_100us>
    1b20:	81 e0       	ldi	r24, 0x01	; 1
    1b22:	80 93 29 04 	sts	0x0429, r24	; 0x800429 <flag_DPA_TTA>
    1b26:	10 92 da 04 	sts	0x04DA, r1	; 0x8004da <flag_std_TTA>
    1b2a:	10 92 4c 05 	sts	0x054C, r1	; 0x80054c <flag_HPP_TTA>
    1b2e:	41 d1       	rcall	.+642    	; 0x1db2 <Setup_Counter_for_DPA_TTA>
    1b30:	a1 9a       	sbi	0x14, 1	; 20
    1b32:	4d c0       	rjmp	.+154    	; 0x1bce <Start_Timer_100us>
    1b34:	08 95       	ret

00001b36 <PulseStart_PrePulse>:
    1b36:	32 df       	rcall	.-412    	; 0x199c <PulseStop>
    1b38:	80 91 4b 05 	lds	r24, 0x054B	; 0x80054b <pulse_output_register>
    1b3c:	80 93 08 01 	sts	0x0108, r24	; 0x800108 <__TEXT_REGION_LENGTH__+0x700108>
    1b40:	2f ef       	ldi	r18, 0xFF	; 255
    1b42:	89 ef       	ldi	r24, 0xF9	; 249
    1b44:	90 e0       	ldi	r25, 0x00	; 0
    1b46:	21 50       	subi	r18, 0x01	; 1
    1b48:	80 40       	sbci	r24, 0x00	; 0
    1b4a:	90 40       	sbci	r25, 0x00	; 0
    1b4c:	e1 f7       	brne	.-8      	; 0x1b46 <PulseStart_PrePulse+0x10>
    1b4e:	00 c0       	rjmp	.+0      	; 0x1b50 <PulseStart_PrePulse+0x1a>
    1b50:	00 00       	nop
    1b52:	24 cf       	rjmp	.-440    	; 0x199c <PulseStop>
    1b54:	08 95       	ret

00001b56 <Init_Timer_1ms>:
		-ORC2A = 249 ( 250 * 4µs = 1ms (Overflow jede ms))
	 
		-OCIE2A = 1 (If ORCA2 is reached, Interrupt and set to 0 [every 1ms])
		*/	
		
	TCCR2A = _BV(WGM21) | _BV(WGM20);
    1b56:	83 e0       	ldi	r24, 0x03	; 3
    1b58:	80 93 b0 00 	sts	0x00B0, r24	; 0x8000b0 <__TEXT_REGION_LENGTH__+0x7000b0>
	TCCR2B = _BV(CS22)  | _BV(WGM22);
    1b5c:	8c e0       	ldi	r24, 0x0C	; 12
    1b5e:	80 93 b1 00 	sts	0x00B1, r24	; 0x8000b1 <__TEXT_REGION_LENGTH__+0x7000b1>
	OCR2A = 249;							//Compare at 249 => 1msec
    1b62:	89 ef       	ldi	r24, 0xF9	; 249
    1b64:	80 93 b3 00 	sts	0x00B3, r24	; 0x8000b3 <__TEXT_REGION_LENGTH__+0x7000b3>
	TIMSK2 = _BV(OCIE2A);					//Compare interrupt enable
    1b68:	82 e0       	ldi	r24, 0x02	; 2
    1b6a:	80 93 70 00 	sts	0x0070, r24	; 0x800070 <__TEXT_REGION_LENGTH__+0x700070>
    1b6e:	08 95       	ret

00001b70 <__vector_13>:
	*/
}

//Interrupt
ISR(TIMER2_COMPA_vect)
{
    1b70:	1f 92       	push	r1
    1b72:	0f 92       	push	r0
    1b74:	0f b6       	in	r0, 0x3f	; 63
    1b76:	0f 92       	push	r0
    1b78:	11 24       	eor	r1, r1
    1b7a:	8f 93       	push	r24
	//Increment internal Counter
	interrupt_1ms++;
    1b7c:	80 91 2a 04 	lds	r24, 0x042A	; 0x80042a <interrupt_1ms>
    1b80:	8f 5f       	subi	r24, 0xFF	; 255
    1b82:	80 93 2a 04 	sts	0x042A, r24	; 0x80042a <interrupt_1ms>
}
    1b86:	8f 91       	pop	r24
    1b88:	0f 90       	pop	r0
    1b8a:	0f be       	out	0x3f, r0	; 63
    1b8c:	0f 90       	pop	r0
    1b8e:	1f 90       	pop	r1
    1b90:	18 95       	reti

00001b92 <Init_Timer_100us>:
	  -CS2   2:0 = 0 --> Prescaler nicht definiert (Später 1). Clock läuft nicht!
	 
	  -ICR4 = 1599  --> Bei 16MHz entspricht Überlauf nach 100µs
	  -OCR4C = 16    --> Bei Match wird Pin H4 gecleart (nach 1µs)
	 */		
	TCCR1B = _BV(WGM13) | _BV(WGM12); 
    1b92:	88 e1       	ldi	r24, 0x18	; 24
    1b94:	80 93 81 00 	sts	0x0081, r24	; 0x800081 <__TEXT_REGION_LENGTH__+0x700081>
	TCCR1A = _BV(COM1A1) | _BV(WGM11);  // | _BV(COM4B1); //COM4B1 kann weggelassen werden
    1b98:	82 e8       	ldi	r24, 0x82	; 130
    1b9a:	80 93 80 00 	sts	0x0080, r24	; 0x800080 <__TEXT_REGION_LENGTH__+0x700080>
	ICR1 = 1599;
    1b9e:	8f e3       	ldi	r24, 0x3F	; 63
    1ba0:	96 e0       	ldi	r25, 0x06	; 6
    1ba2:	90 93 87 00 	sts	0x0087, r25	; 0x800087 <__TEXT_REGION_LENGTH__+0x700087>
    1ba6:	80 93 86 00 	sts	0x0086, r24	; 0x800086 <__TEXT_REGION_LENGTH__+0x700086>
	OCR1A = 16; //Compare at 1 => 1usec pulse
    1baa:	80 e1       	ldi	r24, 0x10	; 16
    1bac:	90 e0       	ldi	r25, 0x00	; 0
    1bae:	90 93 89 00 	sts	0x0089, r25	; 0x800089 <__TEXT_REGION_LENGTH__+0x700089>
    1bb2:	80 93 88 00 	sts	0x0088, r24	; 0x800088 <__TEXT_REGION_LENGTH__+0x700088>
	OCR1B = -1; //Unused
    1bb6:	8f ef       	ldi	r24, 0xFF	; 255
    1bb8:	9f ef       	ldi	r25, 0xFF	; 255
    1bba:	90 93 8b 00 	sts	0x008B, r25	; 0x80008b <__TEXT_REGION_LENGTH__+0x70008b>
    1bbe:	80 93 8a 00 	sts	0x008A, r24	; 0x80008a <__TEXT_REGION_LENGTH__+0x70008a>
	OCR1C = -1; //Unused
    1bc2:	90 93 8d 00 	sts	0x008D, r25	; 0x80008d <__TEXT_REGION_LENGTH__+0x70008d>
    1bc6:	80 93 8c 00 	sts	0x008C, r24	; 0x80008c <__TEXT_REGION_LENGTH__+0x70008c>
	
	//Counter Pin as Output
	set_out(CounterPin);
    1bca:	25 9a       	sbi	0x04, 5	; 4
    1bcc:	08 95       	ret

00001bce <Start_Timer_100us>:
}

//Start Clock
void Start_Timer_100us(){
    //Starts when a pre scaler is set to an Value (One is chosen)
    _set_bit(TCCR1B, CS10);                     //Timer 1 run
    1bce:	e1 e8       	ldi	r30, 0x81	; 129
    1bd0:	f0 e0       	ldi	r31, 0x00	; 0
    1bd2:	80 81       	ld	r24, Z
    1bd4:	81 60       	ori	r24, 0x01	; 1
    1bd6:	80 83       	st	Z, r24
    1bd8:	08 95       	ret

00001bda <Stop_Timer_100us>:

//Stop Clock
void Stop_Timer_100us()
{
	//Remove prescalar to stop the Timer
	_clear_bit(TCCR1B, CS10);                   //Timer 1 stop
    1bda:	e1 e8       	ldi	r30, 0x81	; 129
    1bdc:	f0 e0       	ldi	r31, 0x00	; 0
    1bde:	80 81       	ld	r24, Z
    1be0:	8e 7f       	andi	r24, 0xFE	; 254
    1be2:	80 83       	st	Z, r24
	//Clear counter register to 0xFFFF
	TCNT1 = -1;
    1be4:	8f ef       	ldi	r24, 0xFF	; 255
    1be6:	9f ef       	ldi	r25, 0xFF	; 255
    1be8:	90 93 85 00 	sts	0x0085, r25	; 0x800085 <__TEXT_REGION_LENGTH__+0x700085>
    1bec:	80 93 84 00 	sts	0x0084, r24	; 0x800084 <__TEXT_REGION_LENGTH__+0x700084>
    1bf0:	08 95       	ret

00001bf2 <Init_Counter_100us>:
	 
	  -ICR5 = 60000  --> Überlauf nach 1 Minute
	  -OCR5A = 1    --> Bei Match wird Pin H4 gecleart (nach 1ms)[Genau so B und C]
						Der Wert wird nachher geändert
	 */		
	TCCR5B = _BV(WGM53) | _BV(WGM52) | _BV(CS52) | _BV(CS51) | _BV(CS50); //Fast PWM mode, ICR5 -> top, clock T5
    1bf2:	8f e1       	ldi	r24, 0x1F	; 31
    1bf4:	80 93 21 01 	sts	0x0121, r24	; 0x800121 <__TEXT_REGION_LENGTH__+0x700121>
	ICR5 = 60000; //60000;
    1bf8:	80 e6       	ldi	r24, 0x60	; 96
    1bfa:	9a ee       	ldi	r25, 0xEA	; 234
    1bfc:	90 93 27 01 	sts	0x0127, r25	; 0x800127 <__TEXT_REGION_LENGTH__+0x700127>
    1c00:	80 93 26 01 	sts	0x0126, r24	; 0x800126 <__TEXT_REGION_LENGTH__+0x700126>
	TCCR5A = _BV(WGM51); //Clear on match
    1c04:	82 e0       	ldi	r24, 0x02	; 2
    1c06:	80 93 20 01 	sts	0x0120, r24	; 0x800120 <__TEXT_REGION_LENGTH__+0x700120>
	TIMSK5 = _BV(OCIE5B) | _BV(OCIE5A) | _BV(OCIE5C) | _BV(TOIE5); //Compare interrupt enable + Overflow Interrupt
    1c0a:	8f e0       	ldi	r24, 0x0F	; 15
    1c0c:	80 93 73 00 	sts	0x0073, r24	; 0x800073 <__TEXT_REGION_LENGTH__+0x700073>
	OCR5A = 1; //Compare at 1 => 1msec pulse
    1c10:	81 e0       	ldi	r24, 0x01	; 1
    1c12:	90 e0       	ldi	r25, 0x00	; 0
    1c14:	90 93 29 01 	sts	0x0129, r25	; 0x800129 <__TEXT_REGION_LENGTH__+0x700129>
    1c18:	80 93 28 01 	sts	0x0128, r24	; 0x800128 <__TEXT_REGION_LENGTH__+0x700128>
	OCR5B = 1; //Compare at 1 => 1msec pulse
    1c1c:	90 93 2b 01 	sts	0x012B, r25	; 0x80012b <__TEXT_REGION_LENGTH__+0x70012b>
    1c20:	80 93 2a 01 	sts	0x012A, r24	; 0x80012a <__TEXT_REGION_LENGTH__+0x70012a>
	OCR5C = 1; //Compare at 1 => 1msec pulse
    1c24:	90 93 2d 01 	sts	0x012D, r25	; 0x80012d <__TEXT_REGION_LENGTH__+0x70012d>
    1c28:	80 93 2c 01 	sts	0x012C, r24	; 0x80012c <__TEXT_REGION_LENGTH__+0x70012c>
    1c2c:	08 95       	ret

00001c2e <Setup_Counter_for_stdTTA>:

//Setup for std. TTA
void Setup_Counter_for_stdTTA()
{
	//Reset overflow and Counter
	TCNT5 = 59999;      //Timer 5 reset
    1c2e:	8f e5       	ldi	r24, 0x5F	; 95
    1c30:	9a ee       	ldi	r25, 0xEA	; 234
    1c32:	90 93 25 01 	sts	0x0125, r25	; 0x800125 <__TEXT_REGION_LENGTH__+0x700125>
    1c36:	80 93 24 01 	sts	0x0124, r24	; 0x800124 <__TEXT_REGION_LENGTH__+0x700124>
	ICR5 = 60000;		//6000ms = 6s
    1c3a:	80 e6       	ldi	r24, 0x60	; 96
    1c3c:	9a ee       	ldi	r25, 0xEA	; 234
    1c3e:	90 93 27 01 	sts	0x0127, r25	; 0x800127 <__TEXT_REGION_LENGTH__+0x700127>
    1c42:	80 93 26 01 	sts	0x0126, r24	; 0x800126 <__TEXT_REGION_LENGTH__+0x700126>
	
	// *10 wegen umstieg von 1ms auf 100µs
	if (heat_pulse_length < 6000)
    1c46:	80 91 2b 04 	lds	r24, 0x042B	; 0x80042b <heat_pulse_length>
    1c4a:	90 91 2c 04 	lds	r25, 0x042C	; 0x80042c <heat_pulse_length+0x1>
    1c4e:	a0 91 2d 04 	lds	r26, 0x042D	; 0x80042d <heat_pulse_length+0x2>
    1c52:	b0 91 2e 04 	lds	r27, 0x042E	; 0x80042e <heat_pulse_length+0x3>
    1c56:	80 37       	cpi	r24, 0x70	; 112
    1c58:	27 e1       	ldi	r18, 0x17	; 23
    1c5a:	92 07       	cpc	r25, r18
    1c5c:	a1 05       	cpc	r26, r1
    1c5e:	b1 05       	cpc	r27, r1
    1c60:	50 f5       	brcc	.+84     	; 0x1cb6 <Setup_Counter_for_stdTTA+0x88>
	{
		OCR5A = heat_pulse_length * 10;
    1c62:	9c 01       	movw	r18, r24
    1c64:	22 0f       	add	r18, r18
    1c66:	33 1f       	adc	r19, r19
    1c68:	88 0f       	add	r24, r24
    1c6a:	99 1f       	adc	r25, r25
    1c6c:	88 0f       	add	r24, r24
    1c6e:	99 1f       	adc	r25, r25
    1c70:	88 0f       	add	r24, r24
    1c72:	99 1f       	adc	r25, r25
    1c74:	82 0f       	add	r24, r18
    1c76:	93 1f       	adc	r25, r19
    1c78:	90 93 29 01 	sts	0x0129, r25	; 0x800129 <__TEXT_REGION_LENGTH__+0x700129>
    1c7c:	80 93 28 01 	sts	0x0128, r24	; 0x800128 <__TEXT_REGION_LENGTH__+0x700128>
		heat_pulse_lastcount = heat_pulse_length * 10;
    1c80:	20 91 2b 04 	lds	r18, 0x042B	; 0x80042b <heat_pulse_length>
    1c84:	30 91 2c 04 	lds	r19, 0x042C	; 0x80042c <heat_pulse_length+0x1>
    1c88:	c9 01       	movw	r24, r18
    1c8a:	88 0f       	add	r24, r24
    1c8c:	99 1f       	adc	r25, r25
    1c8e:	22 0f       	add	r18, r18
    1c90:	33 1f       	adc	r19, r19
    1c92:	22 0f       	add	r18, r18
    1c94:	33 1f       	adc	r19, r19
    1c96:	22 0f       	add	r18, r18
    1c98:	33 1f       	adc	r19, r19
    1c9a:	82 0f       	add	r24, r18
    1c9c:	93 1f       	adc	r25, r19
    1c9e:	90 93 6a 05 	sts	0x056A, r25	; 0x80056a <heat_pulse_lastcount+0x1>
    1ca2:	80 93 69 05 	sts	0x0569, r24	; 0x800569 <heat_pulse_lastcount>
		heat_pulse_precount = 0;
    1ca6:	10 92 68 05 	sts	0x0568, r1	; 0x800568 <heat_pulse_precount>
			
		//Spannungsmessung 5ms vor Puls-Ende
		OCR5C = (heat_pulse_length - 5)* 10;
    1caa:	c2 97       	sbiw	r24, 0x32	; 50
    1cac:	90 93 2d 01 	sts	0x012D, r25	; 0x80012d <__TEXT_REGION_LENGTH__+0x70012d>
    1cb0:	80 93 2c 01 	sts	0x012C, r24	; 0x80012c <__TEXT_REGION_LENGTH__+0x70012c>
    1cb4:	25 c0       	rjmp	.+74     	; 0x1d00 <Setup_Counter_for_stdTTA+0xd2>
	}
	else
	{
		OCR5A = -1;
    1cb6:	8f ef       	ldi	r24, 0xFF	; 255
    1cb8:	9f ef       	ldi	r25, 0xFF	; 255
    1cba:	90 93 29 01 	sts	0x0129, r25	; 0x800129 <__TEXT_REGION_LENGTH__+0x700129>
    1cbe:	80 93 28 01 	sts	0x0128, r24	; 0x800128 <__TEXT_REGION_LENGTH__+0x700128>
		heat_pulse_lastcount = (heat_pulse_length % 6000) * 10;
    1cc2:	60 91 2b 04 	lds	r22, 0x042B	; 0x80042b <heat_pulse_length>
    1cc6:	70 91 2c 04 	lds	r23, 0x042C	; 0x80042c <heat_pulse_length+0x1>
    1cca:	80 91 2d 04 	lds	r24, 0x042D	; 0x80042d <heat_pulse_length+0x2>
    1cce:	90 91 2e 04 	lds	r25, 0x042E	; 0x80042e <heat_pulse_length+0x3>
    1cd2:	20 e7       	ldi	r18, 0x70	; 112
    1cd4:	37 e1       	ldi	r19, 0x17	; 23
    1cd6:	40 e0       	ldi	r20, 0x00	; 0
    1cd8:	50 e0       	ldi	r21, 0x00	; 0
    1cda:	0e 94 3a 1e 	call	0x3c74	; 0x3c74 <__udivmodsi4>
    1cde:	ab 01       	movw	r20, r22
    1ce0:	44 0f       	add	r20, r20
    1ce2:	55 1f       	adc	r21, r21
    1ce4:	66 0f       	add	r22, r22
    1ce6:	77 1f       	adc	r23, r23
    1ce8:	66 0f       	add	r22, r22
    1cea:	77 1f       	adc	r23, r23
    1cec:	66 0f       	add	r22, r22
    1cee:	77 1f       	adc	r23, r23
    1cf0:	64 0f       	add	r22, r20
    1cf2:	75 1f       	adc	r23, r21
    1cf4:	70 93 6a 05 	sts	0x056A, r23	; 0x80056a <heat_pulse_lastcount+0x1>
    1cf8:	60 93 69 05 	sts	0x0569, r22	; 0x800569 <heat_pulse_lastcount>
		heat_pulse_precount = (heat_pulse_length) / 6000; //Aufrunden
    1cfc:	20 93 68 05 	sts	0x0568, r18	; 0x800568 <heat_pulse_precount>
			
	}
		
	if (measure_pulse_length < 6000)
    1d00:	80 91 2c 05 	lds	r24, 0x052C	; 0x80052c <measure_pulse_length>
    1d04:	90 91 2d 05 	lds	r25, 0x052D	; 0x80052d <measure_pulse_length+0x1>
    1d08:	a0 91 2e 05 	lds	r26, 0x052E	; 0x80052e <measure_pulse_length+0x2>
    1d0c:	b0 91 2f 05 	lds	r27, 0x052F	; 0x80052f <measure_pulse_length+0x3>
    1d10:	80 37       	cpi	r24, 0x70	; 112
    1d12:	27 e1       	ldi	r18, 0x17	; 23
    1d14:	92 07       	cpc	r25, r18
    1d16:	a1 05       	cpc	r26, r1
    1d18:	b1 05       	cpc	r27, r1
    1d1a:	28 f5       	brcc	.+74     	; 0x1d66 <Setup_Counter_for_stdTTA+0x138>
	{
		OCR5B = (measure_pulse_length) * 10;
    1d1c:	9c 01       	movw	r18, r24
    1d1e:	22 0f       	add	r18, r18
    1d20:	33 1f       	adc	r19, r19
    1d22:	88 0f       	add	r24, r24
    1d24:	99 1f       	adc	r25, r25
    1d26:	88 0f       	add	r24, r24
    1d28:	99 1f       	adc	r25, r25
    1d2a:	88 0f       	add	r24, r24
    1d2c:	99 1f       	adc	r25, r25
    1d2e:	82 0f       	add	r24, r18
    1d30:	93 1f       	adc	r25, r19
    1d32:	90 93 2b 01 	sts	0x012B, r25	; 0x80012b <__TEXT_REGION_LENGTH__+0x70012b>
    1d36:	80 93 2a 01 	sts	0x012A, r24	; 0x80012a <__TEXT_REGION_LENGTH__+0x70012a>
		measure_pulse_lastcount = measure_pulse_length * 10;
    1d3a:	80 91 2c 05 	lds	r24, 0x052C	; 0x80052c <measure_pulse_length>
    1d3e:	90 91 2d 05 	lds	r25, 0x052D	; 0x80052d <measure_pulse_length+0x1>
    1d42:	9c 01       	movw	r18, r24
    1d44:	22 0f       	add	r18, r18
    1d46:	33 1f       	adc	r19, r19
    1d48:	88 0f       	add	r24, r24
    1d4a:	99 1f       	adc	r25, r25
    1d4c:	88 0f       	add	r24, r24
    1d4e:	99 1f       	adc	r25, r25
    1d50:	88 0f       	add	r24, r24
    1d52:	99 1f       	adc	r25, r25
    1d54:	82 0f       	add	r24, r18
    1d56:	93 1f       	adc	r25, r19
    1d58:	90 93 6d 05 	sts	0x056D, r25	; 0x80056d <measure_pulse_lastcount+0x1>
    1d5c:	80 93 6c 05 	sts	0x056C, r24	; 0x80056c <measure_pulse_lastcount>
		measure_pulse_precount = 0;
    1d60:	10 92 6b 05 	sts	0x056B, r1	; 0x80056b <measure_pulse_precount>
    1d64:	08 95       	ret
	}
	else
	{
		OCR5B = -1;
    1d66:	8f ef       	ldi	r24, 0xFF	; 255
    1d68:	9f ef       	ldi	r25, 0xFF	; 255
    1d6a:	90 93 2b 01 	sts	0x012B, r25	; 0x80012b <__TEXT_REGION_LENGTH__+0x70012b>
    1d6e:	80 93 2a 01 	sts	0x012A, r24	; 0x80012a <__TEXT_REGION_LENGTH__+0x70012a>
		measure_pulse_lastcount = (measure_pulse_length % 6000) * 10;
    1d72:	60 91 2c 05 	lds	r22, 0x052C	; 0x80052c <measure_pulse_length>
    1d76:	70 91 2d 05 	lds	r23, 0x052D	; 0x80052d <measure_pulse_length+0x1>
    1d7a:	80 91 2e 05 	lds	r24, 0x052E	; 0x80052e <measure_pulse_length+0x2>
    1d7e:	90 91 2f 05 	lds	r25, 0x052F	; 0x80052f <measure_pulse_length+0x3>
    1d82:	20 e7       	ldi	r18, 0x70	; 112
    1d84:	37 e1       	ldi	r19, 0x17	; 23
    1d86:	40 e0       	ldi	r20, 0x00	; 0
    1d88:	50 e0       	ldi	r21, 0x00	; 0
    1d8a:	0e 94 3a 1e 	call	0x3c74	; 0x3c74 <__udivmodsi4>
    1d8e:	ab 01       	movw	r20, r22
    1d90:	44 0f       	add	r20, r20
    1d92:	55 1f       	adc	r21, r21
    1d94:	66 0f       	add	r22, r22
    1d96:	77 1f       	adc	r23, r23
    1d98:	66 0f       	add	r22, r22
    1d9a:	77 1f       	adc	r23, r23
    1d9c:	66 0f       	add	r22, r22
    1d9e:	77 1f       	adc	r23, r23
    1da0:	64 0f       	add	r22, r20
    1da2:	75 1f       	adc	r23, r21
    1da4:	70 93 6d 05 	sts	0x056D, r23	; 0x80056d <measure_pulse_lastcount+0x1>
    1da8:	60 93 6c 05 	sts	0x056C, r22	; 0x80056c <measure_pulse_lastcount>
		measure_pulse_precount = (measure_pulse_length) / 6000;
    1dac:	20 93 6b 05 	sts	0x056B, r18	; 0x80056b <measure_pulse_precount>
    1db0:	08 95       	ret

00001db2 <Setup_Counter_for_DPA_TTA>:
	Explanation:
	-HP on at Overflow
	-HP off at OCR5A
	-MP always on
	*/
	ICR5 = 2 * deterministic_pulse_length - 1;		//Overflow at periode: 2*length - 1bit (start @ 0 not 1)
    1db2:	80 91 27 04 	lds	r24, 0x0427	; 0x800427 <deterministic_pulse_length>
    1db6:	90 91 28 04 	lds	r25, 0x0428	; 0x800428 <deterministic_pulse_length+0x1>
    1dba:	88 0f       	add	r24, r24
    1dbc:	99 1f       	adc	r25, r25
    1dbe:	01 97       	sbiw	r24, 0x01	; 1
    1dc0:	90 93 27 01 	sts	0x0127, r25	; 0x800127 <__TEXT_REGION_LENGTH__+0x700127>
    1dc4:	80 93 26 01 	sts	0x0126, r24	; 0x800126 <__TEXT_REGION_LENGTH__+0x700126>
	TCNT5 = 2 * deterministic_pulse_length - 2;		//Counter starting on Clock before (Interrupts not active first time)
    1dc8:	80 91 27 04 	lds	r24, 0x0427	; 0x800427 <deterministic_pulse_length>
    1dcc:	90 91 28 04 	lds	r25, 0x0428	; 0x800428 <deterministic_pulse_length+0x1>
    1dd0:	81 50       	subi	r24, 0x01	; 1
    1dd2:	90 48       	sbci	r25, 0x80	; 128
    1dd4:	88 0f       	add	r24, r24
    1dd6:	99 1f       	adc	r25, r25
    1dd8:	90 93 25 01 	sts	0x0125, r25	; 0x800125 <__TEXT_REGION_LENGTH__+0x700125>
    1ddc:	80 93 24 01 	sts	0x0124, r24	; 0x800124 <__TEXT_REGION_LENGTH__+0x700124>
	//Interrupts
	OCR5A = deterministic_pulse_length - 1;			//Switch off HP at length - 1bit (start @ 0 not 1)
    1de0:	80 91 27 04 	lds	r24, 0x0427	; 0x800427 <deterministic_pulse_length>
    1de4:	90 91 28 04 	lds	r25, 0x0428	; 0x800428 <deterministic_pulse_length+0x1>
    1de8:	01 97       	sbiw	r24, 0x01	; 1
    1dea:	90 93 29 01 	sts	0x0129, r25	; 0x800129 <__TEXT_REGION_LENGTH__+0x700129>
    1dee:	80 93 28 01 	sts	0x0128, r24	; 0x800128 <__TEXT_REGION_LENGTH__+0x700128>
	OCR5B = -1;		//Not used
    1df2:	8f ef       	ldi	r24, 0xFF	; 255
    1df4:	9f ef       	ldi	r25, 0xFF	; 255
    1df6:	90 93 2b 01 	sts	0x012B, r25	; 0x80012b <__TEXT_REGION_LENGTH__+0x70012b>
    1dfa:	80 93 2a 01 	sts	0x012A, r24	; 0x80012a <__TEXT_REGION_LENGTH__+0x70012a>
	OCR5C = -1;		//Not used
    1dfe:	90 93 2d 01 	sts	0x012D, r25	; 0x80012d <__TEXT_REGION_LENGTH__+0x70012d>
    1e02:	80 93 2c 01 	sts	0x012C, r24	; 0x80012c <__TEXT_REGION_LENGTH__+0x70012c>
	
	//Replace Counter
	deterministic_pulse_counter =deterministic_pulse_cycles;
    1e06:	80 91 2f 04 	lds	r24, 0x042F	; 0x80042f <deterministic_pulse_cycles>
    1e0a:	90 91 30 04 	lds	r25, 0x0430	; 0x800430 <deterministic_pulse_cycles+0x1>
    1e0e:	90 93 67 05 	sts	0x0567, r25	; 0x800567 <deterministic_pulse_counter+0x1>
    1e12:	80 93 66 05 	sts	0x0566, r24	; 0x800566 <deterministic_pulse_counter>
    1e16:	08 95       	ret

00001e18 <Setup_Counter_for_DPA_TTA_HighLevel>:
}

void Setup_Counter_for_DPA_TTA_HighLevel()
{
	//Reset overflow and Counter
	TCNT5 = 59999;      //Timer 5 reset
    1e18:	8f e5       	ldi	r24, 0x5F	; 95
    1e1a:	9a ee       	ldi	r25, 0xEA	; 234
    1e1c:	90 93 25 01 	sts	0x0125, r25	; 0x800125 <__TEXT_REGION_LENGTH__+0x700125>
    1e20:	80 93 24 01 	sts	0x0124, r24	; 0x800124 <__TEXT_REGION_LENGTH__+0x700124>
	ICR5 = 60000;		//6000ms = 6s
    1e24:	80 e6       	ldi	r24, 0x60	; 96
    1e26:	9a ee       	ldi	r25, 0xEA	; 234
    1e28:	90 93 27 01 	sts	0x0127, r25	; 0x800127 <__TEXT_REGION_LENGTH__+0x700127>
    1e2c:	80 93 26 01 	sts	0x0126, r24	; 0x800126 <__TEXT_REGION_LENGTH__+0x700126>
		
	// *10 wegen umstieg von 1ms auf 100µs
	if (heat_pulse_length < 6000)
    1e30:	80 91 2b 04 	lds	r24, 0x042B	; 0x80042b <heat_pulse_length>
    1e34:	90 91 2c 04 	lds	r25, 0x042C	; 0x80042c <heat_pulse_length+0x1>
    1e38:	a0 91 2d 04 	lds	r26, 0x042D	; 0x80042d <heat_pulse_length+0x2>
    1e3c:	b0 91 2e 04 	lds	r27, 0x042E	; 0x80042e <heat_pulse_length+0x3>
    1e40:	80 37       	cpi	r24, 0x70	; 112
    1e42:	27 e1       	ldi	r18, 0x17	; 23
    1e44:	92 07       	cpc	r25, r18
    1e46:	a1 05       	cpc	r26, r1
    1e48:	b1 05       	cpc	r27, r1
    1e4a:	28 f5       	brcc	.+74     	; 0x1e96 <Setup_Counter_for_DPA_TTA_HighLevel+0x7e>
	{
		OCR5A = heat_pulse_length * 10;
    1e4c:	9c 01       	movw	r18, r24
    1e4e:	22 0f       	add	r18, r18
    1e50:	33 1f       	adc	r19, r19
    1e52:	88 0f       	add	r24, r24
    1e54:	99 1f       	adc	r25, r25
    1e56:	88 0f       	add	r24, r24
    1e58:	99 1f       	adc	r25, r25
    1e5a:	88 0f       	add	r24, r24
    1e5c:	99 1f       	adc	r25, r25
    1e5e:	82 0f       	add	r24, r18
    1e60:	93 1f       	adc	r25, r19
    1e62:	90 93 29 01 	sts	0x0129, r25	; 0x800129 <__TEXT_REGION_LENGTH__+0x700129>
    1e66:	80 93 28 01 	sts	0x0128, r24	; 0x800128 <__TEXT_REGION_LENGTH__+0x700128>
		heat_pulse_lastcount = heat_pulse_length * 10;
    1e6a:	80 91 2b 04 	lds	r24, 0x042B	; 0x80042b <heat_pulse_length>
    1e6e:	90 91 2c 04 	lds	r25, 0x042C	; 0x80042c <heat_pulse_length+0x1>
    1e72:	9c 01       	movw	r18, r24
    1e74:	22 0f       	add	r18, r18
    1e76:	33 1f       	adc	r19, r19
    1e78:	88 0f       	add	r24, r24
    1e7a:	99 1f       	adc	r25, r25
    1e7c:	88 0f       	add	r24, r24
    1e7e:	99 1f       	adc	r25, r25
    1e80:	88 0f       	add	r24, r24
    1e82:	99 1f       	adc	r25, r25
    1e84:	82 0f       	add	r24, r18
    1e86:	93 1f       	adc	r25, r19
    1e88:	90 93 6a 05 	sts	0x056A, r25	; 0x80056a <heat_pulse_lastcount+0x1>
    1e8c:	80 93 69 05 	sts	0x0569, r24	; 0x800569 <heat_pulse_lastcount>
		heat_pulse_precount = 0;
    1e90:	10 92 68 05 	sts	0x0568, r1	; 0x800568 <heat_pulse_precount>
    1e94:	25 c0       	rjmp	.+74     	; 0x1ee0 <Setup_Counter_for_DPA_TTA_HighLevel+0xc8>
		//Spannungsmessung 5ms vor Puls-Ende
		//OCR5C = (heat_pulse_length - 5)* 10;
	}
	else
	{
		OCR5A = -1;
    1e96:	8f ef       	ldi	r24, 0xFF	; 255
    1e98:	9f ef       	ldi	r25, 0xFF	; 255
    1e9a:	90 93 29 01 	sts	0x0129, r25	; 0x800129 <__TEXT_REGION_LENGTH__+0x700129>
    1e9e:	80 93 28 01 	sts	0x0128, r24	; 0x800128 <__TEXT_REGION_LENGTH__+0x700128>
		heat_pulse_lastcount = (heat_pulse_length % 6000) * 10;
    1ea2:	60 91 2b 04 	lds	r22, 0x042B	; 0x80042b <heat_pulse_length>
    1ea6:	70 91 2c 04 	lds	r23, 0x042C	; 0x80042c <heat_pulse_length+0x1>
    1eaa:	80 91 2d 04 	lds	r24, 0x042D	; 0x80042d <heat_pulse_length+0x2>
    1eae:	90 91 2e 04 	lds	r25, 0x042E	; 0x80042e <heat_pulse_length+0x3>
    1eb2:	20 e7       	ldi	r18, 0x70	; 112
    1eb4:	37 e1       	ldi	r19, 0x17	; 23
    1eb6:	40 e0       	ldi	r20, 0x00	; 0
    1eb8:	50 e0       	ldi	r21, 0x00	; 0
    1eba:	0e 94 3a 1e 	call	0x3c74	; 0x3c74 <__udivmodsi4>
    1ebe:	ab 01       	movw	r20, r22
    1ec0:	44 0f       	add	r20, r20
    1ec2:	55 1f       	adc	r21, r21
    1ec4:	66 0f       	add	r22, r22
    1ec6:	77 1f       	adc	r23, r23
    1ec8:	66 0f       	add	r22, r22
    1eca:	77 1f       	adc	r23, r23
    1ecc:	66 0f       	add	r22, r22
    1ece:	77 1f       	adc	r23, r23
    1ed0:	64 0f       	add	r22, r20
    1ed2:	75 1f       	adc	r23, r21
    1ed4:	70 93 6a 05 	sts	0x056A, r23	; 0x80056a <heat_pulse_lastcount+0x1>
    1ed8:	60 93 69 05 	sts	0x0569, r22	; 0x800569 <heat_pulse_lastcount>
		heat_pulse_precount = (heat_pulse_length) / 6000; //Aufrunden			
    1edc:	20 93 68 05 	sts	0x0568, r18	; 0x800568 <heat_pulse_precount>
	}
	//Comp B is not needed
	OCR5B = -1;	
    1ee0:	8f ef       	ldi	r24, 0xFF	; 255
    1ee2:	9f ef       	ldi	r25, 0xFF	; 255
    1ee4:	90 93 2b 01 	sts	0x012B, r25	; 0x80012b <__TEXT_REGION_LENGTH__+0x70012b>
    1ee8:	80 93 2a 01 	sts	0x012A, r24	; 0x80012a <__TEXT_REGION_LENGTH__+0x70012a>
    1eec:	08 95       	ret

00001eee <__vector_50>:
}


//Interrupt: OverFlow:
ISR(TIMER5_OVF_vect)
{	
    1eee:	1f 92       	push	r1
    1ef0:	0f 92       	push	r0
    1ef2:	0f b6       	in	r0, 0x3f	; 63
    1ef4:	0f 92       	push	r0
    1ef6:	11 24       	eor	r1, r1
    1ef8:	0b b6       	in	r0, 0x3b	; 59
    1efa:	0f 92       	push	r0
    1efc:	2f 93       	push	r18
    1efe:	3f 93       	push	r19
    1f00:	4f 93       	push	r20
    1f02:	5f 93       	push	r21
    1f04:	6f 93       	push	r22
    1f06:	7f 93       	push	r23
    1f08:	8f 93       	push	r24
    1f0a:	9f 93       	push	r25
    1f0c:	af 93       	push	r26
    1f0e:	bf 93       	push	r27
    1f10:	ef 93       	push	r30
    1f12:	ff 93       	push	r31
	//If Deterministic Pulses are running (switch on HP)
	if(flag_DPA_TTA)
    1f14:	80 91 29 04 	lds	r24, 0x0429	; 0x800429 <flag_DPA_TTA>
    1f18:	88 23       	and	r24, r24
    1f1a:	c1 f0       	breq	.+48     	; 0x1f4c <__vector_50+0x5e>
	{			
		//--> Wieder anschalten
		HP_Port = pulse_output_register;
    1f1c:	80 91 4b 05 	lds	r24, 0x054B	; 0x80054b <pulse_output_register>
    1f20:	80 93 02 01 	sts	0x0102, r24	; 0x800102 <__TEXT_REGION_LENGTH__+0x700102>
		MP_Port = pulse_output_register;
    1f24:	80 91 4b 05 	lds	r24, 0x054B	; 0x80054b <pulse_output_register>
    1f28:	80 93 08 01 	sts	0x0108, r24	; 0x800108 <__TEXT_REGION_LENGTH__+0x700108>
		
		if(deterministic_pulse_counter-- <= 0)
    1f2c:	80 91 66 05 	lds	r24, 0x0566	; 0x800566 <deterministic_pulse_counter>
    1f30:	90 91 67 05 	lds	r25, 0x0567	; 0x800567 <deterministic_pulse_counter+0x1>
    1f34:	9c 01       	movw	r18, r24
    1f36:	21 50       	subi	r18, 0x01	; 1
    1f38:	31 09       	sbc	r19, r1
    1f3a:	30 93 67 05 	sts	0x0567, r19	; 0x800567 <deterministic_pulse_counter+0x1>
    1f3e:	20 93 66 05 	sts	0x0566, r18	; 0x800566 <deterministic_pulse_counter>
    1f42:	89 2b       	or	r24, r25
		{
			//Stop Timer
			Stop_Timer_100us();
									
			//Start standard TTA
			PulseStart_stdTTA();
    1f44:	c9 f5       	brne	.+114    	; 0x1fb8 <__vector_50+0xca>
    1f46:	49 de       	rcall	.-878    	; 0x1bda <Stop_Timer_100us>
    1f48:	b0 dd       	rcall	.-1184   	; 0x1aaa <PulseStart_stdTTA>
		}
	}
	//If standard TTA (change compare register for overflow)	
	else if(flag_std_TTA)
    1f4a:	36 c0       	rjmp	.+108    	; 0x1fb8 <__vector_50+0xca>
    1f4c:	80 91 da 04 	lds	r24, 0x04DA	; 0x8004da <flag_std_TTA>
    1f50:	88 23       	and	r24, r24
	{
		if (--heat_pulse_precount <= 0)
    1f52:	f9 f0       	breq	.+62     	; 0x1f92 <__vector_50+0xa4>
    1f54:	80 91 68 05 	lds	r24, 0x0568	; 0x800568 <heat_pulse_precount>
    1f58:	81 50       	subi	r24, 0x01	; 1
    1f5a:	80 93 68 05 	sts	0x0568, r24	; 0x800568 <heat_pulse_precount>
    1f5e:	81 11       	cpse	r24, r1
		{
			OCR5A = heat_pulse_lastcount;
    1f60:	08 c0       	rjmp	.+16     	; 0x1f72 <__vector_50+0x84>
    1f62:	80 91 69 05 	lds	r24, 0x0569	; 0x800569 <heat_pulse_lastcount>
    1f66:	90 91 6a 05 	lds	r25, 0x056A	; 0x80056a <heat_pulse_lastcount+0x1>
    1f6a:	90 93 29 01 	sts	0x0129, r25	; 0x800129 <__TEXT_REGION_LENGTH__+0x700129>
    1f6e:	80 93 28 01 	sts	0x0128, r24	; 0x800128 <__TEXT_REGION_LENGTH__+0x700128>
		}

		if (--measure_pulse_precount <= 0)
    1f72:	80 91 6b 05 	lds	r24, 0x056B	; 0x80056b <measure_pulse_precount>
    1f76:	81 50       	subi	r24, 0x01	; 1
    1f78:	80 93 6b 05 	sts	0x056B, r24	; 0x80056b <measure_pulse_precount>
    1f7c:	81 11       	cpse	r24, r1
		{
			OCR5B = measure_pulse_lastcount;
    1f7e:	1c c0       	rjmp	.+56     	; 0x1fb8 <__vector_50+0xca>
    1f80:	80 91 6c 05 	lds	r24, 0x056C	; 0x80056c <measure_pulse_lastcount>
    1f84:	90 91 6d 05 	lds	r25, 0x056D	; 0x80056d <measure_pulse_lastcount+0x1>
    1f88:	90 93 2b 01 	sts	0x012B, r25	; 0x80012b <__TEXT_REGION_LENGTH__+0x70012b>
    1f8c:	80 93 2a 01 	sts	0x012A, r24	; 0x80012a <__TEXT_REGION_LENGTH__+0x70012a>
		}
	}
	else if (flag_HPP_TTA)
    1f90:	13 c0       	rjmp	.+38     	; 0x1fb8 <__vector_50+0xca>
    1f92:	80 91 4c 05 	lds	r24, 0x054C	; 0x80054c <flag_HPP_TTA>
    1f96:	88 23       	and	r24, r24
	{
		if (--heat_pulse_precount <= 0)
    1f98:	79 f0       	breq	.+30     	; 0x1fb8 <__vector_50+0xca>
    1f9a:	80 91 68 05 	lds	r24, 0x0568	; 0x800568 <heat_pulse_precount>
    1f9e:	81 50       	subi	r24, 0x01	; 1
    1fa0:	80 93 68 05 	sts	0x0568, r24	; 0x800568 <heat_pulse_precount>
    1fa4:	81 11       	cpse	r24, r1
		{
			OCR5A = heat_pulse_lastcount;
    1fa6:	08 c0       	rjmp	.+16     	; 0x1fb8 <__vector_50+0xca>
    1fa8:	80 91 69 05 	lds	r24, 0x0569	; 0x800569 <heat_pulse_lastcount>
    1fac:	90 91 6a 05 	lds	r25, 0x056A	; 0x80056a <heat_pulse_lastcount+0x1>
    1fb0:	90 93 29 01 	sts	0x0129, r25	; 0x800129 <__TEXT_REGION_LENGTH__+0x700129>
    1fb4:	80 93 28 01 	sts	0x0128, r24	; 0x800128 <__TEXT_REGION_LENGTH__+0x700128>
	else
	{
	}
	
		
}
    1fb8:	ff 91       	pop	r31
    1fba:	ef 91       	pop	r30
    1fbc:	bf 91       	pop	r27
    1fbe:	af 91       	pop	r26
    1fc0:	9f 91       	pop	r25
    1fc2:	8f 91       	pop	r24
    1fc4:	7f 91       	pop	r23
    1fc6:	6f 91       	pop	r22
    1fc8:	5f 91       	pop	r21
    1fca:	4f 91       	pop	r20
    1fcc:	3f 91       	pop	r19
    1fce:	2f 91       	pop	r18
    1fd0:	0f 90       	pop	r0
    1fd2:	0b be       	out	0x3b, r0	; 59
    1fd4:	0f 90       	pop	r0
    1fd6:	0f be       	out	0x3f, r0	; 63
    1fd8:	0f 90       	pop	r0
    1fda:	1f 90       	pop	r1
    1fdc:	18 95       	reti

00001fde <__vector_47>:

//Interrupt: Compare A: Switch of Heat pulse
ISR(TIMER5_COMPA_vect)
{
    1fde:	1f 92       	push	r1
    1fe0:	0f 92       	push	r0
    1fe2:	0f b6       	in	r0, 0x3f	; 63
    1fe4:	0f 92       	push	r0
    1fe6:	11 24       	eor	r1, r1
    1fe8:	0b b6       	in	r0, 0x3b	; 59
    1fea:	0f 92       	push	r0
    1fec:	2f 93       	push	r18
    1fee:	3f 93       	push	r19
    1ff0:	4f 93       	push	r20
    1ff2:	5f 93       	push	r21
    1ff4:	6f 93       	push	r22
    1ff6:	7f 93       	push	r23
    1ff8:	8f 93       	push	r24
    1ffa:	9f 93       	push	r25
    1ffc:	af 93       	push	r26
    1ffe:	bf 93       	push	r27
    2000:	ef 93       	push	r30
    2002:	ff 93       	push	r31
	//Wenn es ein Heat PrePulse ist, in DPA gehn
	if(flag_HPP_TTA)
    2004:	80 91 4c 05 	lds	r24, 0x054C	; 0x80054c <flag_HPP_TTA>
    2008:	88 23       	and	r24, r24
	{
		PulseStart_DPA_TTA_fromHPP();
    200a:	11 f0       	breq	.+4      	; 0x2010 <__vector_47+0x32>
    200c:	88 dd       	rcall	.-1264   	; 0x1b1e <PulseStart_DPA_TTA_fromHPP>
	}
	else
	{
		HP_Port = 0;	
    200e:	02 c0       	rjmp	.+4      	; 0x2014 <__vector_47+0x36>
    2010:	10 92 02 01 	sts	0x0102, r1	; 0x800102 <__TEXT_REGION_LENGTH__+0x700102>
	}
	
	//OLD***********************
	//Switch of all Heat Pulses
	//HP_Port = 0;	
}
    2014:	ff 91       	pop	r31
    2016:	ef 91       	pop	r30
    2018:	bf 91       	pop	r27
    201a:	af 91       	pop	r26
    201c:	9f 91       	pop	r25
    201e:	8f 91       	pop	r24
    2020:	7f 91       	pop	r23
    2022:	6f 91       	pop	r22
    2024:	5f 91       	pop	r21
    2026:	4f 91       	pop	r20
    2028:	3f 91       	pop	r19
    202a:	2f 91       	pop	r18
    202c:	0f 90       	pop	r0
    202e:	0b be       	out	0x3b, r0	; 59
    2030:	0f 90       	pop	r0
    2032:	0f be       	out	0x3f, r0	; 63
    2034:	0f 90       	pop	r0
    2036:	1f 90       	pop	r1
    2038:	18 95       	reti

0000203a <__vector_48>:

//Interrupt: Compare B: Switch of Meas pulse
ISR(TIMER5_COMPB_vect)
{
    203a:	1f 92       	push	r1
    203c:	0f 92       	push	r0
    203e:	0f b6       	in	r0, 0x3f	; 63
    2040:	0f 92       	push	r0
    2042:	11 24       	eor	r1, r1
    2044:	0b b6       	in	r0, 0x3b	; 59
    2046:	0f 92       	push	r0
    2048:	2f 93       	push	r18
    204a:	3f 93       	push	r19
    204c:	4f 93       	push	r20
    204e:	5f 93       	push	r21
    2050:	6f 93       	push	r22
    2052:	7f 93       	push	r23
    2054:	8f 93       	push	r24
    2056:	9f 93       	push	r25
    2058:	af 93       	push	r26
    205a:	bf 93       	push	r27
    205c:	ef 93       	push	r30
    205e:	ff 93       	push	r31
	//Interrupt für Tx und Rx zulassen (Alle Interrupts zulassen)
	//Flag wurde vohrer auf falsch gesetzt
	SREG |= _BV(SREG_I); 
    2060:	8f b7       	in	r24, 0x3f	; 63
    2062:	80 68       	ori	r24, 0x80	; 128

	//Timer 4  stopen-> Prescaler
	Stop_Timer_100us();
	
	//Daten der Heat-Puls Spannungsmessung abholen
	heat_pulse_voltage = Measure_Voltage_MOSFET_get_Data();
    2064:	8f bf       	out	0x3f, r24	; 63
    2066:	b9 dd       	rcall	.-1166   	; 0x1bda <Stop_Timer_100us>
    2068:	c0 da       	rcall	.-2688   	; 0x15ea <Measure_Voltage_MOSFET_get_Data>
    206a:	60 93 01 04 	sts	0x0401, r22	; 0x800401 <heat_pulse_voltage>
    206e:	70 93 02 04 	sts	0x0402, r23	; 0x800402 <heat_pulse_voltage+0x1>
    2072:	80 93 03 04 	sts	0x0403, r24	; 0x800403 <heat_pulse_voltage+0x2>
	}
	
	//Measurment Puls Spannung messen und abholen
	measure_pulse_voltage = Measure_Voltage_MOSFET_get_Data();
	*/
	measure_pulse_voltage = Measure_Voltage_MOSFET_with_DataAnalyse();
    2076:	90 93 04 04 	sts	0x0404, r25	; 0x800404 <heat_pulse_voltage+0x3>
    207a:	5b da       	rcall	.-2890   	; 0x1532 <Measure_Voltage_MOSFET_with_DataAnalyse>
    207c:	70 93 16 04 	sts	0x0416, r23	; 0x800416 <measure_pulse_voltage+0x1>
    2080:	60 93 15 04 	sts	0x0415, r22	; 0x800415 <measure_pulse_voltage>
	
	//Switch of STD_TTA
	MP_Port = 0;
    2084:	10 92 08 01 	sts	0x0108, r1	; 0x800108 <__TEXT_REGION_LENGTH__+0x700108>
		
	//clear Compare Register
	OCR5B = -1;
    2088:	8f ef       	ldi	r24, 0xFF	; 255
    208a:	9f ef       	ldi	r25, 0xFF	; 255
    208c:	90 93 2b 01 	sts	0x012B, r25	; 0x80012b <__TEXT_REGION_LENGTH__+0x70012b>
    2090:	80 93 2a 01 	sts	0x012A, r24	; 0x80012a <__TEXT_REGION_LENGTH__+0x70012a>
						
	//Status LED for Pulses
	clear_bit(LED_Pulse);
}
    2094:	a1 98       	cbi	0x14, 1	; 20
    2096:	ff 91       	pop	r31
    2098:	ef 91       	pop	r30
    209a:	bf 91       	pop	r27
    209c:	af 91       	pop	r26
    209e:	9f 91       	pop	r25
    20a0:	8f 91       	pop	r24
    20a2:	7f 91       	pop	r23
    20a4:	6f 91       	pop	r22
    20a6:	5f 91       	pop	r21
    20a8:	4f 91       	pop	r20
    20aa:	3f 91       	pop	r19
    20ac:	2f 91       	pop	r18
    20ae:	0f 90       	pop	r0
    20b0:	0b be       	out	0x3b, r0	; 59
    20b2:	0f 90       	pop	r0
    20b4:	0f be       	out	0x3f, r0	; 63
    20b6:	0f 90       	pop	r0
    20b8:	1f 90       	pop	r1
    20ba:	18 95       	reti

000020bc <__vector_49>:

//Interrupt: Compare C: Voltage_Measurement ADC
ISR(TIMER5_COMPC_vect)
{
    20bc:	1f 92       	push	r1
    20be:	0f 92       	push	r0
    20c0:	0f b6       	in	r0, 0x3f	; 63
    20c2:	0f 92       	push	r0
    20c4:	11 24       	eor	r1, r1
    20c6:	0b b6       	in	r0, 0x3b	; 59
    20c8:	0f 92       	push	r0
    20ca:	2f 93       	push	r18
    20cc:	3f 93       	push	r19
    20ce:	4f 93       	push	r20
    20d0:	5f 93       	push	r21
    20d2:	6f 93       	push	r22
    20d4:	7f 93       	push	r23
    20d6:	8f 93       	push	r24
    20d8:	9f 93       	push	r25
    20da:	af 93       	push	r26
    20dc:	bf 93       	push	r27
    20de:	ef 93       	push	r30
    20e0:	ff 93       	push	r31
	//Interrupt für Tx und Rx zulassen (Alle Interrupts zulassen)
	//Flag wurde vohrer auf falsch gesetzt
	SREG |= _BV(SREG_I); 
    20e2:	8f b7       	in	r24, 0x3f	; 63
    20e4:	80 68       	ori	r24, 0x80	; 128

	Measure_Voltage_MOSFET_without_DataAnalyse();	
    20e6:	8f bf       	out	0x3f, r24	; 63
}
    20e8:	5d da       	rcall	.-2886   	; 0x15a4 <Measure_Voltage_MOSFET_without_DataAnalyse>
    20ea:	ff 91       	pop	r31
    20ec:	ef 91       	pop	r30
    20ee:	bf 91       	pop	r27
    20f0:	af 91       	pop	r26
    20f2:	9f 91       	pop	r25
    20f4:	8f 91       	pop	r24
    20f6:	7f 91       	pop	r23
    20f8:	6f 91       	pop	r22
    20fa:	5f 91       	pop	r21
    20fc:	4f 91       	pop	r20
    20fe:	3f 91       	pop	r19
    2100:	2f 91       	pop	r18
    2102:	0f 90       	pop	r0
    2104:	0b be       	out	0x3b, r0	; 59
    2106:	0f 90       	pop	r0
    2108:	0f be       	out	0x3f, r0	; 63
    210a:	0f 90       	pop	r0
    210c:	1f 90       	pop	r1
    210e:	18 95       	reti

00002110 <TerminalInit>:
	}
    

    //send
	TransmitString(str);
}
    2110:	0e 94 a4 1b 	call	0x3748	; 0x3748 <UART0Init>
    2114:	10 92 70 05 	sts	0x0570, r1	; 0x800570 <len>
    2118:	08 95       	ret

0000211a <ParseIntLn>:
    211a:	ff 92       	push	r15
    211c:	0f 93       	push	r16
    211e:	1f 93       	push	r17
    2120:	cf 93       	push	r28
    2122:	df 93       	push	r29
    2124:	00 d0       	rcall	.+0      	; 0x2126 <ParseIntLn+0xc>
    2126:	00 d0       	rcall	.+0      	; 0x2128 <ParseIntLn+0xe>
    2128:	cd b7       	in	r28, 0x3d	; 61
    212a:	de b7       	in	r29, 0x3e	; 62
    212c:	8a 01       	movw	r16, r20
    212e:	da 01       	movw	r26, r20
    2130:	1d 92       	st	X+, r1
    2132:	1c 92       	st	X, r1
    2134:	fc 01       	movw	r30, r24
    2136:	20 81       	ld	r18, Z
    2138:	2d 32       	cpi	r18, 0x2D	; 45
    213a:	21 f4       	brne	.+8      	; 0x2144 <ParseIntLn+0x2a>
    213c:	01 96       	adiw	r24, 0x01	; 1
    213e:	ff 24       	eor	r15, r15
    2140:	f3 94       	inc	r15
    2142:	01 c0       	rjmp	.+2      	; 0x2146 <ParseIntLn+0x2c>
    2144:	f1 2c       	mov	r15, r1
    2146:	fc 01       	movw	r30, r24
    2148:	31 96       	adiw	r30, 0x01	; 1
    214a:	dc 01       	movw	r26, r24
    214c:	9c 91       	ld	r25, X
    214e:	80 ed       	ldi	r24, 0xD0	; 208
    2150:	89 0f       	add	r24, r25
    2152:	89 83       	std	Y+1, r24	; 0x01
    2154:	8a 30       	cpi	r24, 0x0A	; 10
    2156:	08 f0       	brcs	.+2      	; 0x215a <ParseIntLn+0x40>
    2158:	46 c0       	rjmp	.+140    	; 0x21e6 <ParseIntLn+0xcc>
    215a:	80 e0       	ldi	r24, 0x00	; 0
    215c:	8f 5f       	subi	r24, 0xFF	; 255
    215e:	28 2f       	mov	r18, r24
    2160:	30 e0       	ldi	r19, 0x00	; 0
    2162:	51 91       	ld	r21, Z+
    2164:	90 ed       	ldi	r25, 0xD0	; 208
    2166:	95 0f       	add	r25, r21
    2168:	a1 e0       	ldi	r26, 0x01	; 1
    216a:	b0 e0       	ldi	r27, 0x00	; 0
    216c:	ac 0f       	add	r26, r28
    216e:	bd 1f       	adc	r27, r29
    2170:	a2 0f       	add	r26, r18
    2172:	b3 1f       	adc	r27, r19
    2174:	9c 93       	st	X, r25
    2176:	9a 30       	cpi	r25, 0x0A	; 10
    2178:	88 f3       	brcs	.-30     	; 0x215c <ParseIntLn+0x42>
    217a:	5a 30       	cpi	r21, 0x0A	; 10
    217c:	81 f5       	brne	.+96     	; 0x21de <ParseIntLn+0xc4>
    217e:	68 17       	cp	r22, r24
    2180:	80 f1       	brcs	.+96     	; 0x21e2 <ParseIntLn+0xc8>
    2182:	88 23       	and	r24, r24
    2184:	09 f1       	breq	.+66     	; 0x21c8 <ParseIntLn+0xae>
    2186:	98 2f       	mov	r25, r24
    2188:	60 e0       	ldi	r22, 0x00	; 0
    218a:	70 e0       	ldi	r23, 0x00	; 0
    218c:	f9 01       	movw	r30, r18
    218e:	e9 1b       	sub	r30, r25
    2190:	f1 09       	sbc	r31, r1
    2192:	41 e0       	ldi	r20, 0x01	; 1
    2194:	50 e0       	ldi	r21, 0x00	; 0
    2196:	4c 0f       	add	r20, r28
    2198:	5d 1f       	adc	r21, r29
    219a:	e4 0f       	add	r30, r20
    219c:	f5 1f       	adc	r31, r21
    219e:	40 81       	ld	r20, Z
    21a0:	fb 01       	movw	r30, r22
    21a2:	ee 0f       	add	r30, r30
    21a4:	ff 1f       	adc	r31, r31
    21a6:	66 0f       	add	r22, r22
    21a8:	77 1f       	adc	r23, r23
    21aa:	66 0f       	add	r22, r22
    21ac:	77 1f       	adc	r23, r23
    21ae:	66 0f       	add	r22, r22
    21b0:	77 1f       	adc	r23, r23
    21b2:	6e 0f       	add	r22, r30
    21b4:	7f 1f       	adc	r23, r31
    21b6:	64 0f       	add	r22, r20
    21b8:	71 1d       	adc	r23, r1
    21ba:	91 50       	subi	r25, 0x01	; 1
    21bc:	39 f7       	brne	.-50     	; 0x218c <ParseIntLn+0x72>
    21be:	d8 01       	movw	r26, r16
    21c0:	6d 93       	st	X+, r22
    21c2:	7c 93       	st	X, r23
    21c4:	01 c0       	rjmp	.+2      	; 0x21c8 <ParseIntLn+0xae>
    21c6:	80 e0       	ldi	r24, 0x00	; 0
    21c8:	ff 20       	and	r15, r15
    21ca:	81 f0       	breq	.+32     	; 0x21ec <ParseIntLn+0xd2>
    21cc:	f8 01       	movw	r30, r16
    21ce:	20 81       	ld	r18, Z
    21d0:	31 81       	ldd	r19, Z+1	; 0x01
    21d2:	31 95       	neg	r19
    21d4:	21 95       	neg	r18
    21d6:	31 09       	sbc	r19, r1
    21d8:	31 83       	std	Z+1, r19	; 0x01
    21da:	20 83       	st	Z, r18
    21dc:	07 c0       	rjmp	.+14     	; 0x21ec <ParseIntLn+0xd2>
    21de:	80 e0       	ldi	r24, 0x00	; 0
    21e0:	05 c0       	rjmp	.+10     	; 0x21ec <ParseIntLn+0xd2>
    21e2:	80 e0       	ldi	r24, 0x00	; 0
    21e4:	03 c0       	rjmp	.+6      	; 0x21ec <ParseIntLn+0xd2>
    21e6:	9a 30       	cpi	r25, 0x0A	; 10
    21e8:	71 f3       	breq	.-36     	; 0x21c6 <ParseIntLn+0xac>
    21ea:	80 e0       	ldi	r24, 0x00	; 0
    21ec:	26 96       	adiw	r28, 0x06	; 6
    21ee:	0f b6       	in	r0, 0x3f	; 63
    21f0:	f8 94       	cli
    21f2:	de bf       	out	0x3e, r29	; 62
    21f4:	0f be       	out	0x3f, r0	; 63
    21f6:	cd bf       	out	0x3d, r28	; 61
    21f8:	df 91       	pop	r29
    21fa:	cf 91       	pop	r28
    21fc:	1f 91       	pop	r17
    21fe:	0f 91       	pop	r16
    2200:	ff 90       	pop	r15
    2202:	08 95       	ret

00002204 <ParseLongLn>:
    2204:	8f 92       	push	r8
    2206:	9f 92       	push	r9
    2208:	af 92       	push	r10
    220a:	bf 92       	push	r11
    220c:	cf 92       	push	r12
    220e:	df 92       	push	r13
    2210:	ef 92       	push	r14
    2212:	ff 92       	push	r15
    2214:	0f 93       	push	r16
    2216:	1f 93       	push	r17
    2218:	cf 93       	push	r28
    221a:	df 93       	push	r29
    221c:	cd b7       	in	r28, 0x3d	; 61
    221e:	de b7       	in	r29, 0x3e	; 62
    2220:	2b 97       	sbiw	r28, 0x0b	; 11
    2222:	0f b6       	in	r0, 0x3f	; 63
    2224:	f8 94       	cli
    2226:	de bf       	out	0x3e, r29	; 62
    2228:	0f be       	out	0x3f, r0	; 63
    222a:	cd bf       	out	0x3d, r28	; 61
    222c:	8a 01       	movw	r16, r20
    222e:	da 01       	movw	r26, r20
    2230:	1d 92       	st	X+, r1
    2232:	1d 92       	st	X+, r1
    2234:	1d 92       	st	X+, r1
    2236:	1c 92       	st	X, r1
    2238:	13 97       	sbiw	r26, 0x03	; 3
    223a:	fc 01       	movw	r30, r24
    223c:	20 81       	ld	r18, Z
    223e:	2d 32       	cpi	r18, 0x2D	; 45
    2240:	19 f4       	brne	.+6      	; 0x2248 <ParseLongLn+0x44>
    2242:	01 96       	adiw	r24, 0x01	; 1
    2244:	41 e0       	ldi	r20, 0x01	; 1
    2246:	01 c0       	rjmp	.+2      	; 0x224a <ParseLongLn+0x46>
    2248:	40 e0       	ldi	r20, 0x00	; 0
    224a:	fc 01       	movw	r30, r24
    224c:	31 96       	adiw	r30, 0x01	; 1
    224e:	dc 01       	movw	r26, r24
    2250:	9c 91       	ld	r25, X
    2252:	80 ed       	ldi	r24, 0xD0	; 208
    2254:	89 0f       	add	r24, r25
    2256:	89 83       	std	Y+1, r24	; 0x01
    2258:	8a 30       	cpi	r24, 0x0A	; 10
    225a:	08 f0       	brcs	.+2      	; 0x225e <ParseLongLn+0x5a>
    225c:	5d c0       	rjmp	.+186    	; 0x2318 <ParseLongLn+0x114>
    225e:	80 e0       	ldi	r24, 0x00	; 0
    2260:	8f 5f       	subi	r24, 0xFF	; 255
    2262:	28 2f       	mov	r18, r24
    2264:	30 e0       	ldi	r19, 0x00	; 0
    2266:	51 91       	ld	r21, Z+
    2268:	90 ed       	ldi	r25, 0xD0	; 208
    226a:	95 0f       	add	r25, r21
    226c:	a1 e0       	ldi	r26, 0x01	; 1
    226e:	b0 e0       	ldi	r27, 0x00	; 0
    2270:	ac 0f       	add	r26, r28
    2272:	bd 1f       	adc	r27, r29
    2274:	a2 0f       	add	r26, r18
    2276:	b3 1f       	adc	r27, r19
    2278:	9c 93       	st	X, r25
    227a:	9a 30       	cpi	r25, 0x0A	; 10
    227c:	88 f3       	brcs	.-30     	; 0x2260 <ParseLongLn+0x5c>
    227e:	5a 30       	cpi	r21, 0x0A	; 10
    2280:	09 f0       	breq	.+2      	; 0x2284 <ParseLongLn+0x80>
    2282:	46 c0       	rjmp	.+140    	; 0x2310 <ParseLongLn+0x10c>
    2284:	68 17       	cp	r22, r24
    2286:	08 f4       	brcc	.+2      	; 0x228a <ParseLongLn+0x86>
    2288:	45 c0       	rjmp	.+138    	; 0x2314 <ParseLongLn+0x110>
    228a:	88 23       	and	r24, r24
    228c:	71 f1       	breq	.+92     	; 0x22ea <ParseLongLn+0xe6>
    228e:	98 2f       	mov	r25, r24
    2290:	c1 2c       	mov	r12, r1
    2292:	d1 2c       	mov	r13, r1
    2294:	76 01       	movw	r14, r12
    2296:	f9 01       	movw	r30, r18
    2298:	e9 1b       	sub	r30, r25
    229a:	f1 09       	sbc	r31, r1
    229c:	61 e0       	ldi	r22, 0x01	; 1
    229e:	70 e0       	ldi	r23, 0x00	; 0
    22a0:	6c 0f       	add	r22, r28
    22a2:	7d 1f       	adc	r23, r29
    22a4:	e6 0f       	add	r30, r22
    22a6:	f7 1f       	adc	r31, r23
    22a8:	50 81       	ld	r21, Z
    22aa:	cc 0c       	add	r12, r12
    22ac:	dd 1c       	adc	r13, r13
    22ae:	ee 1c       	adc	r14, r14
    22b0:	ff 1c       	adc	r15, r15
    22b2:	46 01       	movw	r8, r12
    22b4:	57 01       	movw	r10, r14
    22b6:	88 0c       	add	r8, r8
    22b8:	99 1c       	adc	r9, r9
    22ba:	aa 1c       	adc	r10, r10
    22bc:	bb 1c       	adc	r11, r11
    22be:	88 0c       	add	r8, r8
    22c0:	99 1c       	adc	r9, r9
    22c2:	aa 1c       	adc	r10, r10
    22c4:	bb 1c       	adc	r11, r11
    22c6:	c8 0c       	add	r12, r8
    22c8:	d9 1c       	adc	r13, r9
    22ca:	ea 1c       	adc	r14, r10
    22cc:	fb 1c       	adc	r15, r11
    22ce:	c5 0e       	add	r12, r21
    22d0:	d1 1c       	adc	r13, r1
    22d2:	e1 1c       	adc	r14, r1
    22d4:	f1 1c       	adc	r15, r1
    22d6:	91 50       	subi	r25, 0x01	; 1
    22d8:	f1 f6       	brne	.-68     	; 0x2296 <ParseLongLn+0x92>
    22da:	d8 01       	movw	r26, r16
    22dc:	cd 92       	st	X+, r12
    22de:	dd 92       	st	X+, r13
    22e0:	ed 92       	st	X+, r14
    22e2:	fc 92       	st	X, r15
    22e4:	13 97       	sbiw	r26, 0x03	; 3
    22e6:	01 c0       	rjmp	.+2      	; 0x22ea <ParseLongLn+0xe6>
    22e8:	80 e0       	ldi	r24, 0x00	; 0
    22ea:	44 23       	and	r20, r20
    22ec:	c1 f0       	breq	.+48     	; 0x231e <ParseLongLn+0x11a>
    22ee:	f8 01       	movw	r30, r16
    22f0:	40 81       	ld	r20, Z
    22f2:	51 81       	ldd	r21, Z+1	; 0x01
    22f4:	62 81       	ldd	r22, Z+2	; 0x02
    22f6:	73 81       	ldd	r23, Z+3	; 0x03
    22f8:	70 95       	com	r23
    22fa:	60 95       	com	r22
    22fc:	50 95       	com	r21
    22fe:	41 95       	neg	r20
    2300:	5f 4f       	sbci	r21, 0xFF	; 255
    2302:	6f 4f       	sbci	r22, 0xFF	; 255
    2304:	7f 4f       	sbci	r23, 0xFF	; 255
    2306:	40 83       	st	Z, r20
    2308:	51 83       	std	Z+1, r21	; 0x01
    230a:	62 83       	std	Z+2, r22	; 0x02
    230c:	73 83       	std	Z+3, r23	; 0x03
    230e:	07 c0       	rjmp	.+14     	; 0x231e <ParseLongLn+0x11a>
    2310:	80 e0       	ldi	r24, 0x00	; 0
    2312:	05 c0       	rjmp	.+10     	; 0x231e <ParseLongLn+0x11a>
    2314:	80 e0       	ldi	r24, 0x00	; 0
    2316:	03 c0       	rjmp	.+6      	; 0x231e <ParseLongLn+0x11a>
    2318:	9a 30       	cpi	r25, 0x0A	; 10
    231a:	31 f3       	breq	.-52     	; 0x22e8 <ParseLongLn+0xe4>
    231c:	80 e0       	ldi	r24, 0x00	; 0
    231e:	2b 96       	adiw	r28, 0x0b	; 11
    2320:	0f b6       	in	r0, 0x3f	; 63
    2322:	f8 94       	cli
    2324:	de bf       	out	0x3e, r29	; 62
    2326:	0f be       	out	0x3f, r0	; 63
    2328:	cd bf       	out	0x3d, r28	; 61
    232a:	df 91       	pop	r29
    232c:	cf 91       	pop	r28
    232e:	1f 91       	pop	r17
    2330:	0f 91       	pop	r16
    2332:	ff 90       	pop	r15
    2334:	ef 90       	pop	r14
    2336:	df 90       	pop	r13
    2338:	cf 90       	pop	r12
    233a:	bf 90       	pop	r11
    233c:	af 90       	pop	r10
    233e:	9f 90       	pop	r9
    2340:	8f 90       	pop	r8
    2342:	08 95       	ret

00002344 <ParseByte>:
    2344:	fc 01       	movw	r30, r24
    2346:	20 e0       	ldi	r18, 0x00	; 0
    2348:	30 e0       	ldi	r19, 0x00	; 0
    234a:	80 e0       	ldi	r24, 0x00	; 0
    234c:	a1 e0       	ldi	r26, 0x01	; 1
    234e:	b0 e0       	ldi	r27, 0x00	; 0
    2350:	91 91       	ld	r25, Z+
    2352:	90 33       	cpi	r25, 0x30	; 48
    2354:	51 f0       	breq	.+20     	; 0x236a <ParseByte+0x26>
    2356:	91 33       	cpi	r25, 0x31	; 49
    2358:	89 f4       	brne	.+34     	; 0x237c <ParseByte+0x38>
    235a:	ad 01       	movw	r20, r26
    235c:	02 2e       	mov	r0, r18
    235e:	02 c0       	rjmp	.+4      	; 0x2364 <ParseByte+0x20>
    2360:	44 0f       	add	r20, r20
    2362:	55 1f       	adc	r21, r21
    2364:	0a 94       	dec	r0
    2366:	e2 f7       	brpl	.-8      	; 0x2360 <ParseByte+0x1c>
    2368:	84 0f       	add	r24, r20
    236a:	2f 5f       	subi	r18, 0xFF	; 255
    236c:	3f 4f       	sbci	r19, 0xFF	; 255
    236e:	28 30       	cpi	r18, 0x08	; 8
    2370:	31 05       	cpc	r19, r1
    2372:	71 f7       	brne	.-36     	; 0x2350 <ParseByte+0xc>
    2374:	fb 01       	movw	r30, r22
    2376:	80 83       	st	Z, r24
    2378:	81 e0       	ldi	r24, 0x01	; 1
    237a:	08 95       	ret
    237c:	80 e0       	ldi	r24, 0x00	; 0
    237e:	08 95       	ret

00002380 <TransmitString>:
    2380:	0c 94 42 1c 	jmp	0x3884	; 0x3884 <UART0TransmitString>
    2384:	08 95       	ret

00002386 <TransmitStringLn>:
    2386:	0c 94 53 1c 	jmp	0x38a6	; 0x38a6 <UART0TransmitStringLn>
    238a:	08 95       	ret

0000238c <TransmitInt>:
    238c:	cf 92       	push	r12
    238e:	df 92       	push	r13
    2390:	ef 92       	push	r14
    2392:	ff 92       	push	r15
    2394:	0f 93       	push	r16
    2396:	1f 93       	push	r17
    2398:	cf 93       	push	r28
    239a:	df 93       	push	r29
    239c:	cd b7       	in	r28, 0x3d	; 61
    239e:	de b7       	in	r29, 0x3e	; 62
    23a0:	2c 97       	sbiw	r28, 0x0c	; 12
    23a2:	0f b6       	in	r0, 0x3f	; 63
    23a4:	f8 94       	cli
    23a6:	de bf       	out	0x3e, r29	; 62
    23a8:	0f be       	out	0x3f, r0	; 63
    23aa:	cd bf       	out	0x3d, r28	; 61
    23ac:	e6 2e       	mov	r14, r22
    23ae:	99 23       	and	r25, r25
    23b0:	44 f4       	brge	.+16     	; 0x23c2 <TransmitInt+0x36>
    23b2:	2d e2       	ldi	r18, 0x2D	; 45
    23b4:	30 e0       	ldi	r19, 0x00	; 0
    23b6:	38 87       	std	Y+8, r19	; 0x08
    23b8:	2f 83       	std	Y+7, r18	; 0x07
    23ba:	91 95       	neg	r25
    23bc:	81 95       	neg	r24
    23be:	91 09       	sbc	r25, r1
    23c0:	01 c0       	rjmp	.+2      	; 0x23c4 <TransmitInt+0x38>
    23c2:	1f 82       	std	Y+7, r1	; 0x07
    23c4:	4a e0       	ldi	r20, 0x0A	; 10
    23c6:	be 01       	movw	r22, r28
    23c8:	6f 5f       	subi	r22, 0xFF	; 255
    23ca:	7f 4f       	sbci	r23, 0xFF	; 255
    23cc:	0e 94 b1 1e 	call	0x3d62	; 0x3d62 <__itoa_ncheck>
    23d0:	be 01       	movw	r22, r28
    23d2:	6f 5f       	subi	r22, 0xFF	; 255
    23d4:	7f 4f       	sbci	r23, 0xFF	; 255
    23d6:	ce 01       	movw	r24, r28
    23d8:	07 96       	adiw	r24, 0x07	; 7
    23da:	0e 94 9f 1e 	call	0x3d3e	; 0x3d3e <strcat>
    23de:	be 01       	movw	r22, r28
    23e0:	69 5f       	subi	r22, 0xF9	; 249
    23e2:	7f 4f       	sbci	r23, 0xFF	; 255
    23e4:	ce 01       	movw	r24, r28
    23e6:	01 96       	adiw	r24, 0x01	; 1
    23e8:	0e 94 aa 1e 	call	0x3d54	; 0x3d54 <strcpy>
    23ec:	e1 10       	cpse	r14, r1
    23ee:	0f c0       	rjmp	.+30     	; 0x240e <TransmitInt+0x82>
    23f0:	20 c0       	rjmp	.+64     	; 0x2432 <TransmitInt+0xa6>
    23f2:	d8 86       	std	Y+8, r13	; 0x08
    23f4:	cf 82       	std	Y+7, r12	; 0x07
    23f6:	b8 01       	movw	r22, r16
    23f8:	ce 01       	movw	r24, r28
    23fa:	07 96       	adiw	r24, 0x07	; 7
    23fc:	0e 94 9f 1e 	call	0x3d3e	; 0x3d3e <strcat>
    2400:	be 01       	movw	r22, r28
    2402:	69 5f       	subi	r22, 0xF9	; 249
    2404:	7f 4f       	sbci	r23, 0xFF	; 255
    2406:	c8 01       	movw	r24, r16
    2408:	0e 94 aa 1e 	call	0x3d54	; 0x3d54 <strcpy>
    240c:	08 c0       	rjmp	.+16     	; 0x241e <TransmitInt+0x92>
    240e:	8e 01       	movw	r16, r28
    2410:	0f 5f       	subi	r16, 0xFF	; 255
    2412:	1f 4f       	sbci	r17, 0xFF	; 255
    2414:	f1 2c       	mov	r15, r1
    2416:	68 94       	set
    2418:	cc 24       	eor	r12, r12
    241a:	c5 f8       	bld	r12, 5
    241c:	d1 2c       	mov	r13, r1
    241e:	f8 01       	movw	r30, r16
    2420:	01 90       	ld	r0, Z+
    2422:	00 20       	and	r0, r0
    2424:	e9 f7       	brne	.-6      	; 0x2420 <TransmitInt+0x94>
    2426:	31 97       	sbiw	r30, 0x01	; 1
    2428:	e0 1b       	sub	r30, r16
    242a:	f1 0b       	sbc	r31, r17
    242c:	ee 15       	cp	r30, r14
    242e:	ff 05       	cpc	r31, r15
    2430:	00 f3       	brcs	.-64     	; 0x23f2 <TransmitInt+0x66>
    2432:	ce 01       	movw	r24, r28
    2434:	01 96       	adiw	r24, 0x01	; 1
    2436:	0e 94 42 1c 	call	0x3884	; 0x3884 <UART0TransmitString>
    243a:	2c 96       	adiw	r28, 0x0c	; 12
    243c:	0f b6       	in	r0, 0x3f	; 63
    243e:	f8 94       	cli
    2440:	de bf       	out	0x3e, r29	; 62
    2442:	0f be       	out	0x3f, r0	; 63
    2444:	cd bf       	out	0x3d, r28	; 61
    2446:	df 91       	pop	r29
    2448:	cf 91       	pop	r28
    244a:	1f 91       	pop	r17
    244c:	0f 91       	pop	r16
    244e:	ff 90       	pop	r15
    2450:	ef 90       	pop	r14
    2452:	df 90       	pop	r13
    2454:	cf 90       	pop	r12
    2456:	08 95       	ret

00002458 <TransmitLong>:
// -------------------------------------------------------------
// Zahl dezimal auf Interface ausgeben (ASCII)
// -------------------------------------------------------------

void TransmitLong(int32_t i, uint8_t digits)
{
    2458:	cf 92       	push	r12
    245a:	df 92       	push	r13
    245c:	ef 92       	push	r14
    245e:	ff 92       	push	r15
    2460:	0f 93       	push	r16
    2462:	1f 93       	push	r17
    2464:	cf 93       	push	r28
    2466:	df 93       	push	r29
    2468:	cd b7       	in	r28, 0x3d	; 61
    246a:	de b7       	in	r29, 0x3e	; 62
    246c:	66 97       	sbiw	r28, 0x16	; 22
    246e:	0f b6       	in	r0, 0x3f	; 63
    2470:	f8 94       	cli
    2472:	de bf       	out	0x3e, r29	; 62
    2474:	0f be       	out	0x3f, r0	; 63
    2476:	cd bf       	out	0x3d, r28	; 61
    2478:	e4 2e       	mov	r14, r20
	char str[11], temp[11];

    // minus sign
	if(i < 0)
    247a:	99 23       	and	r25, r25
    247c:	64 f4       	brge	.+24     	; 0x2496 <TransmitLong+0x3e>
	{
		strcpy(temp,"-");
    247e:	2d e2       	ldi	r18, 0x2D	; 45
    2480:	30 e0       	ldi	r19, 0x00	; 0
    2482:	3d 87       	std	Y+13, r19	; 0x0d
    2484:	2c 87       	std	Y+12, r18	; 0x0c
        i = -i;
    2486:	90 95       	com	r25
    2488:	80 95       	com	r24
    248a:	70 95       	com	r23
    248c:	61 95       	neg	r22
    248e:	7f 4f       	sbci	r23, 0xFF	; 255
    2490:	8f 4f       	sbci	r24, 0xFF	; 255
    2492:	9f 4f       	sbci	r25, 0xFF	; 255
    2494:	01 c0       	rjmp	.+2      	; 0x2498 <TransmitLong+0x40>
	}
	else
	{
		strcpy(temp,"");
    2496:	1c 86       	std	Y+12, r1	; 0x0c
    } else if (__radix < 2 || __radix > 36) {
	*__s = 0;
	return __s;
    } else {
	extern char *__ltoa_ncheck (long, char *, unsigned char);
	return __ltoa_ncheck (__val, __s, __radix);
    2498:	2a e0       	ldi	r18, 0x0A	; 10
    249a:	ae 01       	movw	r20, r28
    249c:	4f 5f       	subi	r20, 0xFF	; 255
    249e:	5f 4f       	sbci	r21, 0xFF	; 255
    24a0:	0e 94 bb 1e 	call	0x3d76	; 0x3d76 <__ltoa_ncheck>
	}

	ltoa(i,str,10);
	
	strcat(temp,str);
    24a4:	be 01       	movw	r22, r28
    24a6:	6f 5f       	subi	r22, 0xFF	; 255
    24a8:	7f 4f       	sbci	r23, 0xFF	; 255
    24aa:	ce 01       	movw	r24, r28
    24ac:	0c 96       	adiw	r24, 0x0c	; 12
    24ae:	0e 94 9f 1e 	call	0x3d3e	; 0x3d3e <strcat>
    strcpy(str,temp);
    24b2:	be 01       	movw	r22, r28
    24b4:	64 5f       	subi	r22, 0xF4	; 244
    24b6:	7f 4f       	sbci	r23, 0xFF	; 255
    24b8:	ce 01       	movw	r24, r28
    24ba:	01 96       	adiw	r24, 0x01	; 1
    24bc:	0e 94 aa 1e 	call	0x3d54	; 0x3d54 <strcpy>


    //format with leading spaces
	if(digits > 0)
    24c0:	e1 10       	cpse	r14, r1
    24c2:	0f c0       	rjmp	.+30     	; 0x24e2 <TransmitLong+0x8a>
    24c4:	20 c0       	rjmp	.+64     	; 0x2506 <TransmitLong+0xae>
	{
		while(strlen(str) < digits)
		{
			strcpy(temp," ");
    24c6:	dd 86       	std	Y+13, r13	; 0x0d
    24c8:	cc 86       	std	Y+12, r12	; 0x0c
			strcat(temp,str);
    24ca:	b8 01       	movw	r22, r16
    24cc:	ce 01       	movw	r24, r28
    24ce:	0c 96       	adiw	r24, 0x0c	; 12
    24d0:	0e 94 9f 1e 	call	0x3d3e	; 0x3d3e <strcat>
			strcpy(str,temp);
    24d4:	be 01       	movw	r22, r28
    24d6:	64 5f       	subi	r22, 0xF4	; 244
    24d8:	7f 4f       	sbci	r23, 0xFF	; 255
    24da:	c8 01       	movw	r24, r16
    24dc:	0e 94 aa 1e 	call	0x3d54	; 0x3d54 <strcpy>
    24e0:	08 c0       	rjmp	.+16     	; 0x24f2 <TransmitLong+0x9a>


    //format with leading spaces
	if(digits > 0)
	{
		while(strlen(str) < digits)
    24e2:	8e 01       	movw	r16, r28
    24e4:	0f 5f       	subi	r16, 0xFF	; 255
    24e6:	1f 4f       	sbci	r17, 0xFF	; 255
    24e8:	f1 2c       	mov	r15, r1
		{
			strcpy(temp," ");
    24ea:	68 94       	set
    24ec:	cc 24       	eor	r12, r12
    24ee:	c5 f8       	bld	r12, 5
    24f0:	d1 2c       	mov	r13, r1


    //format with leading spaces
	if(digits > 0)
	{
		while(strlen(str) < digits)
    24f2:	f8 01       	movw	r30, r16
    24f4:	01 90       	ld	r0, Z+
    24f6:	00 20       	and	r0, r0
    24f8:	e9 f7       	brne	.-6      	; 0x24f4 <TransmitLong+0x9c>
    24fa:	31 97       	sbiw	r30, 0x01	; 1
    24fc:	e0 1b       	sub	r30, r16
    24fe:	f1 0b       	sbc	r31, r17
    2500:	ee 15       	cp	r30, r14
    2502:	ff 05       	cpc	r31, r15
    2504:	00 f3       	brcs	.-64     	; 0x24c6 <TransmitLong+0x6e>
// String auf Interface ausgeben
// -------------------------------------------------------------

void TransmitString(char *string)
{
    UART0TransmitString(string);
    2506:	ce 01       	movw	r24, r28
    2508:	01 96       	adiw	r24, 0x01	; 1
    250a:	0e 94 42 1c 	call	0x3884	; 0x3884 <UART0TransmitString>
	}
    

    //send
	TransmitString(str);
}
    250e:	66 96       	adiw	r28, 0x16	; 22
    2510:	0f b6       	in	r0, 0x3f	; 63
    2512:	f8 94       	cli
    2514:	de bf       	out	0x3e, r29	; 62
    2516:	0f be       	out	0x3f, r0	; 63
    2518:	cd bf       	out	0x3d, r28	; 61
    251a:	df 91       	pop	r29
    251c:	cf 91       	pop	r28
    251e:	1f 91       	pop	r17
    2520:	0f 91       	pop	r16
    2522:	ff 90       	pop	r15
    2524:	ef 90       	pop	r14
    2526:	df 90       	pop	r13
    2528:	cf 90       	pop	r12
    252a:	08 95       	ret

0000252c <TransmitFloat>:
// -------------------------------------------------------------
// Zahl als Dezimalbruch auf Interface ausgeben (ASCII)
// -------------------------------------------------------------

void TransmitFloat(int16_t i, uint8_t digits, uint8_t div)
{
    252c:	5f 92       	push	r5
    252e:	6f 92       	push	r6
    2530:	7f 92       	push	r7
    2532:	8f 92       	push	r8
    2534:	9f 92       	push	r9
    2536:	af 92       	push	r10
    2538:	bf 92       	push	r11
    253a:	cf 92       	push	r12
    253c:	df 92       	push	r13
    253e:	ef 92       	push	r14
    2540:	ff 92       	push	r15
    2542:	0f 93       	push	r16
    2544:	1f 93       	push	r17
    2546:	cf 93       	push	r28
    2548:	df 93       	push	r29
    254a:	cd b7       	in	r28, 0x3d	; 61
    254c:	de b7       	in	r29, 0x3e	; 62
    254e:	64 97       	sbiw	r28, 0x14	; 20
    2550:	0f b6       	in	r0, 0x3f	; 63
    2552:	f8 94       	cli
    2554:	de bf       	out	0x3e, r29	; 62
    2556:	0f be       	out	0x3f, r0	; 63
    2558:	cd bf       	out	0x3d, r28	; 61
    255a:	4c 01       	movw	r8, r24
    255c:	76 2e       	mov	r7, r22
    255e:	c4 2e       	mov	r12, r20
	char str[10], temp[10];
	uint16_t pot = 1;
	uint8_t co = div;

	while(div > 0)
    2560:	44 23       	and	r20, r20
    2562:	89 f0       	breq	.+34     	; 0x2586 <TransmitFloat+0x5a>
    2564:	84 2f       	mov	r24, r20
    2566:	01 e0       	ldi	r16, 0x01	; 1
    2568:	10 e0       	ldi	r17, 0x00	; 0
	{
		pot *= 10;
    256a:	98 01       	movw	r18, r16
    256c:	22 0f       	add	r18, r18
    256e:	33 1f       	adc	r19, r19
    2570:	00 0f       	add	r16, r16
    2572:	11 1f       	adc	r17, r17
    2574:	00 0f       	add	r16, r16
    2576:	11 1f       	adc	r17, r17
    2578:	00 0f       	add	r16, r16
    257a:	11 1f       	adc	r17, r17
    257c:	02 0f       	add	r16, r18
    257e:	13 1f       	adc	r17, r19
		div--;
    2580:	81 50       	subi	r24, 0x01	; 1
{
	char str[10], temp[10];
	uint16_t pot = 1;
	uint8_t co = div;

	while(div > 0)
    2582:	99 f7       	brne	.-26     	; 0x256a <TransmitFloat+0x3e>
    2584:	02 c0       	rjmp	.+4      	; 0x258a <TransmitFloat+0x5e>
// -------------------------------------------------------------

void TransmitFloat(int16_t i, uint8_t digits, uint8_t div)
{
	char str[10], temp[10];
	uint16_t pot = 1;
    2586:	01 e0       	ldi	r16, 0x01	; 1
    2588:	10 e0       	ldi	r17, 0x00	; 0
	{
		pot *= 10;
		div--;
	}

	itoa(abs(i)%pot,str,10);
    258a:	c4 01       	movw	r24, r8
    258c:	99 20       	and	r9, r9
    258e:	24 f4       	brge	.+8      	; 0x2598 <TransmitFloat+0x6c>
    2590:	88 27       	eor	r24, r24
    2592:	99 27       	eor	r25, r25
    2594:	88 19       	sub	r24, r8
    2596:	99 09       	sbc	r25, r9
    2598:	58 2e       	mov	r5, r24
    259a:	69 2e       	mov	r6, r25
    } else if (__radix < 2 || __radix > 36) {
	*__s = 0;
	return __s;
    } else {
	extern char *__itoa_ncheck (int, char *, unsigned char);
	return __itoa_ncheck (__val, __s, __radix);
    259c:	b8 01       	movw	r22, r16
    259e:	0e 94 26 1e 	call	0x3c4c	; 0x3c4c <__udivmodhi4>
    25a2:	4a e0       	ldi	r20, 0x0A	; 10
    25a4:	be 01       	movw	r22, r28
    25a6:	6f 5f       	subi	r22, 0xFF	; 255
    25a8:	7f 4f       	sbci	r23, 0xFF	; 255
    25aa:	0e 94 b1 1e 	call	0x3d62	; 0x3d62 <__itoa_ncheck>

	while(strlen(str) < co)
    25ae:	ce 01       	movw	r24, r28
    25b0:	01 96       	adiw	r24, 0x01	; 1
    25b2:	7c 01       	movw	r14, r24
    25b4:	d1 2c       	mov	r13, r1
	{
		strcpy(temp,"0");
    25b6:	0f 2e       	mov	r0, r31
    25b8:	f0 e3       	ldi	r31, 0x30	; 48
    25ba:	af 2e       	mov	r10, r31
    25bc:	b1 2c       	mov	r11, r1
    25be:	f0 2d       	mov	r31, r0
    25c0:	0d c0       	rjmp	.+26     	; 0x25dc <TransmitFloat+0xb0>
    25c2:	bc 86       	std	Y+12, r11	; 0x0c
    25c4:	ab 86       	std	Y+11, r10	; 0x0b
		strcat(temp,str);
    25c6:	b7 01       	movw	r22, r14
    25c8:	ce 01       	movw	r24, r28
    25ca:	0b 96       	adiw	r24, 0x0b	; 11
    25cc:	0e 94 9f 1e 	call	0x3d3e	; 0x3d3e <strcat>
		strcpy(str,temp);
    25d0:	be 01       	movw	r22, r28
    25d2:	65 5f       	subi	r22, 0xF5	; 245
    25d4:	7f 4f       	sbci	r23, 0xFF	; 255
    25d6:	c7 01       	movw	r24, r14
    25d8:	0e 94 aa 1e 	call	0x3d54	; 0x3d54 <strcpy>
		div--;
	}

	itoa(abs(i)%pot,str,10);

	while(strlen(str) < co)
    25dc:	f7 01       	movw	r30, r14
    25de:	01 90       	ld	r0, Z+
    25e0:	00 20       	and	r0, r0
    25e2:	e9 f7       	brne	.-6      	; 0x25de <TransmitFloat+0xb2>
    25e4:	31 97       	sbiw	r30, 0x01	; 1
    25e6:	ee 19       	sub	r30, r14
    25e8:	ff 09       	sbc	r31, r15
    25ea:	ec 15       	cp	r30, r12
    25ec:	fd 05       	cpc	r31, r13
    25ee:	48 f3       	brcs	.-46     	; 0x25c2 <TransmitFloat+0x96>
    25f0:	7e 01       	movw	r14, r28
    25f2:	9b e0       	ldi	r25, 0x0B	; 11
    25f4:	e9 0e       	add	r14, r25
    25f6:	f1 1c       	adc	r15, r1
    25f8:	85 2d       	mov	r24, r5
    25fa:	96 2d       	mov	r25, r6
    25fc:	b8 01       	movw	r22, r16
    25fe:	0e 94 26 1e 	call	0x3c4c	; 0x3c4c <__udivmodhi4>
    2602:	cb 01       	movw	r24, r22
    2604:	4a e0       	ldi	r20, 0x0A	; 10
    2606:	b7 01       	movw	r22, r14
    2608:	0e 94 b1 1e 	call	0x3d62	; 0x3d62 <__itoa_ncheck>
		strcpy(str,temp);
	}

	itoa(abs(i)/pot,temp,10);

	strcat(temp,".");
    260c:	f7 01       	movw	r30, r14
    260e:	01 90       	ld	r0, Z+
    2610:	00 20       	and	r0, r0
    2612:	e9 f7       	brne	.-6      	; 0x260e <TransmitFloat+0xe2>
    2614:	31 97       	sbiw	r30, 0x01	; 1
    2616:	8e e2       	ldi	r24, 0x2E	; 46
    2618:	90 e0       	ldi	r25, 0x00	; 0
    261a:	91 83       	std	Z+1, r25	; 0x01
    261c:	80 83       	st	Z, r24
	strcat(temp,str);
    261e:	be 01       	movw	r22, r28
    2620:	6f 5f       	subi	r22, 0xFF	; 255
    2622:	7f 4f       	sbci	r23, 0xFF	; 255
    2624:	c7 01       	movw	r24, r14
    2626:	0e 94 9f 1e 	call	0x3d3e	; 0x3d3e <strcat>


    // minus sign
	if(i < 0)
    262a:	99 20       	and	r9, r9
    262c:	2c f4       	brge	.+10     	; 0x2638 <TransmitFloat+0x10c>
	{
		strcpy(str,"-");
    262e:	8d e2       	ldi	r24, 0x2D	; 45
    2630:	90 e0       	ldi	r25, 0x00	; 0
    2632:	9a 83       	std	Y+2, r25	; 0x02
    2634:	89 83       	std	Y+1, r24	; 0x01
    2636:	01 c0       	rjmp	.+2      	; 0x263a <TransmitFloat+0x10e>
	}
	else
	{
		strcpy(str,"");
    2638:	19 82       	std	Y+1, r1	; 0x01
	}
	
	strcat(str,temp);
    263a:	be 01       	movw	r22, r28
    263c:	65 5f       	subi	r22, 0xF5	; 245
    263e:	7f 4f       	sbci	r23, 0xFF	; 255
    2640:	ce 01       	movw	r24, r28
    2642:	01 96       	adiw	r24, 0x01	; 1
    2644:	0e 94 9f 1e 	call	0x3d3e	; 0x3d3e <strcat>


    //format with leading spaces
	if(digits > 0)
    2648:	71 10       	cpse	r7, r1
    264a:	0f c0       	rjmp	.+30     	; 0x266a <TransmitFloat+0x13e>
    264c:	21 c0       	rjmp	.+66     	; 0x2690 <TransmitFloat+0x164>
	{
		while(strlen(str) < digits)
		{
			strcpy(temp," ");
    264e:	dc 86       	std	Y+12, r13	; 0x0c
    2650:	cb 86       	std	Y+11, r12	; 0x0b
			strcat(temp,str);
    2652:	b8 01       	movw	r22, r16
    2654:	ce 01       	movw	r24, r28
    2656:	0b 96       	adiw	r24, 0x0b	; 11
    2658:	0e 94 9f 1e 	call	0x3d3e	; 0x3d3e <strcat>
			strcpy(str,temp);
    265c:	be 01       	movw	r22, r28
    265e:	65 5f       	subi	r22, 0xF5	; 245
    2660:	7f 4f       	sbci	r23, 0xFF	; 255
    2662:	c8 01       	movw	r24, r16
    2664:	0e 94 aa 1e 	call	0x3d54	; 0x3d54 <strcpy>
    2668:	09 c0       	rjmp	.+18     	; 0x267c <TransmitFloat+0x150>


    //format with leading spaces
	if(digits > 0)
	{
		while(strlen(str) < digits)
    266a:	8e 01       	movw	r16, r28
    266c:	0f 5f       	subi	r16, 0xFF	; 255
    266e:	1f 4f       	sbci	r17, 0xFF	; 255
    2670:	e7 2c       	mov	r14, r7
    2672:	f1 2c       	mov	r15, r1
		{
			strcpy(temp," ");
    2674:	68 94       	set
    2676:	cc 24       	eor	r12, r12
    2678:	c5 f8       	bld	r12, 5
    267a:	d1 2c       	mov	r13, r1


    //format with leading spaces
	if(digits > 0)
	{
		while(strlen(str) < digits)
    267c:	f8 01       	movw	r30, r16
    267e:	01 90       	ld	r0, Z+
    2680:	00 20       	and	r0, r0
    2682:	e9 f7       	brne	.-6      	; 0x267e <TransmitFloat+0x152>
    2684:	31 97       	sbiw	r30, 0x01	; 1
    2686:	e0 1b       	sub	r30, r16
    2688:	f1 0b       	sbc	r31, r17
    268a:	ee 15       	cp	r30, r14
    268c:	ff 05       	cpc	r31, r15
    268e:	f8 f2       	brcs	.-66     	; 0x264e <TransmitFloat+0x122>
// String auf Interface ausgeben
// -------------------------------------------------------------

void TransmitString(char *string)
{
    UART0TransmitString(string);
    2690:	ce 01       	movw	r24, r28
    2692:	01 96       	adiw	r24, 0x01	; 1
    2694:	0e 94 42 1c 	call	0x3884	; 0x3884 <UART0TransmitString>
	}
    

    //send
	TransmitString(str);
}
    2698:	64 96       	adiw	r28, 0x14	; 20
    269a:	0f b6       	in	r0, 0x3f	; 63
    269c:	f8 94       	cli
    269e:	de bf       	out	0x3e, r29	; 62
    26a0:	0f be       	out	0x3f, r0	; 63
    26a2:	cd bf       	out	0x3d, r28	; 61
    26a4:	df 91       	pop	r29
    26a6:	cf 91       	pop	r28
    26a8:	1f 91       	pop	r17
    26aa:	0f 91       	pop	r16
    26ac:	ff 90       	pop	r15
    26ae:	ef 90       	pop	r14
    26b0:	df 90       	pop	r13
    26b2:	cf 90       	pop	r12
    26b4:	bf 90       	pop	r11
    26b6:	af 90       	pop	r10
    26b8:	9f 90       	pop	r9
    26ba:	8f 90       	pop	r8
    26bc:	7f 90       	pop	r7
    26be:	6f 90       	pop	r6
    26c0:	5f 90       	pop	r5
    26c2:	08 95       	ret

000026c4 <TransmitByte>:
// -------------------------------------------------------------
// Zahl als Dezimalbruch auf Interface ausgeben (ASCII)
// -------------------------------------------------------------

void TransmitByte(uint8_t byte)
{
    26c4:	cf 93       	push	r28
    26c6:	df 93       	push	r29
    26c8:	cd b7       	in	r28, 0x3d	; 61
    26ca:	de b7       	in	r29, 0x3e	; 62
    26cc:	29 97       	sbiw	r28, 0x09	; 9
    26ce:	0f b6       	in	r0, 0x3f	; 63
    26d0:	f8 94       	cli
    26d2:	de bf       	out	0x3e, r29	; 62
    26d4:	0f be       	out	0x3f, r0	; 63
    26d6:	cd bf       	out	0x3d, r28	; 61
	char str[] = "00000000";
    26d8:	99 e0       	ldi	r25, 0x09	; 9
    26da:	e3 e9       	ldi	r30, 0x93	; 147
    26dc:	f2 e0       	ldi	r31, 0x02	; 2
    26de:	de 01       	movw	r26, r28
    26e0:	11 96       	adiw	r26, 0x01	; 1
    26e2:	01 90       	ld	r0, Z+
    26e4:	0d 92       	st	X+, r0
    26e6:	9a 95       	dec	r25
    26e8:	e1 f7       	brne	.-8      	; 0x26e2 <TransmitByte+0x1e>
    26ea:	fe 01       	movw	r30, r28
    26ec:	31 96       	adiw	r30, 0x01	; 1
	
	for(int i = 7; i >= 0; i--)
    26ee:	27 e0       	ldi	r18, 0x07	; 7
    26f0:	30 e0       	ldi	r19, 0x00	; 0
	{
		if(byte & (1 << i)){
    26f2:	90 e0       	ldi	r25, 0x00	; 0
			str[7-i] = '1';
		}
		else{
			str[7-i] = '0';		
    26f4:	70 e3       	ldi	r23, 0x30	; 48
	char str[] = "00000000";
	
	for(int i = 7; i >= 0; i--)
	{
		if(byte & (1 << i)){
			str[7-i] = '1';
    26f6:	61 e3       	ldi	r22, 0x31	; 49
{
	char str[] = "00000000";
	
	for(int i = 7; i >= 0; i--)
	{
		if(byte & (1 << i)){
    26f8:	ac 01       	movw	r20, r24
    26fa:	02 2e       	mov	r0, r18
    26fc:	02 c0       	rjmp	.+4      	; 0x2702 <TransmitByte+0x3e>
    26fe:	55 95       	asr	r21
    2700:	47 95       	ror	r20
    2702:	0a 94       	dec	r0
    2704:	e2 f7       	brpl	.-8      	; 0x26fe <TransmitByte+0x3a>
    2706:	40 ff       	sbrs	r20, 0
    2708:	02 c0       	rjmp	.+4      	; 0x270e <TransmitByte+0x4a>
			str[7-i] = '1';
    270a:	60 83       	st	Z, r22
    270c:	01 c0       	rjmp	.+2      	; 0x2710 <TransmitByte+0x4c>
		}
		else{
			str[7-i] = '0';		
    270e:	70 83       	st	Z, r23

void TransmitByte(uint8_t byte)
{
	char str[] = "00000000";
	
	for(int i = 7; i >= 0; i--)
    2710:	21 50       	subi	r18, 0x01	; 1
    2712:	31 09       	sbc	r19, r1
    2714:	31 96       	adiw	r30, 0x01	; 1
    2716:	2f 3f       	cpi	r18, 0xFF	; 255
    2718:	4f ef       	ldi	r20, 0xFF	; 255
    271a:	34 07       	cpc	r19, r20
    271c:	69 f7       	brne	.-38     	; 0x26f8 <TransmitByte+0x34>
// String auf Interface ausgeben
// -------------------------------------------------------------

void TransmitString(char *string)
{
    UART0TransmitString(string);
    271e:	ce 01       	movw	r24, r28
    2720:	01 96       	adiw	r24, 0x01	; 1
    2722:	0e 94 42 1c 	call	0x3884	; 0x3884 <UART0TransmitString>
	}
	

	//send
	TransmitString(str);
}
    2726:	29 96       	adiw	r28, 0x09	; 9
    2728:	0f b6       	in	r0, 0x3f	; 63
    272a:	f8 94       	cli
    272c:	de bf       	out	0x3e, r29	; 62
    272e:	0f be       	out	0x3f, r0	; 63
    2730:	cd bf       	out	0x3d, r28	; 61
    2732:	df 91       	pop	r29
    2734:	cf 91       	pop	r28
    2736:	08 95       	ret

00002738 <TransmitByte_Reverse>:

void TransmitByte_Reverse(uint8_t byte)
{
    2738:	cf 93       	push	r28
    273a:	df 93       	push	r29
    273c:	cd b7       	in	r28, 0x3d	; 61
    273e:	de b7       	in	r29, 0x3e	; 62
    2740:	29 97       	sbiw	r28, 0x09	; 9
    2742:	0f b6       	in	r0, 0x3f	; 63
    2744:	f8 94       	cli
    2746:	de bf       	out	0x3e, r29	; 62
    2748:	0f be       	out	0x3f, r0	; 63
    274a:	cd bf       	out	0x3d, r28	; 61
	char str[] = "00000000";
    274c:	99 e0       	ldi	r25, 0x09	; 9
    274e:	e3 e9       	ldi	r30, 0x93	; 147
    2750:	f2 e0       	ldi	r31, 0x02	; 2
    2752:	de 01       	movw	r26, r28
    2754:	11 96       	adiw	r26, 0x01	; 1
    2756:	01 90       	ld	r0, Z+
    2758:	0d 92       	st	X+, r0
    275a:	9a 95       	dec	r25
    275c:	e1 f7       	brne	.-8      	; 0x2756 <TransmitByte_Reverse+0x1e>
    275e:	fe 01       	movw	r30, r28
    2760:	31 96       	adiw	r30, 0x01	; 1
	
	for(int i = 0; i < 8; i++)
    2762:	20 e0       	ldi	r18, 0x00	; 0
    2764:	30 e0       	ldi	r19, 0x00	; 0
	{
		if(byte & (1 << i)){
    2766:	90 e0       	ldi	r25, 0x00	; 0
			str[i] = '1';
		}
		else{
			str[i] = '0';
    2768:	70 e3       	ldi	r23, 0x30	; 48
	char str[] = "00000000";
	
	for(int i = 0; i < 8; i++)
	{
		if(byte & (1 << i)){
			str[i] = '1';
    276a:	61 e3       	ldi	r22, 0x31	; 49
{
	char str[] = "00000000";
	
	for(int i = 0; i < 8; i++)
	{
		if(byte & (1 << i)){
    276c:	ac 01       	movw	r20, r24
    276e:	02 2e       	mov	r0, r18
    2770:	02 c0       	rjmp	.+4      	; 0x2776 <TransmitByte_Reverse+0x3e>
    2772:	55 95       	asr	r21
    2774:	47 95       	ror	r20
    2776:	0a 94       	dec	r0
    2778:	e2 f7       	brpl	.-8      	; 0x2772 <TransmitByte_Reverse+0x3a>
    277a:	40 ff       	sbrs	r20, 0
    277c:	02 c0       	rjmp	.+4      	; 0x2782 <TransmitByte_Reverse+0x4a>
			str[i] = '1';
    277e:	60 83       	st	Z, r22
    2780:	01 c0       	rjmp	.+2      	; 0x2784 <TransmitByte_Reverse+0x4c>
		}
		else{
			str[i] = '0';
    2782:	70 83       	st	Z, r23

void TransmitByte_Reverse(uint8_t byte)
{
	char str[] = "00000000";
	
	for(int i = 0; i < 8; i++)
    2784:	2f 5f       	subi	r18, 0xFF	; 255
    2786:	3f 4f       	sbci	r19, 0xFF	; 255
    2788:	31 96       	adiw	r30, 0x01	; 1
    278a:	28 30       	cpi	r18, 0x08	; 8
    278c:	31 05       	cpc	r19, r1
    278e:	71 f7       	brne	.-36     	; 0x276c <TransmitByte_Reverse+0x34>
// String auf Interface ausgeben
// -------------------------------------------------------------

void TransmitString(char *string)
{
    UART0TransmitString(string);
    2790:	ce 01       	movw	r24, r28
    2792:	01 96       	adiw	r24, 0x01	; 1
    2794:	0e 94 42 1c 	call	0x3884	; 0x3884 <UART0TransmitString>
	}
	

	//send
	TransmitString(str);
}
    2798:	29 96       	adiw	r28, 0x09	; 9
    279a:	0f b6       	in	r0, 0x3f	; 63
    279c:	f8 94       	cli
    279e:	de bf       	out	0x3e, r29	; 62
    27a0:	0f be       	out	0x3f, r0	; 63
    27a2:	cd bf       	out	0x3d, r28	; 61
    27a4:	df 91       	pop	r29
    27a6:	cf 91       	pop	r28
    27a8:	08 95       	ret

000027aa <TerminalParseCommand>:
//////////////////////////////////////////////////////////////////////////////////
//							Search witch Command								//
//////////////////////////////////////////////////////////////////////////////////

void TerminalParseCommand(char *string)
{
    27aa:	df 92       	push	r13
    27ac:	ef 92       	push	r14
    27ae:	ff 92       	push	r15
    27b0:	0f 93       	push	r16
    27b2:	1f 93       	push	r17
    27b4:	cf 93       	push	r28
    27b6:	df 93       	push	r29
    27b8:	cd b7       	in	r28, 0x3d	; 61
    27ba:	de b7       	in	r29, 0x3e	; 62
    27bc:	2f 97       	sbiw	r28, 0x0f	; 15
    27be:	0f b6       	in	r0, 0x3f	; 63
    27c0:	f8 94       	cli
    27c2:	de bf       	out	0x3e, r29	; 62
    27c4:	0f be       	out	0x3f, r0	; 63
    27c6:	cd bf       	out	0x3d, r28	; 61
    27c8:	8c 01       	movw	r16, r24
	uint16_t cmd = _MK16(string[1],string[2]);
    27ca:	dc 01       	movw	r26, r24
    27cc:	12 96       	adiw	r26, 0x02	; 2
    27ce:	2c 91       	ld	r18, X
    27d0:	12 97       	sbiw	r26, 0x02	; 2
    27d2:	11 96       	adiw	r26, 0x01	; 1
    27d4:	8c 91       	ld	r24, X
    27d6:	11 97       	sbiw	r26, 0x01	; 1
	int8_t slotNr = 0;
	uint8_t temp8 = 0;
    27d8:	19 82       	std	Y+1, r1	; 0x01
	int16_t temp16 = 0;
    27da:	1b 82       	std	Y+3, r1	; 0x03
    27dc:	1a 82       	std	Y+2, r1	; 0x02
	int32_t temp32 = 0;
    27de:	1c 82       	std	Y+4, r1	; 0x04
    27e0:	1d 82       	std	Y+5, r1	; 0x05
    27e2:	1e 82       	std	Y+6, r1	; 0x06
    27e4:	1f 82       	std	Y+7, r1	; 0x07
	//									RESET
	//***************************************************************************
	
	#pragma region Reset
	
	if (string[0] == 'R')
    27e6:	9c 91       	ld	r25, X
    27e8:	92 35       	cpi	r25, 0x52	; 82
    27ea:	09 f0       	breq	.+2      	; 0x27ee <TerminalParseCommand+0x44>
    27ec:	3e c0       	rjmp	.+124    	; 0x286a <TerminalParseCommand+0xc0>
	{
		//If RST,'reset' command
		if (string[1] == 'S' && string[2] == 'T' && string[3] == '\n')
    27ee:	83 35       	cpi	r24, 0x53	; 83
    27f0:	09 f0       	breq	.+2      	; 0x27f4 <TerminalParseCommand+0x4a>
    27f2:	c0 c6       	rjmp	.+3456   	; 0x3574 <TerminalParseCommand+0xdca>
    27f4:	24 35       	cpi	r18, 0x54	; 84
    27f6:	09 f0       	breq	.+2      	; 0x27fa <TerminalParseCommand+0x50>
    27f8:	bd c6       	rjmp	.+3450   	; 0x3574 <TerminalParseCommand+0xdca>
    27fa:	13 96       	adiw	r26, 0x03	; 3
    27fc:	8c 91       	ld	r24, X
    27fe:	8a 30       	cpi	r24, 0x0A	; 10
    2800:	89 f4       	brne	.+34     	; 0x2824 <TerminalParseCommand+0x7a>
		{
			current_source_enabled = 0;
    2802:	10 92 41 05 	sts	0x0541, r1	; 0x800541 <current_source_enabled>
// String & CRLF auf Interface ausgeben
// -------------------------------------------------------------

void TransmitStringLn(char *string)
{
    UART0TransmitStringLn(string);
    2806:	8c e9       	ldi	r24, 0x9C	; 156
    2808:	92 e0       	ldi	r25, 0x02	; 2
    280a:	0e 94 53 1c 	call	0x38a6	; 0x38a6 <UART0TransmitStringLn>
				: "r0"
		);
	}
	else
	{
		__asm__ __volatile__ (
    280e:	98 e0       	ldi	r25, 0x08	; 8
    2810:	88 e1       	ldi	r24, 0x18	; 24
    2812:	0f b6       	in	r0, 0x3f	; 63
    2814:	f8 94       	cli
    2816:	a8 95       	wdr
    2818:	80 93 60 00 	sts	0x0060, r24	; 0x800060 <__TEXT_REGION_LENGTH__+0x700060>
    281c:	0f be       	out	0x3f, r0	; 63
    281e:	90 93 60 00 	sts	0x0060, r25	; 0x800060 <__TEXT_REGION_LENGTH__+0x700060>
    2822:	ff cf       	rjmp	.-2      	; 0x2822 <TerminalParseCommand+0x78>
			wdt_enable(WDTO_15MS);
			while(1);
		}

		//If RST,'reset' command with factory defaults
		else if (string[1] == 'S' && string[2] == 'T' && string[3] == ' ' && string[4] == '1' && string[5] == '\n')
    2824:	80 32       	cpi	r24, 0x20	; 32
    2826:	09 f0       	breq	.+2      	; 0x282a <TerminalParseCommand+0x80>
    2828:	a5 c6       	rjmp	.+3402   	; 0x3574 <TerminalParseCommand+0xdca>
    282a:	f8 01       	movw	r30, r16
    282c:	84 81       	ldd	r24, Z+4	; 0x04
    282e:	81 33       	cpi	r24, 0x31	; 49
    2830:	09 f0       	breq	.+2      	; 0x2834 <TerminalParseCommand+0x8a>
    2832:	a0 c6       	rjmp	.+3392   	; 0x3574 <TerminalParseCommand+0xdca>
    2834:	85 81       	ldd	r24, Z+5	; 0x05
    2836:	8a 30       	cpi	r24, 0x0A	; 10
    2838:	09 f0       	breq	.+2      	; 0x283c <TerminalParseCommand+0x92>
    283a:	9c c6       	rjmp	.+3384   	; 0x3574 <TerminalParseCommand+0xdca>
		{
			current_source_enabled = 0;
    283c:	10 92 41 05 	sts	0x0541, r1	; 0x800541 <current_source_enabled>

			eeprom_write_word(&firmware_code_eeprom, 0xFFFF);
    2840:	6f ef       	ldi	r22, 0xFF	; 255
    2842:	7f ef       	ldi	r23, 0xFF	; 255
    2844:	8f e4       	ldi	r24, 0x4F	; 79
    2846:	90 e0       	ldi	r25, 0x00	; 0
    2848:	0e 94 51 1f 	call	0x3ea2	; 0x3ea2 <eeprom_write_word>
// String & CRLF auf Interface ausgeben
// -------------------------------------------------------------

void TransmitStringLn(char *string)
{
    UART0TransmitStringLn(string);
    284c:	83 ea       	ldi	r24, 0xA3	; 163
    284e:	92 e0       	ldi	r25, 0x02	; 2
    2850:	0e 94 53 1c 	call	0x38a6	; 0x38a6 <UART0TransmitStringLn>
    2854:	98 e0       	ldi	r25, 0x08	; 8
    2856:	88 e1       	ldi	r24, 0x18	; 24
    2858:	0f b6       	in	r0, 0x3f	; 63
    285a:	f8 94       	cli
    285c:	a8 95       	wdr
    285e:	80 93 60 00 	sts	0x0060, r24	; 0x800060 <__TEXT_REGION_LENGTH__+0x700060>
    2862:	0f be       	out	0x3f, r0	; 63
    2864:	90 93 60 00 	sts	0x0060, r25	; 0x800060 <__TEXT_REGION_LENGTH__+0x700060>
    2868:	ff cf       	rjmp	.-2      	; 0x2868 <TerminalParseCommand+0xbe>
//							Search witch Command								//
//////////////////////////////////////////////////////////////////////////////////

void TerminalParseCommand(char *string)
{
	uint16_t cmd = _MK16(string[1],string[2]);
    286a:	e8 2e       	mov	r14, r24
    286c:	f1 2c       	mov	r15, r1
    286e:	f2 2a       	or	r15, r18
	//									SET
	//***************************************************************************

	#pragma region Set

	else if (string[0] == 'S')
    2870:	93 35       	cpi	r25, 0x53	; 83
    2872:	09 f0       	breq	.+2      	; 0x2876 <TerminalParseCommand+0xcc>
    2874:	b1 c4       	rjmp	.+2402   	; 0x31d8 <TerminalParseCommand+0xa2e>
	{
		//Must executed here, later no chance, before not safe
		slotNr = string[3] - '0';
    2876:	d8 01       	movw	r26, r16
    2878:	13 96       	adiw	r26, 0x03	; 3
    287a:	8c 91       	ld	r24, X
		//Set-Commands, that apply for all 19''-Cards (Definition: Space @ 3 character)
		//*****************************************************************************
		
		#pragma region General_Set_Commands
		
		if(string[3] == ' '){
    287c:	80 32       	cpi	r24, 0x20	; 32
    287e:	09 f0       	breq	.+2      	; 0x2882 <TerminalParseCommand+0xd8>
    2880:	0e c2       	rjmp	.+1052   	; 0x2c9e <TerminalParseCommand+0x4f4>
			
			//Check the second two characters
			switch (cmd){
    2882:	b0 e5       	ldi	r27, 0x50	; 80
    2884:	eb 16       	cp	r14, r27
    2886:	b2 e5       	ldi	r27, 0x52	; 82
    2888:	fb 06       	cpc	r15, r27
    288a:	09 f4       	brne	.+2      	; 0x288e <TerminalParseCommand+0xe4>
    288c:	a6 c1       	rjmp	.+844    	; 0x2bda <TerminalParseCommand+0x430>
    288e:	00 f5       	brcc	.+64     	; 0x28d0 <TerminalParseCommand+0x126>
    2890:	f5 e4       	ldi	r31, 0x45	; 69
    2892:	ef 16       	cp	r14, r31
    2894:	fe e4       	ldi	r31, 0x4E	; 78
    2896:	ff 06       	cpc	r15, r31
    2898:	d1 f1       	breq	.+116    	; 0x290e <TerminalParseCommand+0x164>
    289a:	68 f4       	brcc	.+26     	; 0x28b6 <TerminalParseCommand+0x10c>
    289c:	3e e4       	ldi	r19, 0x4E	; 78
    289e:	e3 16       	cp	r14, r19
    28a0:	34 e4       	ldi	r19, 0x44	; 68
    28a2:	f3 06       	cpc	r15, r19
    28a4:	09 f4       	brne	.+2      	; 0x28a8 <TerminalParseCommand+0xfe>
    28a6:	40 c1       	rjmp	.+640    	; 0x2b28 <TerminalParseCommand+0x37e>
    28a8:	84 e5       	ldi	r24, 0x54	; 84
    28aa:	e8 16       	cp	r14, r24
    28ac:	84 e4       	ldi	r24, 0x44	; 68
    28ae:	f8 06       	cpc	r15, r24
    28b0:	09 f4       	brne	.+2      	; 0x28b4 <TerminalParseCommand+0x10a>
    28b2:	66 c1       	rjmp	.+716    	; 0x2b80 <TerminalParseCommand+0x3d6>
    28b4:	f0 c1       	rjmp	.+992    	; 0x2c96 <TerminalParseCommand+0x4ec>
    28b6:	a8 e4       	ldi	r26, 0x48	; 72
    28b8:	ea 16       	cp	r14, r26
    28ba:	a0 e5       	ldi	r26, 0x50	; 80
    28bc:	fa 06       	cpc	r15, r26
    28be:	09 f4       	brne	.+2      	; 0x28c2 <TerminalParseCommand+0x118>
    28c0:	b1 c0       	rjmp	.+354    	; 0x2a24 <TerminalParseCommand+0x27a>
    28c2:	bd e4       	ldi	r27, 0x4D	; 77
    28c4:	eb 16       	cp	r14, r27
    28c6:	b0 e5       	ldi	r27, 0x50	; 80
    28c8:	fb 06       	cpc	r15, r27
    28ca:	09 f4       	brne	.+2      	; 0x28ce <TerminalParseCommand+0x124>
    28cc:	ec c0       	rjmp	.+472    	; 0x2aa6 <TerminalParseCommand+0x2fc>
    28ce:	e3 c1       	rjmp	.+966    	; 0x2c96 <TerminalParseCommand+0x4ec>
    28d0:	e0 e5       	ldi	r30, 0x50	; 80
    28d2:	ee 16       	cp	r14, r30
    28d4:	e3 e5       	ldi	r30, 0x53	; 83
    28d6:	fe 06       	cpc	r15, r30
    28d8:	d1 f1       	breq	.+116    	; 0x294e <TerminalParseCommand+0x1a4>
    28da:	68 f4       	brcc	.+26     	; 0x28f6 <TerminalParseCommand+0x14c>
    28dc:	24 e4       	ldi	r18, 0x44	; 68
    28de:	e2 16       	cp	r14, r18
    28e0:	23 e5       	ldi	r18, 0x53	; 83
    28e2:	f2 06       	cpc	r15, r18
    28e4:	09 f4       	brne	.+2      	; 0x28e8 <TerminalParseCommand+0x13e>
    28e6:	68 c0       	rjmp	.+208    	; 0x29b8 <TerminalParseCommand+0x20e>
    28e8:	3d e4       	ldi	r19, 0x4D	; 77
    28ea:	e3 16       	cp	r14, r19
    28ec:	33 e5       	ldi	r19, 0x53	; 83
    28ee:	f3 06       	cpc	r15, r19
    28f0:	09 f4       	brne	.+2      	; 0x28f4 <TerminalParseCommand+0x14a>
    28f2:	7d c0       	rjmp	.+250    	; 0x29ee <TerminalParseCommand+0x244>
    28f4:	d0 c1       	rjmp	.+928    	; 0x2c96 <TerminalParseCommand+0x4ec>
    28f6:	83 e5       	ldi	r24, 0x53	; 83
    28f8:	e8 16       	cp	r14, r24
    28fa:	f8 06       	cpc	r15, r24
    28fc:	09 f4       	brne	.+2      	; 0x2900 <TerminalParseCommand+0x156>
    28fe:	41 c0       	rjmp	.+130    	; 0x2982 <TerminalParseCommand+0x1d8>
    2900:	a3 e4       	ldi	r26, 0x43	; 67
    2902:	ea 16       	cp	r14, r26
    2904:	a4 e5       	ldi	r26, 0x54	; 84
    2906:	fa 06       	cpc	r15, r26
    2908:	09 f4       	brne	.+2      	; 0x290c <TerminalParseCommand+0x162>
    290a:	90 c1       	rjmp	.+800    	; 0x2c2c <TerminalParseCommand+0x482>
    290c:	c4 c1       	rjmp	.+904    	; 0x2c96 <TerminalParseCommand+0x4ec>
			
				//1. Enable************************************************************
				#pragma region 1.Enable		
				case _MK16('E','N'):
				
					if (string[4] == '1' && string[5] == '\n')
    290e:	f8 01       	movw	r30, r16
    2910:	84 81       	ldd	r24, Z+4	; 0x04
    2912:	81 33       	cpi	r24, 0x31	; 49
    2914:	59 f4       	brne	.+22     	; 0x292c <TerminalParseCommand+0x182>
    2916:	85 81       	ldd	r24, Z+5	; 0x05
    2918:	8a 30       	cpi	r24, 0x0A	; 10
    291a:	a9 f4       	brne	.+42     	; 0x2946 <TerminalParseCommand+0x19c>
					{
						current_source_enabled = 1;
    291c:	81 e0       	ldi	r24, 0x01	; 1
    291e:	80 93 41 05 	sts	0x0541, r24	; 0x800541 <current_source_enabled>
						set_bit(ENABLE);
    2922:	72 9a       	sbi	0x0e, 2	; 14
// String & CRLF auf Interface ausgeben
// -------------------------------------------------------------

void TransmitStringLn(char *string)
{
    UART0TransmitStringLn(string);
    2924:	81 eb       	ldi	r24, 0xB1	; 177
    2926:	92 e0       	ldi	r25, 0x02	; 2
    2928:	be d7       	rcall	.+3964   	; 0x38a6 <UART0TransmitStringLn>
    292a:	24 c6       	rjmp	.+3144   	; 0x3574 <TerminalParseCommand+0xdca>
						current_source_enabled = 1;
						set_bit(ENABLE);

						TransmitStringLn("SEN=1");
					}
					else if (string[4] == '0' && string[5] == '\n')
    292c:	80 33       	cpi	r24, 0x30	; 48
    292e:	59 f4       	brne	.+22     	; 0x2946 <TerminalParseCommand+0x19c>
    2930:	85 81       	ldd	r24, Z+5	; 0x05
    2932:	8a 30       	cpi	r24, 0x0A	; 10
    2934:	41 f4       	brne	.+16     	; 0x2946 <TerminalParseCommand+0x19c>
					{
						current_source_enabled = 0;
    2936:	10 92 41 05 	sts	0x0541, r1	; 0x800541 <current_source_enabled>
						PulseStop();
    293a:	30 d8       	rcall	.-4000   	; 0x199c <PulseStop>
// String & CRLF auf Interface ausgeben
// -------------------------------------------------------------

void TransmitStringLn(char *string)
{
    UART0TransmitStringLn(string);
    293c:	72 98       	cbi	0x0e, 2	; 14
    293e:	87 eb       	ldi	r24, 0xB7	; 183
    2940:	92 e0       	ldi	r25, 0x02	; 2
    2942:	b1 d7       	rcall	.+3938   	; 0x38a6 <UART0TransmitStringLn>
    2944:	17 c6       	rjmp	.+3118   	; 0x3574 <TerminalParseCommand+0xdca>
    2946:	8e e0       	ldi	r24, 0x0E	; 14
    2948:	92 e0       	ldi	r25, 0x02	; 2
    294a:	ad d7       	rcall	.+3930   	; 0x38a6 <UART0TransmitStringLn>
				//2. Start pulses******************************************************
				#pragma region 2.PulseStarten
				//2.1 Start Standard TTA			
				case _MK16('P','S'):
				
					if (string[4] == '1' && string[5] == '\n')
    294c:	13 c6       	rjmp	.+3110   	; 0x3574 <TerminalParseCommand+0xdca>
    294e:	f8 01       	movw	r30, r16
    2950:	84 81       	ldd	r24, Z+4	; 0x04
    2952:	81 33       	cpi	r24, 0x31	; 49
    2954:	41 f4       	brne	.+16     	; 0x2966 <TerminalParseCommand+0x1bc>
					{
						PulseStart_stdTTA();
    2956:	85 81       	ldd	r24, Z+5	; 0x05
// String & CRLF auf Interface ausgeben
// -------------------------------------------------------------

void TransmitStringLn(char *string)
{
    UART0TransmitStringLn(string);
    2958:	8a 30       	cpi	r24, 0x0A	; 10
    295a:	79 f4       	brne	.+30     	; 0x297a <TerminalParseCommand+0x1d0>
    295c:	a6 d8       	rcall	.-3764   	; 0x1aaa <PulseStart_stdTTA>
    295e:	8d eb       	ldi	r24, 0xBD	; 189
					{
						PulseStart_stdTTA();

						TransmitStringLn("SPS=1");
					}
					else if (string[4] == '0' && string[5] == '\n')
    2960:	92 e0       	ldi	r25, 0x02	; 2
    2962:	a1 d7       	rcall	.+3906   	; 0x38a6 <UART0TransmitStringLn>
    2964:	07 c6       	rjmp	.+3086   	; 0x3574 <TerminalParseCommand+0xdca>
					{
						PulseStop();
    2966:	80 33       	cpi	r24, 0x30	; 48
// String & CRLF auf Interface ausgeben
// -------------------------------------------------------------

void TransmitStringLn(char *string)
{
    UART0TransmitStringLn(string);
    2968:	41 f4       	brne	.+16     	; 0x297a <TerminalParseCommand+0x1d0>
    296a:	85 81       	ldd	r24, Z+5	; 0x05
    296c:	8a 30       	cpi	r24, 0x0A	; 10
    296e:	29 f4       	brne	.+10     	; 0x297a <TerminalParseCommand+0x1d0>
    2970:	15 d8       	rcall	.-4054   	; 0x199c <PulseStop>
    2972:	83 ec       	ldi	r24, 0xC3	; 195
    2974:	92 e0       	ldi	r25, 0x02	; 2
    2976:	97 d7       	rcall	.+3886   	; 0x38a6 <UART0TransmitStringLn>
    2978:	fd c5       	rjmp	.+3066   	; 0x3574 <TerminalParseCommand+0xdca>
    297a:	8e e0       	ldi	r24, 0x0E	; 14
					break;
					
				//2.2 Start Sensitivity
				case _MK16('S','S'):
					
					if (string[4] == '1' && string[5] == '\n')
    297c:	92 e0       	ldi	r25, 0x02	; 2
    297e:	93 d7       	rcall	.+3878   	; 0x38a6 <UART0TransmitStringLn>
    2980:	f9 c5       	rjmp	.+3058   	; 0x3574 <TerminalParseCommand+0xdca>
    2982:	f8 01       	movw	r30, r16
    2984:	84 81       	ldd	r24, Z+4	; 0x04
					{
						PulseStart_Sensitivity();
    2986:	81 33       	cpi	r24, 0x31	; 49
    2988:	41 f4       	brne	.+16     	; 0x299a <TerminalParseCommand+0x1f0>
// String & CRLF auf Interface ausgeben
// -------------------------------------------------------------

void TransmitStringLn(char *string)
{
    UART0TransmitStringLn(string);
    298a:	85 81       	ldd	r24, Z+5	; 0x05
    298c:	8a 30       	cpi	r24, 0x0A	; 10
    298e:	81 f4       	brne	.+32     	; 0x29b0 <TerminalParseCommand+0x206>
    2990:	ac d8       	rcall	.-3752   	; 0x1aea <PulseStart_Sensitivity>
					{
						PulseStart_Sensitivity();

						TransmitStringLn("SSS=1");
					}
					else if (string[4] == '0' && string[5] == '\n')
    2992:	89 ec       	ldi	r24, 0xC9	; 201
    2994:	92 e0       	ldi	r25, 0x02	; 2
    2996:	87 d7       	rcall	.+3854   	; 0x38a6 <UART0TransmitStringLn>
					{
						PulseStop();
    2998:	ed c5       	rjmp	.+3034   	; 0x3574 <TerminalParseCommand+0xdca>
    299a:	80 33       	cpi	r24, 0x30	; 48
// String & CRLF auf Interface ausgeben
// -------------------------------------------------------------

void TransmitStringLn(char *string)
{
    UART0TransmitStringLn(string);
    299c:	49 f4       	brne	.+18     	; 0x29b0 <TerminalParseCommand+0x206>
    299e:	85 81       	ldd	r24, Z+5	; 0x05
    29a0:	8a 30       	cpi	r24, 0x0A	; 10
    29a2:	31 f4       	brne	.+12     	; 0x29b0 <TerminalParseCommand+0x206>
    29a4:	0e 94 ce 0c 	call	0x199c	; 0x199c <PulseStop>
    29a8:	8f ec       	ldi	r24, 0xCF	; 207
    29aa:	92 e0       	ldi	r25, 0x02	; 2
					break;
					
				//2.3 Start deterministic Pulse
				case _MK16('D','S'):
					
					if (string[4] == '1' && string[5] == '\n')
    29ac:	7c d7       	rcall	.+3832   	; 0x38a6 <UART0TransmitStringLn>
    29ae:	e2 c5       	rjmp	.+3012   	; 0x3574 <TerminalParseCommand+0xdca>
    29b0:	8e e0       	ldi	r24, 0x0E	; 14
    29b2:	92 e0       	ldi	r25, 0x02	; 2
    29b4:	78 d7       	rcall	.+3824   	; 0x38a6 <UART0TransmitStringLn>
    29b6:	de c5       	rjmp	.+3004   	; 0x3574 <TerminalParseCommand+0xdca>
    29b8:	f8 01       	movw	r30, r16
// String & CRLF auf Interface ausgeben
// -------------------------------------------------------------

void TransmitStringLn(char *string)
{
    UART0TransmitStringLn(string);
    29ba:	84 81       	ldd	r24, Z+4	; 0x04
    29bc:	81 33       	cpi	r24, 0x31	; 49
    29be:	41 f4       	brne	.+16     	; 0x29d0 <TerminalParseCommand+0x226>
					
					if (string[4] == '1' && string[5] == '\n')
					{
						TransmitStringLn("SDS=1");
						
						PulseStart_DPA_TTA_HighStart();
    29c0:	85 81       	ldd	r24, Z+5	; 0x05
    29c2:	8a 30       	cpi	r24, 0x0A	; 10
					}
					else if (string[4] == '0' && string[5] == '\n')
    29c4:	81 f4       	brne	.+32     	; 0x29e6 <TerminalParseCommand+0x23c>
    29c6:	85 ed       	ldi	r24, 0xD5	; 213
    29c8:	92 e0       	ldi	r25, 0x02	; 2
    29ca:	6d d7       	rcall	.+3802   	; 0x38a6 <UART0TransmitStringLn>
    29cc:	94 d8       	rcall	.-3800   	; 0x1af6 <PulseStart_DPA_TTA_HighStart>
					{
						PulseStop();
    29ce:	d2 c5       	rjmp	.+2980   	; 0x3574 <TerminalParseCommand+0xdca>
    29d0:	80 33       	cpi	r24, 0x30	; 48
// String & CRLF auf Interface ausgeben
// -------------------------------------------------------------

void TransmitStringLn(char *string)
{
    UART0TransmitStringLn(string);
    29d2:	49 f4       	brne	.+18     	; 0x29e6 <TerminalParseCommand+0x23c>
    29d4:	85 81       	ldd	r24, Z+5	; 0x05
    29d6:	8a 30       	cpi	r24, 0x0A	; 10
    29d8:	31 f4       	brne	.+12     	; 0x29e6 <TerminalParseCommand+0x23c>
    29da:	0e 94 ce 0c 	call	0x199c	; 0x199c <PulseStop>
    29de:	8b ed       	ldi	r24, 0xDB	; 219
    29e0:	92 e0       	ldi	r25, 0x02	; 2
    29e2:	61 d7       	rcall	.+3778   	; 0x38a6 <UART0TransmitStringLn>
					break;
					
				//2.4 Pre-pulse to get V(Sense, 25°C)
				case _MK16('M','S'):
									
					if (string[4] == '1' && string[5] == '\n')
    29e4:	c7 c5       	rjmp	.+2958   	; 0x3574 <TerminalParseCommand+0xdca>
    29e6:	8e e0       	ldi	r24, 0x0E	; 14
    29e8:	92 e0       	ldi	r25, 0x02	; 2
    29ea:	5d d7       	rcall	.+3770   	; 0x38a6 <UART0TransmitStringLn>
    29ec:	c3 c5       	rjmp	.+2950   	; 0x3574 <TerminalParseCommand+0xdca>
    29ee:	f8 01       	movw	r30, r16
    29f0:	84 81       	ldd	r24, Z+4	; 0x04
// String & CRLF auf Interface ausgeben
// -------------------------------------------------------------

void TransmitStringLn(char *string)
{
    UART0TransmitStringLn(string);
    29f2:	81 33       	cpi	r24, 0x31	; 49
    29f4:	41 f4       	brne	.+16     	; 0x2a06 <TerminalParseCommand+0x25c>
    29f6:	85 81       	ldd	r24, Z+5	; 0x05
									
					if (string[4] == '1' && string[5] == '\n')
					{
						TransmitStringLn("SMS=1");
							
						PulseStart_PrePulse();
    29f8:	8a 30       	cpi	r24, 0x0A	; 10
    29fa:	81 f4       	brne	.+32     	; 0x2a1c <TerminalParseCommand+0x272>
    29fc:	81 ee       	ldi	r24, 0xE1	; 225
					}
					else if (string[4] == '0' && string[5] == '\n')
    29fe:	92 e0       	ldi	r25, 0x02	; 2
    2a00:	52 d7       	rcall	.+3748   	; 0x38a6 <UART0TransmitStringLn>
    2a02:	99 d8       	rcall	.-3790   	; 0x1b36 <PulseStart_PrePulse>
    2a04:	b7 c5       	rjmp	.+2926   	; 0x3574 <TerminalParseCommand+0xdca>
    2a06:	80 33       	cpi	r24, 0x30	; 48
					{
						PulseStop();
    2a08:	49 f4       	brne	.+18     	; 0x2a1c <TerminalParseCommand+0x272>
// String & CRLF auf Interface ausgeben
// -------------------------------------------------------------

void TransmitStringLn(char *string)
{
    UART0TransmitStringLn(string);
    2a0a:	85 81       	ldd	r24, Z+5	; 0x05
    2a0c:	8a 30       	cpi	r24, 0x0A	; 10
    2a0e:	31 f4       	brne	.+12     	; 0x2a1c <TerminalParseCommand+0x272>
    2a10:	0e 94 ce 0c 	call	0x199c	; 0x199c <PulseStop>
    2a14:	87 ee       	ldi	r24, 0xE7	; 231
    2a16:	92 e0       	ldi	r25, 0x02	; 2
    2a18:	46 d7       	rcall	.+3724   	; 0x38a6 <UART0TransmitStringLn>
    2a1a:	ac c5       	rjmp	.+2904   	; 0x3574 <TerminalParseCommand+0xdca>
				//3. Puls settings*****************************************************
				#pragma region 3.Puls-settings
				//3.1 Set Heat Pulse Length
				case _MK16('H','P'):
			
					if (!ParseLongLn(&string[4],6,&temp32))
    2a1c:	8e e0       	ldi	r24, 0x0E	; 14
    2a1e:	92 e0       	ldi	r25, 0x02	; 2
    2a20:	42 d7       	rcall	.+3716   	; 0x38a6 <UART0TransmitStringLn>
    2a22:	a8 c5       	rjmp	.+2896   	; 0x3574 <TerminalParseCommand+0xdca>
    2a24:	ae 01       	movw	r20, r28
    2a26:	4c 5f       	subi	r20, 0xFC	; 252
    2a28:	5f 4f       	sbci	r21, 0xFF	; 255
    2a2a:	66 e0       	ldi	r22, 0x06	; 6
// String & CRLF auf Interface ausgeben
// -------------------------------------------------------------

void TransmitStringLn(char *string)
{
    UART0TransmitStringLn(string);
    2a2c:	c8 01       	movw	r24, r16
    2a2e:	04 96       	adiw	r24, 0x04	; 4
    2a30:	e9 db       	rcall	.-2094   	; 0x2204 <ParseLongLn>
    2a32:	81 11       	cpse	r24, r1
    2a34:	04 c0       	rjmp	.+8      	; 0x2a3e <TerminalParseCommand+0x294>
					if (!ParseLongLn(&string[4],6,&temp32))
					{
						//no number
						TransmitStringLn("FORMAT ERR");
					}
					else if ((temp32 > 120000 || temp32 < 25) && temp32 != 0)
    2a36:	8e e0       	ldi	r24, 0x0E	; 14
    2a38:	92 e0       	ldi	r25, 0x02	; 2
    2a3a:	35 d7       	rcall	.+3690   	; 0x38a6 <UART0TransmitStringLn>
    2a3c:	9b c5       	rjmp	.+2870   	; 0x3574 <TerminalParseCommand+0xdca>
    2a3e:	8c 81       	ldd	r24, Y+4	; 0x04
    2a40:	9d 81       	ldd	r25, Y+5	; 0x05
    2a42:	ae 81       	ldd	r26, Y+6	; 0x06
    2a44:	bf 81       	ldd	r27, Y+7	; 0x07
    2a46:	ac 01       	movw	r20, r24
    2a48:	bd 01       	movw	r22, r26
    2a4a:	49 51       	subi	r20, 0x19	; 25
    2a4c:	51 09       	sbc	r21, r1
    2a4e:	61 09       	sbc	r22, r1
    2a50:	71 09       	sbc	r23, r1
    2a52:	48 3a       	cpi	r20, 0xA8	; 168
    2a54:	54 4d       	sbci	r21, 0xD4	; 212
    2a56:	61 40       	sbci	r22, 0x01	; 1
// String & CRLF auf Interface ausgeben
// -------------------------------------------------------------

void TransmitStringLn(char *string)
{
    UART0TransmitStringLn(string);
    2a58:	71 05       	cpc	r23, r1
    2a5a:	40 f0       	brcs	.+16     	; 0x2a6c <TerminalParseCommand+0x2c2>
    2a5c:	89 2b       	or	r24, r25
    2a5e:	8a 2b       	or	r24, r26
// String auf Interface ausgeben
// -------------------------------------------------------------

void TransmitString(char *string)
{
    UART0TransmitString(string);
    2a60:	8b 2b       	or	r24, r27
    2a62:	21 f0       	breq	.+8      	; 0x2a6c <TerminalParseCommand+0x2c2>
						TransmitStringLn("NUMBER ERR");
					}
					else
					{
						TransmitString("SHP=");
						TransmitLong(temp32, 1);
    2a64:	8d e1       	ldi	r24, 0x1D	; 29
    2a66:	92 e0       	ldi	r25, 0x02	; 2
    2a68:	1e d7       	rcall	.+3644   	; 0x38a6 <UART0TransmitStringLn>
    2a6a:	84 c5       	rjmp	.+2824   	; 0x3574 <TerminalParseCommand+0xdca>
    2a6c:	8d ee       	ldi	r24, 0xED	; 237
    2a6e:	92 e0       	ldi	r25, 0x02	; 2
    2a70:	09 d7       	rcall	.+3602   	; 0x3884 <UART0TransmitString>
// String & CRLF auf Interface ausgeben
// -------------------------------------------------------------

void TransmitStringLn(char *string)
{
    UART0TransmitStringLn(string);
    2a72:	6c 81       	ldd	r22, Y+4	; 0x04
    2a74:	7d 81       	ldd	r23, Y+5	; 0x05
    2a76:	8e 81       	ldd	r24, Y+6	; 0x06
    2a78:	9f 81       	ldd	r25, Y+7	; 0x07
					{
						TransmitString("SHP=");
						TransmitLong(temp32, 1);
						TransmitStringLn(" ms");

						heat_pulse_length = temp32;
    2a7a:	41 e0       	ldi	r20, 0x01	; 1
    2a7c:	ed dc       	rcall	.-1574   	; 0x2458 <TransmitLong>
    2a7e:	82 ef       	ldi	r24, 0xF2	; 242
    2a80:	92 e0       	ldi	r25, 0x02	; 2
    2a82:	11 d7       	rcall	.+3618   	; 0x38a6 <UART0TransmitStringLn>
    2a84:	4c 81       	ldd	r20, Y+4	; 0x04
    2a86:	5d 81       	ldd	r21, Y+5	; 0x05
    2a88:	6e 81       	ldd	r22, Y+6	; 0x06
    2a8a:	7f 81       	ldd	r23, Y+7	; 0x07
    2a8c:	40 93 2b 04 	sts	0x042B, r20	; 0x80042b <heat_pulse_length>
						eeprom_write_dword(&heat_pulse_length_eeprom,temp32);
    2a90:	50 93 2c 04 	sts	0x042C, r21	; 0x80042c <heat_pulse_length+0x1>
    2a94:	60 93 2d 04 	sts	0x042D, r22	; 0x80042d <heat_pulse_length+0x2>
					break;

				//3.2 Set Measurement Pulse Length
				case _MK16('M','P'):
			
					if (!ParseLongLn(&string[4],6,&temp32))
    2a98:	70 93 2e 04 	sts	0x042E, r23	; 0x80042e <heat_pulse_length+0x3>
    2a9c:	89 e4       	ldi	r24, 0x49	; 73
    2a9e:	90 e0       	ldi	r25, 0x00	; 0
    2aa0:	0e 94 4c 1f 	call	0x3e98	; 0x3e98 <eeprom_write_dword>
    2aa4:	67 c5       	rjmp	.+2766   	; 0x3574 <TerminalParseCommand+0xdca>
    2aa6:	ae 01       	movw	r20, r28
// String & CRLF auf Interface ausgeben
// -------------------------------------------------------------

void TransmitStringLn(char *string)
{
    UART0TransmitStringLn(string);
    2aa8:	4c 5f       	subi	r20, 0xFC	; 252
    2aaa:	5f 4f       	sbci	r21, 0xFF	; 255
    2aac:	66 e0       	ldi	r22, 0x06	; 6
    2aae:	c8 01       	movw	r24, r16
    2ab0:	04 96       	adiw	r24, 0x04	; 4
					if (!ParseLongLn(&string[4],6,&temp32))
					{
						//no number
						TransmitStringLn("FORMAT ERR");
					}
					else if ((temp32 > 120000 || temp32 < 25) && temp32 != 0)
    2ab2:	a8 db       	rcall	.-2224   	; 0x2204 <ParseLongLn>
    2ab4:	81 11       	cpse	r24, r1
    2ab6:	04 c0       	rjmp	.+8      	; 0x2ac0 <TerminalParseCommand+0x316>
    2ab8:	8e e0       	ldi	r24, 0x0E	; 14
    2aba:	92 e0       	ldi	r25, 0x02	; 2
    2abc:	f4 d6       	rcall	.+3560   	; 0x38a6 <UART0TransmitStringLn>
    2abe:	5a c5       	rjmp	.+2740   	; 0x3574 <TerminalParseCommand+0xdca>
    2ac0:	8c 81       	ldd	r24, Y+4	; 0x04
    2ac2:	9d 81       	ldd	r25, Y+5	; 0x05
    2ac4:	ae 81       	ldd	r26, Y+6	; 0x06
    2ac6:	bf 81       	ldd	r27, Y+7	; 0x07
    2ac8:	ac 01       	movw	r20, r24
    2aca:	bd 01       	movw	r22, r26
    2acc:	49 51       	subi	r20, 0x19	; 25
    2ace:	51 09       	sbc	r21, r1
    2ad0:	61 09       	sbc	r22, r1
// String & CRLF auf Interface ausgeben
// -------------------------------------------------------------

void TransmitStringLn(char *string)
{
    UART0TransmitStringLn(string);
    2ad2:	71 09       	sbc	r23, r1
    2ad4:	48 3a       	cpi	r20, 0xA8	; 168
    2ad6:	54 4d       	sbci	r21, 0xD4	; 212
    2ad8:	61 40       	sbci	r22, 0x01	; 1
// String auf Interface ausgeben
// -------------------------------------------------------------

void TransmitString(char *string)
{
    UART0TransmitString(string);
    2ada:	71 05       	cpc	r23, r1
    2adc:	40 f0       	brcs	.+16     	; 0x2aee <TerminalParseCommand+0x344>
    2ade:	89 2b       	or	r24, r25
    2ae0:	8a 2b       	or	r24, r26
						TransmitStringLn("NUMBER ERR");
					}
					else
					{
						TransmitString("SMP=");
						TransmitLong(temp32, 1);
    2ae2:	8b 2b       	or	r24, r27
    2ae4:	21 f0       	breq	.+8      	; 0x2aee <TerminalParseCommand+0x344>
    2ae6:	8d e1       	ldi	r24, 0x1D	; 29
    2ae8:	92 e0       	ldi	r25, 0x02	; 2
    2aea:	dd d6       	rcall	.+3514   	; 0x38a6 <UART0TransmitStringLn>
    2aec:	43 c5       	rjmp	.+2694   	; 0x3574 <TerminalParseCommand+0xdca>
    2aee:	86 ef       	ldi	r24, 0xF6	; 246
// String & CRLF auf Interface ausgeben
// -------------------------------------------------------------

void TransmitStringLn(char *string)
{
    UART0TransmitStringLn(string);
    2af0:	92 e0       	ldi	r25, 0x02	; 2
    2af2:	c8 d6       	rcall	.+3472   	; 0x3884 <UART0TransmitString>
    2af4:	6c 81       	ldd	r22, Y+4	; 0x04
    2af6:	7d 81       	ldd	r23, Y+5	; 0x05
					{
						TransmitString("SMP=");
						TransmitLong(temp32, 1);
						TransmitStringLn(" ms");

						measure_pulse_length = temp32;
    2af8:	8e 81       	ldd	r24, Y+6	; 0x06
    2afa:	9f 81       	ldd	r25, Y+7	; 0x07
    2afc:	41 e0       	ldi	r20, 0x01	; 1
    2afe:	ac dc       	rcall	.-1704   	; 0x2458 <TransmitLong>
    2b00:	82 ef       	ldi	r24, 0xF2	; 242
    2b02:	92 e0       	ldi	r25, 0x02	; 2
    2b04:	d0 d6       	rcall	.+3488   	; 0x38a6 <UART0TransmitStringLn>
    2b06:	4c 81       	ldd	r20, Y+4	; 0x04
    2b08:	5d 81       	ldd	r21, Y+5	; 0x05
    2b0a:	6e 81       	ldd	r22, Y+6	; 0x06
						eeprom_write_dword(&measure_pulse_length_eeprom,temp32);
    2b0c:	7f 81       	ldd	r23, Y+7	; 0x07
    2b0e:	40 93 2c 05 	sts	0x052C, r20	; 0x80052c <measure_pulse_length>
    2b12:	50 93 2d 05 	sts	0x052D, r21	; 0x80052d <measure_pulse_length+0x1>
					break;
					
				//3.3 Set Number of deterministic pulses
				case _MK16('N','D'):
									
					if (!ParseIntLn(&string[4],6,&temp16)) 
    2b16:	60 93 2e 05 	sts	0x052E, r22	; 0x80052e <measure_pulse_length+0x2>
    2b1a:	70 93 2f 05 	sts	0x052F, r23	; 0x80052f <measure_pulse_length+0x3>
    2b1e:	83 e4       	ldi	r24, 0x43	; 67
    2b20:	90 e0       	ldi	r25, 0x00	; 0
    2b22:	0e 94 4c 1f 	call	0x3e98	; 0x3e98 <eeprom_write_dword>
// String & CRLF auf Interface ausgeben
// -------------------------------------------------------------

void TransmitStringLn(char *string)
{
    UART0TransmitStringLn(string);
    2b26:	26 c5       	rjmp	.+2636   	; 0x3574 <TerminalParseCommand+0xdca>
    2b28:	ae 01       	movw	r20, r28
    2b2a:	4e 5f       	subi	r20, 0xFE	; 254
					if (!ParseIntLn(&string[4],6,&temp16)) 
					{
						//no number
						TransmitStringLn("FORMAT ERR");
					}
					else if ((temp16 > 1000 || temp16 < 1))
    2b2c:	5f 4f       	sbci	r21, 0xFF	; 255
    2b2e:	66 e0       	ldi	r22, 0x06	; 6
    2b30:	c8 01       	movw	r24, r16
    2b32:	04 96       	adiw	r24, 0x04	; 4
    2b34:	f2 da       	rcall	.-2588   	; 0x211a <ParseIntLn>
// String & CRLF auf Interface ausgeben
// -------------------------------------------------------------

void TransmitStringLn(char *string)
{
    UART0TransmitStringLn(string);
    2b36:	81 11       	cpse	r24, r1
    2b38:	04 c0       	rjmp	.+8      	; 0x2b42 <TerminalParseCommand+0x398>
    2b3a:	8e e0       	ldi	r24, 0x0E	; 14
    2b3c:	92 e0       	ldi	r25, 0x02	; 2
    2b3e:	b3 d6       	rcall	.+3430   	; 0x38a6 <UART0TransmitStringLn>
// String auf Interface ausgeben
// -------------------------------------------------------------

void TransmitString(char *string)
{
    UART0TransmitString(string);
    2b40:	19 c5       	rjmp	.+2610   	; 0x3574 <TerminalParseCommand+0xdca>
    2b42:	8a 81       	ldd	r24, Y+2	; 0x02
    2b44:	9b 81       	ldd	r25, Y+3	; 0x03
    2b46:	01 97       	sbiw	r24, 0x01	; 1
						TransmitStringLn("NUMBER ERR");
					}
					else
					{
						TransmitString("SND=");
						TransmitInt(temp16, 1);
    2b48:	88 3e       	cpi	r24, 0xE8	; 232
    2b4a:	93 40       	sbci	r25, 0x03	; 3
    2b4c:	20 f0       	brcs	.+8      	; 0x2b56 <TerminalParseCommand+0x3ac>
    2b4e:	8d e1       	ldi	r24, 0x1D	; 29
// String & CRLF auf Interface ausgeben
// -------------------------------------------------------------

void TransmitStringLn(char *string)
{
    UART0TransmitStringLn(string);
    2b50:	92 e0       	ldi	r25, 0x02	; 2
    2b52:	a9 d6       	rcall	.+3410   	; 0x38a6 <UART0TransmitStringLn>
    2b54:	0f c5       	rjmp	.+2590   	; 0x3574 <TerminalParseCommand+0xdca>
					{
						TransmitString("SND=");
						TransmitInt(temp16, 1);
						TransmitStringLn(" pulses");

						deterministic_pulse_cycles = temp16;
    2b56:	8b ef       	ldi	r24, 0xFB	; 251
    2b58:	92 e0       	ldi	r25, 0x02	; 2
    2b5a:	94 d6       	rcall	.+3368   	; 0x3884 <UART0TransmitString>
    2b5c:	61 e0       	ldi	r22, 0x01	; 1
    2b5e:	8a 81       	ldd	r24, Y+2	; 0x02
    2b60:	9b 81       	ldd	r25, Y+3	; 0x03
						eeprom_write_word(&deterministic_pulse_cycles_eeprom,temp16);	
    2b62:	14 dc       	rcall	.-2008   	; 0x238c <TransmitInt>
    2b64:	80 e0       	ldi	r24, 0x00	; 0
    2b66:	93 e0       	ldi	r25, 0x03	; 3
    2b68:	9e d6       	rcall	.+3388   	; 0x38a6 <UART0TransmitStringLn>
					break;
					
				//3.4 Set Length of deterministic pulses
				case _MK16('T','D'):
									
					if (!ParseIntLn(&string[4],6,&temp16))
    2b6a:	6a 81       	ldd	r22, Y+2	; 0x02
    2b6c:	7b 81       	ldd	r23, Y+3	; 0x03
    2b6e:	70 93 30 04 	sts	0x0430, r23	; 0x800430 <deterministic_pulse_cycles+0x1>
    2b72:	60 93 2f 04 	sts	0x042F, r22	; 0x80042f <deterministic_pulse_cycles>
    2b76:	89 e3       	ldi	r24, 0x39	; 57
// String & CRLF auf Interface ausgeben
// -------------------------------------------------------------

void TransmitStringLn(char *string)
{
    UART0TransmitStringLn(string);
    2b78:	90 e0       	ldi	r25, 0x00	; 0
    2b7a:	0e 94 51 1f 	call	0x3ea2	; 0x3ea2 <eeprom_write_word>
    2b7e:	fa c4       	rjmp	.+2548   	; 0x3574 <TerminalParseCommand+0xdca>
					if (!ParseIntLn(&string[4],6,&temp16))
					{
						//no number
						TransmitStringLn("FORMAT ERR");
					}
					else if ((temp16 > 1000 || temp16 < 1))
    2b80:	ae 01       	movw	r20, r28
    2b82:	4e 5f       	subi	r20, 0xFE	; 254
    2b84:	5f 4f       	sbci	r21, 0xFF	; 255
    2b86:	66 e0       	ldi	r22, 0x06	; 6
    2b88:	c8 01       	movw	r24, r16
    2b8a:	04 96       	adiw	r24, 0x04	; 4
// String & CRLF auf Interface ausgeben
// -------------------------------------------------------------

void TransmitStringLn(char *string)
{
    UART0TransmitStringLn(string);
    2b8c:	c6 da       	rcall	.-2676   	; 0x211a <ParseIntLn>
    2b8e:	81 11       	cpse	r24, r1
    2b90:	04 c0       	rjmp	.+8      	; 0x2b9a <TerminalParseCommand+0x3f0>
    2b92:	8e e0       	ldi	r24, 0x0E	; 14
    2b94:	92 e0       	ldi	r25, 0x02	; 2
// String auf Interface ausgeben
// -------------------------------------------------------------

void TransmitString(char *string)
{
    UART0TransmitString(string);
    2b96:	87 d6       	rcall	.+3342   	; 0x38a6 <UART0TransmitStringLn>
    2b98:	ed c4       	rjmp	.+2522   	; 0x3574 <TerminalParseCommand+0xdca>
    2b9a:	8a 81       	ldd	r24, Y+2	; 0x02
    2b9c:	9b 81       	ldd	r25, Y+3	; 0x03
						TransmitStringLn("NUMBER ERR");
					}
					else
					{
						TransmitString("STD=");
						TransmitFloat(temp16, 1, 1);
    2b9e:	01 97       	sbiw	r24, 0x01	; 1
    2ba0:	88 3e       	cpi	r24, 0xE8	; 232
    2ba2:	93 40       	sbci	r25, 0x03	; 3
    2ba4:	20 f0       	brcs	.+8      	; 0x2bae <TerminalParseCommand+0x404>
    2ba6:	8d e1       	ldi	r24, 0x1D	; 29
// String & CRLF auf Interface ausgeben
// -------------------------------------------------------------

void TransmitStringLn(char *string)
{
    UART0TransmitStringLn(string);
    2ba8:	92 e0       	ldi	r25, 0x02	; 2
    2baa:	7d d6       	rcall	.+3322   	; 0x38a6 <UART0TransmitStringLn>
    2bac:	e3 c4       	rjmp	.+2502   	; 0x3574 <TerminalParseCommand+0xdca>
					{
						TransmitString("STD=");
						TransmitFloat(temp16, 1, 1);
						TransmitStringLn(" ms");

						deterministic_pulse_length = temp16;
    2bae:	88 e0       	ldi	r24, 0x08	; 8
    2bb0:	93 e0       	ldi	r25, 0x03	; 3
    2bb2:	68 d6       	rcall	.+3280   	; 0x3884 <UART0TransmitString>
    2bb4:	41 e0       	ldi	r20, 0x01	; 1
						eeprom_write_word(&deterministic_pulse_length_eeprom,temp16);
    2bb6:	61 e0       	ldi	r22, 0x01	; 1
    2bb8:	8a 81       	ldd	r24, Y+2	; 0x02
    2bba:	9b 81       	ldd	r25, Y+3	; 0x03

				//3.5 Set Pulse Register	
				case _MK16('P','R'):
				
					//!!!Reihenfolge wird getauscht!!!
					if(strlen(string) != 13)
    2bbc:	b7 dc       	rcall	.-1682   	; 0x252c <TransmitFloat>
    2bbe:	82 ef       	ldi	r24, 0xF2	; 242
    2bc0:	92 e0       	ldi	r25, 0x02	; 2
    2bc2:	71 d6       	rcall	.+3298   	; 0x38a6 <UART0TransmitStringLn>
    2bc4:	6a 81       	ldd	r22, Y+2	; 0x02
    2bc6:	7b 81       	ldd	r23, Y+3	; 0x03
    2bc8:	70 93 28 04 	sts	0x0428, r23	; 0x800428 <deterministic_pulse_length+0x1>
// String & CRLF auf Interface ausgeben
// -------------------------------------------------------------

void TransmitStringLn(char *string)
{
    UART0TransmitStringLn(string);
    2bcc:	60 93 27 04 	sts	0x0427, r22	; 0x800427 <deterministic_pulse_length>
    2bd0:	8b e3       	ldi	r24, 0x3B	; 59
    2bd2:	90 e0       	ldi	r25, 0x00	; 0
					if(strlen(string) != 13)
					{
						//Not 8 characters
						TransmitStringLn("FORMAT ERR");
					}	
					else if (!ParseByte(&string[4], &temp8))
    2bd4:	0e 94 51 1f 	call	0x3ea2	; 0x3ea2 <eeprom_write_word>
    2bd8:	cd c4       	rjmp	.+2458   	; 0x3574 <TerminalParseCommand+0xdca>
    2bda:	f8 01       	movw	r30, r16
    2bdc:	01 90       	ld	r0, Z+
    2bde:	00 20       	and	r0, r0
    2be0:	e9 f7       	brne	.-6      	; 0x2bdc <TerminalParseCommand+0x432>
    2be2:	cf 01       	movw	r24, r30
// String & CRLF auf Interface ausgeben
// -------------------------------------------------------------

void TransmitStringLn(char *string)
{
    UART0TransmitStringLn(string);
    2be4:	0e 97       	sbiw	r24, 0x0e	; 14
    2be6:	80 17       	cp	r24, r16
    2be8:	91 07       	cpc	r25, r17
    2bea:	21 f0       	breq	.+8      	; 0x2bf4 <TerminalParseCommand+0x44a>
// String auf Interface ausgeben
// -------------------------------------------------------------

void TransmitString(char *string)
{
    UART0TransmitString(string);
    2bec:	8e e0       	ldi	r24, 0x0E	; 14
    2bee:	92 e0       	ldi	r25, 0x02	; 2
    2bf0:	5a d6       	rcall	.+3252   	; 0x38a6 <UART0TransmitStringLn>
    2bf2:	c0 c4       	rjmp	.+2432   	; 0x3574 <TerminalParseCommand+0xdca>
						TransmitStringLn("FORMAT ERR");
					}
					else
					{
						TransmitString("SPR=");
						TransmitByte_Reverse(temp8);
    2bf4:	be 01       	movw	r22, r28
    2bf6:	6f 5f       	subi	r22, 0xFF	; 255
    2bf8:	7f 4f       	sbci	r23, 0xFF	; 255
// String & CRLF auf Interface ausgeben
// -------------------------------------------------------------

void TransmitStringLn(char *string)
{
    UART0TransmitStringLn(string);
    2bfa:	c8 01       	movw	r24, r16
    2bfc:	04 96       	adiw	r24, 0x04	; 4
    2bfe:	a2 db       	rcall	.-2236   	; 0x2344 <ParseByte>
    2c00:	81 11       	cpse	r24, r1
					{
						TransmitString("SPR=");
						TransmitByte_Reverse(temp8);
						TransmitStringLn("");

						pulse_output_register = temp8;
    2c02:	04 c0       	rjmp	.+8      	; 0x2c0c <TerminalParseCommand+0x462>
    2c04:	8e e0       	ldi	r24, 0x0E	; 14
    2c06:	92 e0       	ldi	r25, 0x02	; 2
						eeprom_write_byte(&pulse_output_register_eeprom,temp8);
    2c08:	4e d6       	rcall	.+3228   	; 0x38a6 <UART0TransmitStringLn>
    2c0a:	b4 c4       	rjmp	.+2408   	; 0x3574 <TerminalParseCommand+0xdca>
    2c0c:	8d e0       	ldi	r24, 0x0D	; 13
    2c0e:	93 e0       	ldi	r25, 0x03	; 3
    2c10:	39 d6       	rcall	.+3186   	; 0x3884 <UART0TransmitString>
				
				//4.0 Set Card types***************************************************
				#pragma region 4.SlotSettings
				case _MK16('C','T'):
				
					if(strlen(string) != 13)
    2c12:	89 81       	ldd	r24, Y+1	; 0x01
    2c14:	91 dd       	rcall	.-1246   	; 0x2738 <TransmitByte_Reverse>
    2c16:	83 e7       	ldi	r24, 0x73	; 115
    2c18:	93 e0       	ldi	r25, 0x03	; 3
    2c1a:	45 d6       	rcall	.+3210   	; 0x38a6 <UART0TransmitStringLn>
    2c1c:	69 81       	ldd	r22, Y+1	; 0x01
    2c1e:	60 93 4b 05 	sts	0x054B, r22	; 0x80054b <pulse_output_register>
    2c22:	88 e3       	ldi	r24, 0x38	; 56
// String & CRLF auf Interface ausgeben
// -------------------------------------------------------------

void TransmitStringLn(char *string)
{
    UART0TransmitStringLn(string);
    2c24:	90 e0       	ldi	r25, 0x00	; 0
    2c26:	0e 94 3e 1f 	call	0x3e7c	; 0x3e7c <eeprom_write_byte>
					}					
					else
					{
						//Save old setting temporary
						char old_card_Type[8];
						strcpy(old_card_Type, card_Type);
    2c2a:	a4 c4       	rjmp	.+2376   	; 0x3574 <TerminalParseCommand+0xdca>
    2c2c:	f8 01       	movw	r30, r16
    2c2e:	01 90       	ld	r0, Z+
    2c30:	00 20       	and	r0, r0
						
						//Get the substring and write it to card_Type and EEPROM
						memcpy(card_Type, &string[4], 8);
    2c32:	e9 f7       	brne	.-6      	; 0x2c2e <TerminalParseCommand+0x484>
    2c34:	cf 01       	movw	r24, r30
    2c36:	0e 97       	sbiw	r24, 0x0e	; 14
    2c38:	80 17       	cp	r24, r16
    2c3a:	91 07       	cpc	r25, r17
    2c3c:	21 f0       	breq	.+8      	; 0x2c46 <TerminalParseCommand+0x49c>
    2c3e:	8e e0       	ldi	r24, 0x0E	; 14
    2c40:	92 e0       	ldi	r25, 0x02	; 2
						eeprom_write_block(card_Type, &card_Type_register_eeprom, 8);
    2c42:	31 d6       	rcall	.+3170   	; 0x38a6 <UART0TransmitStringLn>
    2c44:	97 c4       	rjmp	.+2350   	; 0x3574 <TerminalParseCommand+0xdca>
    2c46:	6e e4       	ldi	r22, 0x4E	; 78
    2c48:	75 e0       	ldi	r23, 0x05	; 5
    2c4a:	ce 01       	movw	r24, r28
    2c4c:	08 96       	adiw	r24, 0x08	; 8
    2c4e:	0e 94 aa 1e 	call	0x3d54	; 0x3d54 <strcpy>
						
						//If there were changes --> Card initialization
						Init_All_Cards(card_Type, old_card_Type);
    2c52:	88 e0       	ldi	r24, 0x08	; 8
    2c54:	f8 01       	movw	r30, r16
    2c56:	34 96       	adiw	r30, 0x04	; 4
    2c58:	ae e4       	ldi	r26, 0x4E	; 78
    2c5a:	b5 e0       	ldi	r27, 0x05	; 5
    2c5c:	01 90       	ld	r0, Z+
    2c5e:	0d 92       	st	X+, r0
// String auf Interface ausgeben
// -------------------------------------------------------------

void TransmitString(char *string)
{
    UART0TransmitString(string);
    2c60:	8a 95       	dec	r24
    2c62:	e1 f7       	brne	.-8      	; 0x2c5c <TerminalParseCommand+0x4b2>
    2c64:	48 e0       	ldi	r20, 0x08	; 8
    2c66:	50 e0       	ldi	r21, 0x00	; 0
    2c68:	60 e3       	ldi	r22, 0x30	; 48
    2c6a:	70 e0       	ldi	r23, 0x00	; 0
    2c6c:	8e e4       	ldi	r24, 0x4E	; 78
    2c6e:	95 e0       	ldi	r25, 0x05	; 5
// String & CRLF auf Interface ausgeben
// -------------------------------------------------------------

void TransmitStringLn(char *string)
{
    UART0TransmitStringLn(string);
    2c70:	0e 94 35 1f 	call	0x3e6a	; 0x3e6a <eeprom_write_block>
    2c74:	be 01       	movw	r22, r28
    2c76:	68 5f       	subi	r22, 0xF8	; 248
    2c78:	7f 4f       	sbci	r23, 0xFF	; 255
    2c7a:	8e e4       	ldi	r24, 0x4E	; 78
    2c7c:	95 e0       	ldi	r25, 0x05	; 5
    2c7e:	0e 94 92 0c 	call	0x1924	; 0x1924 <Init_All_Cards>
    2c82:	82 e1       	ldi	r24, 0x12	; 18
	#pragma region Set

	else if (string[0] == 'S')
	{
		//Must executed here, later no chance, before not safe
		slotNr = string[3] - '0';
    2c84:	93 e0       	ldi	r25, 0x03	; 3
    2c86:	fe d5       	rcall	.+3068   	; 0x3884 <UART0TransmitString>
    2c88:	8e e4       	ldi	r24, 0x4E	; 78
    2c8a:	95 e0       	ldi	r25, 0x05	; 5
    2c8c:	fb d5       	rcall	.+3062   	; 0x3884 <UART0TransmitString>
		//Set-Commands, that apply ONE 19''-Cards (Definition: Number @ 3 character)
		//*****************************************************************************
		
		#pragma region Special_Set_Commands
						
		else if (slotNr >= 0 && slotNr < 8){
    2c8e:	83 e7       	ldi	r24, 0x73	; 115
    2c90:	93 e0       	ldi	r25, 0x03	; 3
    2c92:	09 d6       	rcall	.+3090   	; 0x38a6 <UART0TransmitStringLn>
    2c94:	6f c4       	rjmp	.+2270   	; 0x3574 <TerminalParseCommand+0xdca>
			
			//*****************************************************************************
			//Differentiation between card-Types
			//*****************************************************************************
			
			switch(string[4]){
    2c96:	84 e4       	ldi	r24, 0x44	; 68
    2c98:	92 e0       	ldi	r25, 0x02	; 2
    2c9a:	05 d6       	rcall	.+3082   	; 0x38a6 <UART0TransmitStringLn>
    2c9c:	6b c4       	rjmp	.+2262   	; 0x3574 <TerminalParseCommand+0xdca>
    2c9e:	0f 2e       	mov	r0, r31
    2ca0:	f0 ed       	ldi	r31, 0xD0	; 208
    2ca2:	df 2e       	mov	r13, r31
    2ca4:	f0 2d       	mov	r31, r0
    2ca6:	d8 0e       	add	r13, r24
    2ca8:	87 e0       	ldi	r24, 0x07	; 7
    2caa:	8d 15       	cp	r24, r13
    2cac:	08 f4       	brcc	.+2      	; 0x2cb0 <TerminalParseCommand+0x506>
    2cae:	90 c2       	rjmp	.+1312   	; 0x31d0 <TerminalParseCommand+0xa26>
    2cb0:	d8 01       	movw	r26, r16
    2cb2:	14 96       	adiw	r26, 0x04	; 4
				
				//1. LED-Heat-Meas current Source
				#pragma region SettingsLED-Source
				
				case 'L':					
					switch(cmd){
    2cb4:	ec 91       	ld	r30, X
    2cb6:	8e 2f       	mov	r24, r30
    2cb8:	90 e0       	ldi	r25, 0x00	; 0
    2cba:	fc 01       	movw	r30, r24
    2cbc:	e1 54       	subi	r30, 0x41	; 65
    2cbe:	f1 09       	sbc	r31, r1
    2cc0:	e4 31       	cpi	r30, 0x14	; 20
    2cc2:	f1 05       	cpc	r31, r1
    2cc4:	08 f0       	brcs	.+2      	; 0x2cc8 <TerminalParseCommand+0x51e>
    2cc6:	80 c2       	rjmp	.+1280   	; 0x31c8 <TerminalParseCommand+0xa1e>
    2cc8:	88 27       	eor	r24, r24
    2cca:	e4 58       	subi	r30, 0x84	; 132
    2ccc:	ff 4f       	sbci	r31, 0xFF	; 255
    2cce:	8f 4f       	sbci	r24, 0xFF	; 255
    2cd0:	0c 94 78 1e 	jmp	0x3cf0	; 0x3cf0 <__tablejump2__>
							
						//1. Initialization
						case _MK16('I','N'):
							if (string[5] != '\n')
    2cd4:	bd e4       	ldi	r27, 0x4D	; 77
    2cd6:	eb 16       	cp	r14, r27
    2cd8:	b3 e4       	ldi	r27, 0x43	; 67
// String & CRLF auf Interface ausgeben
// -------------------------------------------------------------

void TransmitStringLn(char *string)
{
    UART0TransmitStringLn(string);
    2cda:	fb 06       	cpc	r15, r27
    2cdc:	09 f4       	brne	.+2      	; 0x2ce0 <TerminalParseCommand+0x536>
    2cde:	70 c0       	rjmp	.+224    	; 0x2dc0 <TerminalParseCommand+0x616>
								//to many signs
								TransmitStringLn("FORMAT ERR");
							}
							else
							{
								LED_Source_Init(slotNr);
    2ce0:	e9 e4       	ldi	r30, 0x49	; 73
    2ce2:	ee 16       	cp	r14, r30
    2ce4:	ee e4       	ldi	r30, 0x4E	; 78
    2ce6:	fe 06       	cpc	r15, r30
    2ce8:	39 f0       	breq	.+14     	; 0x2cf8 <TerminalParseCommand+0x54e>
// String auf Interface ausgeben
// -------------------------------------------------------------

void TransmitString(char *string)
{
    UART0TransmitString(string);
    2cea:	f8 e4       	ldi	r31, 0x48	; 72
    2cec:	ef 16       	cp	r14, r31
    2cee:	f3 e4       	ldi	r31, 0x43	; 67
							{
								LED_Source_Init(slotNr);
												
								//Answer
								TransmitString("SIN");
								TransmitInt(slotNr, 1);
    2cf0:	ff 06       	cpc	r15, r31
    2cf2:	09 f0       	breq	.+2      	; 0x2cf6 <TerminalParseCommand+0x54c>
    2cf4:	b2 c0       	rjmp	.+356    	; 0x2e5a <TerminalParseCommand+0x6b0>
// String & CRLF auf Interface ausgeben
// -------------------------------------------------------------

void TransmitStringLn(char *string)
{
    UART0TransmitStringLn(string);
    2cf6:	19 c0       	rjmp	.+50     	; 0x2d2a <TerminalParseCommand+0x580>
    2cf8:	d8 01       	movw	r26, r16
    2cfa:	15 96       	adiw	r26, 0x05	; 5
    2cfc:	8c 91       	ld	r24, X
							
							
						//2. Set Heat Current	
						case _MK16('H','C'):
								
							if (!ParseIntLn(&string[6],4,&temp16))
    2cfe:	8a 30       	cpi	r24, 0x0A	; 10
    2d00:	21 f0       	breq	.+8      	; 0x2d0a <TerminalParseCommand+0x560>
    2d02:	8e e0       	ldi	r24, 0x0E	; 14
    2d04:	92 e0       	ldi	r25, 0x02	; 2
    2d06:	cf d5       	rcall	.+2974   	; 0x38a6 <UART0TransmitStringLn>
    2d08:	35 c4       	rjmp	.+2154   	; 0x3574 <TerminalParseCommand+0xdca>
    2d0a:	0d 2d       	mov	r16, r13
    2d0c:	dd 0c       	add	r13, r13
    2d0e:	11 0b       	sbc	r17, r17
    2d10:	c8 01       	movw	r24, r16
// String & CRLF auf Interface ausgeben
// -------------------------------------------------------------

void TransmitStringLn(char *string)
{
    UART0TransmitStringLn(string);
    2d12:	0e 94 b6 04 	call	0x96c	; 0x96c <LED_Source_Init>
    2d16:	89 e1       	ldi	r24, 0x19	; 25
    2d18:	92 e0       	ldi	r25, 0x02	; 2
    2d1a:	b4 d5       	rcall	.+2920   	; 0x3884 <UART0TransmitString>
							if (!ParseIntLn(&string[6],4,&temp16))
							{
								//no number
								TransmitStringLn("FORMAT ERR");
							}
							else if (temp16 > 1500 || temp16 < 0)
    2d1c:	61 e0       	ldi	r22, 0x01	; 1
    2d1e:	c8 01       	movw	r24, r16
    2d20:	35 db       	rcall	.-2454   	; 0x238c <TransmitInt>
    2d22:	82 e7       	ldi	r24, 0x72	; 114
    2d24:	92 e0       	ldi	r25, 0x02	; 2
// String & CRLF auf Interface ausgeben
// -------------------------------------------------------------

void TransmitStringLn(char *string)
{
    UART0TransmitStringLn(string);
    2d26:	bf d5       	rcall	.+2942   	; 0x38a6 <UART0TransmitStringLn>
    2d28:	25 c4       	rjmp	.+2122   	; 0x3574 <TerminalParseCommand+0xdca>
    2d2a:	ae 01       	movw	r20, r28
    2d2c:	4e 5f       	subi	r20, 0xFE	; 254
    2d2e:	5f 4f       	sbci	r21, 0xFF	; 255
// String auf Interface ausgeben
// -------------------------------------------------------------

void TransmitString(char *string)
{
    UART0TransmitString(string);
    2d30:	64 e0       	ldi	r22, 0x04	; 4
    2d32:	c8 01       	movw	r24, r16
    2d34:	06 96       	adiw	r24, 0x06	; 6
    2d36:	f1 d9       	rcall	.-3102   	; 0x211a <ParseIntLn>
								TransmitStringLn("NUMBER ERR");
							}
							else
							{
								TransmitString("SHC");
								TransmitInt(slotNr, 1);
    2d38:	81 11       	cpse	r24, r1
    2d3a:	04 c0       	rjmp	.+8      	; 0x2d44 <TerminalParseCommand+0x59a>
    2d3c:	8e e0       	ldi	r24, 0x0E	; 14
    2d3e:	92 e0       	ldi	r25, 0x02	; 2
    2d40:	b2 d5       	rcall	.+2916   	; 0x38a6 <UART0TransmitStringLn>
    2d42:	18 c4       	rjmp	.+2096   	; 0x3574 <TerminalParseCommand+0xdca>
    2d44:	8a 81       	ldd	r24, Y+2	; 0x02
// String auf Interface ausgeben
// -------------------------------------------------------------

void TransmitString(char *string)
{
    UART0TransmitString(string);
    2d46:	9b 81       	ldd	r25, Y+3	; 0x03
    2d48:	8d 3d       	cpi	r24, 0xDD	; 221
    2d4a:	95 40       	sbci	r25, 0x05	; 5
							else
							{
								TransmitString("SHC");
								TransmitInt(slotNr, 1);
								TransmitString("L=");
								TransmitInt(temp16, 1);
    2d4c:	20 f0       	brcs	.+8      	; 0x2d56 <TerminalParseCommand+0x5ac>
    2d4e:	8d e1       	ldi	r24, 0x1D	; 29
    2d50:	92 e0       	ldi	r25, 0x02	; 2
    2d52:	a9 d5       	rcall	.+2898   	; 0x38a6 <UART0TransmitStringLn>
// String & CRLF auf Interface ausgeben
// -------------------------------------------------------------

void TransmitStringLn(char *string)
{
    UART0TransmitStringLn(string);
    2d54:	0f c4       	rjmp	.+2078   	; 0x3574 <TerminalParseCommand+0xdca>
    2d56:	87 e1       	ldi	r24, 0x17	; 23
    2d58:	93 e0       	ldi	r25, 0x03	; 3
    2d5a:	94 d5       	rcall	.+2856   	; 0x3884 <UART0TransmitString>
								TransmitInt(slotNr, 1);
								TransmitString("L=");
								TransmitInt(temp16, 1);
								TransmitStringLn(" mA");

								if (led_Source_Heat_Current_mA[slotNr-1] != temp16)
    2d5c:	0d 2d       	mov	r16, r13
    2d5e:	dd 0c       	add	r13, r13
    2d60:	11 0b       	sbc	r17, r17
    2d62:	61 e0       	ldi	r22, 0x01	; 1
    2d64:	c8 01       	movw	r24, r16
    2d66:	12 db       	rcall	.-2524   	; 0x238c <TransmitInt>
    2d68:	8b e1       	ldi	r24, 0x1B	; 27
    2d6a:	93 e0       	ldi	r25, 0x03	; 3
    2d6c:	8b d5       	rcall	.+2838   	; 0x3884 <UART0TransmitString>
    2d6e:	61 e0       	ldi	r22, 0x01	; 1
    2d70:	8a 81       	ldd	r24, Y+2	; 0x02
    2d72:	9b 81       	ldd	r25, Y+3	; 0x03
								{
									led_Source_Heat_Current_mA[slotNr-1] = temp16;
    2d74:	0b db       	rcall	.-2538   	; 0x238c <TransmitInt>
    2d76:	8f e8       	ldi	r24, 0x8F	; 143
    2d78:	92 e0       	ldi	r25, 0x02	; 2
    2d7a:	95 d5       	rcall	.+2858   	; 0x38a6 <UART0TransmitStringLn>
    2d7c:	c8 01       	movw	r24, r16
    2d7e:	01 97       	sbiw	r24, 0x01	; 1
									eeprom_write_word(&parameter1_eeprom[slotNr-1], temp16);
    2d80:	6a 81       	ldd	r22, Y+2	; 0x02
    2d82:	7b 81       	ldd	r23, Y+3	; 0x03
    2d84:	fc 01       	movw	r30, r24
									LED_Source_Set_Heat_Current(led_Source_Heat_Current_mA[slotNr-1], slotNr);
    2d86:	ee 0f       	add	r30, r30
    2d88:	ff 1f       	adc	r31, r31
    2d8a:	eb 54       	subi	r30, 0x4B	; 75
    2d8c:	fb 4f       	sbci	r31, 0xFB	; 251
    2d8e:	20 81       	ld	r18, Z
    2d90:	31 81       	ldd	r19, Z+1	; 0x01
    2d92:	26 17       	cp	r18, r22
							break;
	
						//3. Set Meas Current
						case _MK16('M','C'):
						
							if (!ParseIntLn(&string[6],3,&temp16))
    2d94:	37 07       	cpc	r19, r23
    2d96:	09 f4       	brne	.+2      	; 0x2d9a <TerminalParseCommand+0x5f0>
    2d98:	ed c3       	rjmp	.+2010   	; 0x3574 <TerminalParseCommand+0xdca>
    2d9a:	88 0f       	add	r24, r24
    2d9c:	99 1f       	adc	r25, r25
    2d9e:	fc 01       	movw	r30, r24
    2da0:	eb 54       	subi	r30, 0x4B	; 75
    2da2:	fb 4f       	sbci	r31, 0xFB	; 251
    2da4:	7f 01       	movw	r14, r30
    2da6:	71 83       	std	Z+1, r23	; 0x01
// String & CRLF auf Interface ausgeben
// -------------------------------------------------------------

void TransmitStringLn(char *string)
{
    UART0TransmitStringLn(string);
    2da8:	60 83       	st	Z, r22
    2daa:	80 5e       	subi	r24, 0xE0	; 224
    2dac:	9f 4f       	sbci	r25, 0xFF	; 255
    2dae:	0e 94 51 1f 	call	0x3ea2	; 0x3ea2 <eeprom_write_word>
							if (!ParseIntLn(&string[6],3,&temp16))
							{
								//no number
								TransmitStringLn("FORMAT ERR");
							}
							else if (temp16 > 250 || temp16 < 50)
    2db2:	b8 01       	movw	r22, r16
    2db4:	d7 01       	movw	r26, r14
    2db6:	8d 91       	ld	r24, X+
    2db8:	9c 91       	ld	r25, X
    2dba:	0e 94 88 04 	call	0x910	; 0x910 <LED_Source_Set_Heat_Current>
// String & CRLF auf Interface ausgeben
// -------------------------------------------------------------

void TransmitStringLn(char *string)
{
    UART0TransmitStringLn(string);
    2dbe:	da c3       	rjmp	.+1972   	; 0x3574 <TerminalParseCommand+0xdca>
    2dc0:	ae 01       	movw	r20, r28
    2dc2:	4e 5f       	subi	r20, 0xFE	; 254
    2dc4:	5f 4f       	sbci	r21, 0xFF	; 255
    2dc6:	63 e0       	ldi	r22, 0x03	; 3
// String auf Interface ausgeben
// -------------------------------------------------------------

void TransmitString(char *string)
{
    UART0TransmitString(string);
    2dc8:	c8 01       	movw	r24, r16
    2dca:	06 96       	adiw	r24, 0x06	; 6
    2dcc:	a6 d9       	rcall	.-3252   	; 0x211a <ParseIntLn>
								TransmitStringLn("NUMBER ERR");
							}
							else
							{
								TransmitString("SMC");
								TransmitInt(slotNr, 1);
    2dce:	81 11       	cpse	r24, r1
    2dd0:	04 c0       	rjmp	.+8      	; 0x2dda <TerminalParseCommand+0x630>
    2dd2:	8e e0       	ldi	r24, 0x0E	; 14
    2dd4:	92 e0       	ldi	r25, 0x02	; 2
    2dd6:	67 d5       	rcall	.+2766   	; 0x38a6 <UART0TransmitStringLn>
    2dd8:	cd c3       	rjmp	.+1946   	; 0x3574 <TerminalParseCommand+0xdca>
    2dda:	8a 81       	ldd	r24, Y+2	; 0x02
// String auf Interface ausgeben
// -------------------------------------------------------------

void TransmitString(char *string)
{
    UART0TransmitString(string);
    2ddc:	9b 81       	ldd	r25, Y+3	; 0x03
    2dde:	c2 97       	sbiw	r24, 0x32	; 50
    2de0:	89 3c       	cpi	r24, 0xC9	; 201
    2de2:	91 05       	cpc	r25, r1
							else
							{
								TransmitString("SMC");
								TransmitInt(slotNr, 1);
								TransmitString("L=");
								TransmitFloat(temp16, 1, 1);
    2de4:	20 f0       	brcs	.+8      	; 0x2dee <TerminalParseCommand+0x644>
    2de6:	8d e1       	ldi	r24, 0x1D	; 29
    2de8:	92 e0       	ldi	r25, 0x02	; 2
    2dea:	5d d5       	rcall	.+2746   	; 0x38a6 <UART0TransmitStringLn>
    2dec:	c3 c3       	rjmp	.+1926   	; 0x3574 <TerminalParseCommand+0xdca>
    2dee:	8e e1       	ldi	r24, 0x1E	; 30
// String & CRLF auf Interface ausgeben
// -------------------------------------------------------------

void TransmitStringLn(char *string)
{
    UART0TransmitStringLn(string);
    2df0:	93 e0       	ldi	r25, 0x03	; 3
    2df2:	48 d5       	rcall	.+2704   	; 0x3884 <UART0TransmitString>
    2df4:	0d 2d       	mov	r16, r13
    2df6:	dd 0c       	add	r13, r13
								TransmitInt(slotNr, 1);
								TransmitString("L=");
								TransmitFloat(temp16, 1, 1);
								TransmitStringLn(" mA");

								if (led_Source_Meas_Current_0mA1[slotNr-1] != temp16)
    2df8:	11 0b       	sbc	r17, r17
    2dfa:	61 e0       	ldi	r22, 0x01	; 1
    2dfc:	c8 01       	movw	r24, r16
    2dfe:	c6 da       	rcall	.-2676   	; 0x238c <TransmitInt>
    2e00:	8b e1       	ldi	r24, 0x1B	; 27
    2e02:	93 e0       	ldi	r25, 0x03	; 3
    2e04:	3f d5       	rcall	.+2686   	; 0x3884 <UART0TransmitString>
    2e06:	41 e0       	ldi	r20, 0x01	; 1
    2e08:	61 e0       	ldi	r22, 0x01	; 1
    2e0a:	8a 81       	ldd	r24, Y+2	; 0x02
    2e0c:	9b 81       	ldd	r25, Y+3	; 0x03
    2e0e:	8e db       	rcall	.-2276   	; 0x252c <TransmitFloat>
    2e10:	8f e8       	ldi	r24, 0x8F	; 143
								{
									led_Source_Meas_Current_0mA1[slotNr-1] = temp16;
    2e12:	92 e0       	ldi	r25, 0x02	; 2
    2e14:	48 d5       	rcall	.+2704   	; 0x38a6 <UART0TransmitStringLn>
    2e16:	c8 01       	movw	r24, r16
    2e18:	01 97       	sbiw	r24, 0x01	; 1
    2e1a:	6a 81       	ldd	r22, Y+2	; 0x02
    2e1c:	7b 81       	ldd	r23, Y+3	; 0x03
									eeprom_write_word(&parameter2_eeprom[slotNr-1],temp16);									
    2e1e:	fc 01       	movw	r30, r24
    2e20:	ee 0f       	add	r30, r30
									LED_Source_Set_Meas_Current(led_Source_Meas_Current_0mA1[slotNr-1], slotNr);
    2e22:	ff 1f       	adc	r31, r31
    2e24:	e9 5e       	subi	r30, 0xE9	; 233
    2e26:	fb 4f       	sbci	r31, 0xFB	; 251
    2e28:	20 81       	ld	r18, Z
    2e2a:	31 81       	ldd	r19, Z+1	; 0x01
// String & CRLF auf Interface ausgeben
// -------------------------------------------------------------

void TransmitStringLn(char *string)
{
    UART0TransmitStringLn(string);
    2e2c:	26 17       	cp	r18, r22
    2e2e:	37 07       	cpc	r19, r23
    2e30:	09 f4       	brne	.+2      	; 0x2e34 <TerminalParseCommand+0x68a>
    2e32:	a0 c3       	rjmp	.+1856   	; 0x3574 <TerminalParseCommand+0xdca>
    2e34:	88 0f       	add	r24, r24
				//2. MOSFET-Heat-Meas current Source
				#pragma region SettingsMOSFET-Source
				
				case 'M':
									
					switch(cmd){
    2e36:	99 1f       	adc	r25, r25
    2e38:	fc 01       	movw	r30, r24
    2e3a:	e9 5e       	subi	r30, 0xE9	; 233
    2e3c:	fb 4f       	sbci	r31, 0xFB	; 251
    2e3e:	7f 01       	movw	r14, r30
    2e40:	71 83       	std	Z+1, r23	; 0x01
    2e42:	60 83       	st	Z, r22
    2e44:	80 5f       	subi	r24, 0xF0	; 240
    2e46:	9f 4f       	sbci	r25, 0xFF	; 255
    2e48:	0e 94 51 1f 	call	0x3ea2	; 0x3ea2 <eeprom_write_word>
    2e4c:	b8 01       	movw	r22, r16
    2e4e:	d7 01       	movw	r26, r14
    2e50:	8d 91       	ld	r24, X+
    2e52:	9c 91       	ld	r25, X
    2e54:	0e 94 9f 04 	call	0x93e	; 0x93e <LED_Source_Set_Meas_Current>
    2e58:	8d c3       	rjmp	.+1818   	; 0x3574 <TerminalParseCommand+0xdca>
					
						//1. Set Heat Current
						case _MK16('H','C'):						
							if (!ParseIntLn(&string[6],4,&temp16))
    2e5a:	84 e4       	ldi	r24, 0x44	; 68
    2e5c:	92 e0       	ldi	r25, 0x02	; 2
    2e5e:	23 d5       	rcall	.+2630   	; 0x38a6 <UART0TransmitStringLn>
    2e60:	89 c3       	rjmp	.+1810   	; 0x3574 <TerminalParseCommand+0xdca>
    2e62:	bd e4       	ldi	r27, 0x4D	; 77
    2e64:	eb 16       	cp	r14, r27
    2e66:	b3 e4       	ldi	r27, 0x43	; 67
    2e68:	fb 06       	cpc	r15, r27
// String & CRLF auf Interface ausgeben
// -------------------------------------------------------------

void TransmitStringLn(char *string)
{
    UART0TransmitStringLn(string);
    2e6a:	09 f4       	brne	.+2      	; 0x2e6e <TerminalParseCommand+0x6c4>
    2e6c:	45 c0       	rjmp	.+138    	; 0x2ef8 <TerminalParseCommand+0x74e>
    2e6e:	ed e4       	ldi	r30, 0x4D	; 77
    2e70:	ee 16       	cp	r14, r30
    2e72:	e6 e5       	ldi	r30, 0x56	; 86
							if (!ParseIntLn(&string[6],4,&temp16))
							{
								//no number
								TransmitStringLn("FORMAT ERR");
							}
							else if (temp16 > 5000 || temp16 < 0)
    2e74:	fe 06       	cpc	r15, r30
    2e76:	09 f4       	brne	.+2      	; 0x2e7a <TerminalParseCommand+0x6d0>
    2e78:	7a c0       	rjmp	.+244    	; 0x2f6e <TerminalParseCommand+0x7c4>
    2e7a:	f8 e4       	ldi	r31, 0x48	; 72
// String & CRLF auf Interface ausgeben
// -------------------------------------------------------------

void TransmitStringLn(char *string)
{
    UART0TransmitStringLn(string);
    2e7c:	ef 16       	cp	r14, r31
    2e7e:	f3 e4       	ldi	r31, 0x43	; 67
    2e80:	ff 06       	cpc	r15, r31
    2e82:	09 f0       	breq	.+2      	; 0x2e86 <TerminalParseCommand+0x6dc>
// String auf Interface ausgeben
// -------------------------------------------------------------

void TransmitString(char *string)
{
    UART0TransmitString(string);
    2e84:	ae c0       	rjmp	.+348    	; 0x2fe2 <TerminalParseCommand+0x838>
    2e86:	ae 01       	movw	r20, r28
    2e88:	4e 5f       	subi	r20, 0xFE	; 254
								TransmitStringLn("NUMBER ERR");
							}
							else
							{
								TransmitString("SHC MOSFET=");
								TransmitInt(temp16, 1);
    2e8a:	5f 4f       	sbci	r21, 0xFF	; 255
    2e8c:	64 e0       	ldi	r22, 0x04	; 4
    2e8e:	c8 01       	movw	r24, r16
// String & CRLF auf Interface ausgeben
// -------------------------------------------------------------

void TransmitStringLn(char *string)
{
    UART0TransmitStringLn(string);
    2e90:	06 96       	adiw	r24, 0x06	; 6
    2e92:	43 d9       	rcall	.-3450   	; 0x211a <ParseIntLn>
    2e94:	81 11       	cpse	r24, r1
    2e96:	04 c0       	rjmp	.+8      	; 0x2ea0 <TerminalParseCommand+0x6f6>
							{
								TransmitString("SHC MOSFET=");
								TransmitInt(temp16, 1);
								TransmitStringLn(" mA");

								if (heat_pulse_current != temp16)
    2e98:	8e e0       	ldi	r24, 0x0E	; 14
    2e9a:	92 e0       	ldi	r25, 0x02	; 2
    2e9c:	04 d5       	rcall	.+2568   	; 0x38a6 <UART0TransmitStringLn>
    2e9e:	6a c3       	rjmp	.+1748   	; 0x3574 <TerminalParseCommand+0xdca>
    2ea0:	8a 81       	ldd	r24, Y+2	; 0x02
    2ea2:	9b 81       	ldd	r25, Y+3	; 0x03
    2ea4:	89 38       	cpi	r24, 0x89	; 137
    2ea6:	93 41       	sbci	r25, 0x13	; 19
    2ea8:	20 f0       	brcs	.+8      	; 0x2eb2 <TerminalParseCommand+0x708>
    2eaa:	8d e1       	ldi	r24, 0x1D	; 29
								{
									heat_pulse_current = temp16;
    2eac:	92 e0       	ldi	r25, 0x02	; 2
    2eae:	fb d4       	rcall	.+2550   	; 0x38a6 <UART0TransmitStringLn>
    2eb0:	61 c3       	rjmp	.+1730   	; 0x3574 <TerminalParseCommand+0xdca>
    2eb2:	82 e2       	ldi	r24, 0x22	; 34
									eeprom_write_word(&heat_pulse_current_eeprom,temp16);
    2eb4:	93 e0       	ldi	r25, 0x03	; 3
    2eb6:	e6 d4       	rcall	.+2508   	; 0x3884 <UART0TransmitString>
    2eb8:	61 e0       	ldi	r22, 0x01	; 1
    2eba:	8a 81       	ldd	r24, Y+2	; 0x02

									MOSFETSource_set_Heat_Current(heat_pulse_current, slotNr);
    2ebc:	9b 81       	ldd	r25, Y+3	; 0x03
    2ebe:	66 da       	rcall	.-2868   	; 0x238c <TransmitInt>
    2ec0:	8f e8       	ldi	r24, 0x8F	; 143
    2ec2:	92 e0       	ldi	r25, 0x02	; 2
    2ec4:	f0 d4       	rcall	.+2528   	; 0x38a6 <UART0TransmitStringLn>
    2ec6:	6a 81       	ldd	r22, Y+2	; 0x02
    2ec8:	7b 81       	ldd	r23, Y+3	; 0x03
							}
							break;
						
						//2. Set Meas Current
						case _MK16('M','C'):						
														if (!ParseIntLn(&string[6],3,&temp16))
    2eca:	80 91 d8 04 	lds	r24, 0x04D8	; 0x8004d8 <heat_pulse_current>
    2ece:	90 91 d9 04 	lds	r25, 0x04D9	; 0x8004d9 <heat_pulse_current+0x1>
    2ed2:	86 17       	cp	r24, r22
    2ed4:	97 07       	cpc	r25, r23
    2ed6:	09 f4       	brne	.+2      	; 0x2eda <TerminalParseCommand+0x730>
    2ed8:	4d c3       	rjmp	.+1690   	; 0x3574 <TerminalParseCommand+0xdca>
    2eda:	70 93 d9 04 	sts	0x04D9, r23	; 0x8004d9 <heat_pulse_current+0x1>
// String & CRLF auf Interface ausgeben
// -------------------------------------------------------------

void TransmitStringLn(char *string)
{
    UART0TransmitStringLn(string);
    2ede:	60 93 d8 04 	sts	0x04D8, r22	; 0x8004d8 <heat_pulse_current>
    2ee2:	8d e4       	ldi	r24, 0x4D	; 77
														if (!ParseIntLn(&string[6],3,&temp16))
							{
								//no number
								TransmitStringLn("FORMAT ERR");
							}
							else if (temp16 > 250 || temp16 < 50)
    2ee4:	90 e0       	ldi	r25, 0x00	; 0
    2ee6:	dd d7       	rcall	.+4026   	; 0x3ea2 <eeprom_write_word>
    2ee8:	6d 2d       	mov	r22, r13
    2eea:	80 91 d8 04 	lds	r24, 0x04D8	; 0x8004d8 <heat_pulse_current>
// String & CRLF auf Interface ausgeben
// -------------------------------------------------------------

void TransmitStringLn(char *string)
{
    UART0TransmitStringLn(string);
    2eee:	90 91 d9 04 	lds	r25, 0x04D9	; 0x8004d9 <heat_pulse_current+0x1>
// String auf Interface ausgeben
// -------------------------------------------------------------

void TransmitString(char *string)
{
    UART0TransmitString(string);
    2ef2:	0e 94 df 00 	call	0x1be	; 0x1be <MOSFETSource_set_Heat_Current>
    2ef6:	3e c3       	rjmp	.+1660   	; 0x3574 <TerminalParseCommand+0xdca>
								TransmitStringLn("NUMBER ERR");
							}
							else
							{
								TransmitString("SMC MOSFET=");
								TransmitFloat(temp16, 1, 1);
    2ef8:	ae 01       	movw	r20, r28
    2efa:	4e 5f       	subi	r20, 0xFE	; 254
    2efc:	5f 4f       	sbci	r21, 0xFF	; 255
    2efe:	63 e0       	ldi	r22, 0x03	; 3
    2f00:	c8 01       	movw	r24, r16
    2f02:	06 96       	adiw	r24, 0x06	; 6
// String & CRLF auf Interface ausgeben
// -------------------------------------------------------------

void TransmitStringLn(char *string)
{
    UART0TransmitStringLn(string);
    2f04:	0a d9       	rcall	.-3564   	; 0x211a <ParseIntLn>
    2f06:	81 11       	cpse	r24, r1
    2f08:	04 c0       	rjmp	.+8      	; 0x2f12 <TerminalParseCommand+0x768>
    2f0a:	8e e0       	ldi	r24, 0x0E	; 14
							{
								TransmitString("SMC MOSFET=");
								TransmitFloat(temp16, 1, 1);
								TransmitStringLn(" mA");

								if (measure_pulse_current != temp16)
    2f0c:	92 e0       	ldi	r25, 0x02	; 2
    2f0e:	cb d4       	rcall	.+2454   	; 0x38a6 <UART0TransmitStringLn>
    2f10:	31 c3       	rjmp	.+1634   	; 0x3574 <TerminalParseCommand+0xdca>
    2f12:	8a 81       	ldd	r24, Y+2	; 0x02
    2f14:	9b 81       	ldd	r25, Y+3	; 0x03
    2f16:	c2 97       	sbiw	r24, 0x32	; 50
    2f18:	89 3c       	cpi	r24, 0xC9	; 201
    2f1a:	91 05       	cpc	r25, r1
    2f1c:	20 f0       	brcs	.+8      	; 0x2f26 <TerminalParseCommand+0x77c>
    2f1e:	8d e1       	ldi	r24, 0x1D	; 29
								{
									measure_pulse_current = temp16;
    2f20:	92 e0       	ldi	r25, 0x02	; 2
    2f22:	c1 d4       	rcall	.+2434   	; 0x38a6 <UART0TransmitStringLn>
    2f24:	27 c3       	rjmp	.+1614   	; 0x3574 <TerminalParseCommand+0xdca>
									eeprom_write_word(&measure_pulse_current_eeprom,temp16);
    2f26:	8e e2       	ldi	r24, 0x2E	; 46
    2f28:	93 e0       	ldi	r25, 0x03	; 3
								
									MOSFETSource_set_Meas_Current(measure_pulse_current, slotNr);
    2f2a:	ac d4       	rcall	.+2392   	; 0x3884 <UART0TransmitString>
    2f2c:	41 e0       	ldi	r20, 0x01	; 1
    2f2e:	61 e0       	ldi	r22, 0x01	; 1
    2f30:	8a 81       	ldd	r24, Y+2	; 0x02
    2f32:	9b 81       	ldd	r25, Y+3	; 0x03
    2f34:	fb da       	rcall	.-2570   	; 0x252c <TransmitFloat>
    2f36:	8f e8       	ldi	r24, 0x8F	; 143
							
							break;
							
						//3. Set Meas Voltage
						case _MK16('M','V'):
							if (!ParseIntLn(&string[6],4,&temp16))
    2f38:	92 e0       	ldi	r25, 0x02	; 2
    2f3a:	b5 d4       	rcall	.+2410   	; 0x38a6 <UART0TransmitStringLn>
    2f3c:	6a 81       	ldd	r22, Y+2	; 0x02
    2f3e:	7b 81       	ldd	r23, Y+3	; 0x03
    2f40:	80 91 b3 04 	lds	r24, 0x04B3	; 0x8004b3 <measure_pulse_current>
    2f44:	90 91 b4 04 	lds	r25, 0x04B4	; 0x8004b4 <measure_pulse_current+0x1>
    2f48:	86 17       	cp	r24, r22
    2f4a:	97 07       	cpc	r25, r23
// String & CRLF auf Interface ausgeben
// -------------------------------------------------------------

void TransmitStringLn(char *string)
{
    UART0TransmitStringLn(string);
    2f4c:	09 f4       	brne	.+2      	; 0x2f50 <TerminalParseCommand+0x7a6>
    2f4e:	12 c3       	rjmp	.+1572   	; 0x3574 <TerminalParseCommand+0xdca>
    2f50:	70 93 b4 04 	sts	0x04B4, r23	; 0x8004b4 <measure_pulse_current+0x1>
    2f54:	60 93 b3 04 	sts	0x04B3, r22	; 0x8004b3 <measure_pulse_current>
							if (!ParseIntLn(&string[6],4,&temp16))
							{
								//no number
								TransmitStringLn("FORMAT ERR");
							}
							else if (temp16 > 2000 || temp16 < 100)
    2f58:	87 e4       	ldi	r24, 0x47	; 71
    2f5a:	90 e0       	ldi	r25, 0x00	; 0
    2f5c:	a2 d7       	rcall	.+3908   	; 0x3ea2 <eeprom_write_word>
    2f5e:	6d 2d       	mov	r22, r13
    2f60:	80 91 b3 04 	lds	r24, 0x04B3	; 0x8004b3 <measure_pulse_current>
// String & CRLF auf Interface ausgeben
// -------------------------------------------------------------

void TransmitStringLn(char *string)
{
    UART0TransmitStringLn(string);
    2f64:	90 91 b4 04 	lds	r25, 0x04B4	; 0x8004b4 <measure_pulse_current+0x1>
    2f68:	0e 94 03 01 	call	0x206	; 0x206 <MOSFETSource_set_Meas_Current>
// String auf Interface ausgeben
// -------------------------------------------------------------

void TransmitString(char *string)
{
    UART0TransmitString(string);
    2f6c:	03 c3       	rjmp	.+1542   	; 0x3574 <TerminalParseCommand+0xdca>
								TransmitStringLn("NUMBER ERR");
							}
							else
							{
								TransmitString("SMV MOSFET=");
								TransmitFloat(temp16, 1, 2);
    2f6e:	ae 01       	movw	r20, r28
    2f70:	4e 5f       	subi	r20, 0xFE	; 254
    2f72:	5f 4f       	sbci	r21, 0xFF	; 255
    2f74:	64 e0       	ldi	r22, 0x04	; 4
// String & CRLF auf Interface ausgeben
// -------------------------------------------------------------

void TransmitStringLn(char *string)
{
    UART0TransmitStringLn(string);
    2f76:	c8 01       	movw	r24, r16
    2f78:	06 96       	adiw	r24, 0x06	; 6
    2f7a:	cf d8       	rcall	.-3682   	; 0x211a <ParseIntLn>
    2f7c:	81 11       	cpse	r24, r1
							{
								TransmitString("SMV MOSFET=");
								TransmitFloat(temp16, 1, 2);
								TransmitStringLn(" V");

								if (measure_pulse_voltage != temp16)
    2f7e:	04 c0       	rjmp	.+8      	; 0x2f88 <TerminalParseCommand+0x7de>
    2f80:	8e e0       	ldi	r24, 0x0E	; 14
    2f82:	92 e0       	ldi	r25, 0x02	; 2
    2f84:	90 d4       	rcall	.+2336   	; 0x38a6 <UART0TransmitStringLn>
    2f86:	f6 c2       	rjmp	.+1516   	; 0x3574 <TerminalParseCommand+0xdca>
    2f88:	8a 81       	ldd	r24, Y+2	; 0x02
    2f8a:	9b 81       	ldd	r25, Y+3	; 0x03
    2f8c:	84 56       	subi	r24, 0x64	; 100
    2f8e:	91 09       	sbc	r25, r1
								{
									measure_pulse_voltage = temp16;
    2f90:	8d 36       	cpi	r24, 0x6D	; 109
    2f92:	97 40       	sbci	r25, 0x07	; 7
    2f94:	20 f0       	brcs	.+8      	; 0x2f9e <TerminalParseCommand+0x7f4>
    2f96:	8d e1       	ldi	r24, 0x1D	; 29
									eeprom_write_word(&measure_pulse_voltage_eeprom,temp16);
    2f98:	92 e0       	ldi	r25, 0x02	; 2
    2f9a:	85 d4       	rcall	.+2314   	; 0x38a6 <UART0TransmitStringLn>
    2f9c:	eb c2       	rjmp	.+1494   	; 0x3574 <TerminalParseCommand+0xdca>
									
																						
									MOSFETSource_set_Meas_Voltage(temp16, slotNr);
    2f9e:	8a e3       	ldi	r24, 0x3A	; 58
    2fa0:	93 e0       	ldi	r25, 0x03	; 3
    2fa2:	70 d4       	rcall	.+2272   	; 0x3884 <UART0TransmitString>
    2fa4:	42 e0       	ldi	r20, 0x02	; 2
    2fa6:	61 e0       	ldi	r22, 0x01	; 1
// String & CRLF auf Interface ausgeben
// -------------------------------------------------------------

void TransmitStringLn(char *string)
{
    UART0TransmitStringLn(string);
    2fa8:	8a 81       	ldd	r24, Y+2	; 0x02
    2faa:	9b 81       	ldd	r25, Y+3	; 0x03
    2fac:	bf da       	rcall	.-2690   	; 0x252c <TransmitFloat>
    2fae:	8d e3       	ldi	r24, 0x3D	; 61
    2fb0:	92 e0       	ldi	r25, 0x02	; 2
    2fb2:	79 d4       	rcall	.+2290   	; 0x38a6 <UART0TransmitStringLn>
    2fb4:	6a 81       	ldd	r22, Y+2	; 0x02
								
				//4. Amplifier
				#pragma region SettingsFrontend
				
				case 'A':
					switch(cmd){
    2fb6:	7b 81       	ldd	r23, Y+3	; 0x03
    2fb8:	80 91 15 04 	lds	r24, 0x0415	; 0x800415 <measure_pulse_voltage>
    2fbc:	90 91 16 04 	lds	r25, 0x0416	; 0x800416 <measure_pulse_voltage+0x1>
    2fc0:	86 17       	cp	r24, r22
    2fc2:	97 07       	cpc	r25, r23
    2fc4:	09 f4       	brne	.+2      	; 0x2fc8 <TerminalParseCommand+0x81e>
    2fc6:	d6 c2       	rjmp	.+1452   	; 0x3574 <TerminalParseCommand+0xdca>
    2fc8:	70 93 16 04 	sts	0x0416, r23	; 0x800416 <measure_pulse_voltage+0x1>
    2fcc:	60 93 15 04 	sts	0x0415, r22	; 0x800415 <measure_pulse_voltage>
    2fd0:	81 e4       	ldi	r24, 0x41	; 65
    2fd2:	90 e0       	ldi	r25, 0x00	; 0
    2fd4:	66 d7       	rcall	.+3788   	; 0x3ea2 <eeprom_write_word>
						
						//1. Initialization
						case _MK16('I','N'):
							if (string[5] != '\n')
    2fd6:	6d 2d       	mov	r22, r13
    2fd8:	8a 81       	ldd	r24, Y+2	; 0x02
    2fda:	9b 81       	ldd	r25, Y+3	; 0x03
    2fdc:	0e 94 27 01 	call	0x24e	; 0x24e <MOSFETSource_set_Meas_Voltage>
// String & CRLF auf Interface ausgeben
// -------------------------------------------------------------

void TransmitStringLn(char *string)
{
    UART0TransmitStringLn(string);
    2fe0:	c9 c2       	rjmp	.+1426   	; 0x3574 <TerminalParseCommand+0xdca>
    2fe2:	84 e4       	ldi	r24, 0x44	; 68
    2fe4:	92 e0       	ldi	r25, 0x02	; 2
								//to many signs
								TransmitStringLn("FORMAT ERR");
							}
							else
							{
								Amplifier_Init(slotNr);
    2fe6:	5f d4       	rcall	.+2238   	; 0x38a6 <UART0TransmitStringLn>
    2fe8:	c5 c2       	rjmp	.+1418   	; 0x3574 <TerminalParseCommand+0xdca>
    2fea:	86 e4       	ldi	r24, 0x46	; 70
    2fec:	93 e0       	ldi	r25, 0x03	; 3
    2fee:	5b d4       	rcall	.+2230   	; 0x38a6 <UART0TransmitStringLn>
// String auf Interface ausgeben
// -------------------------------------------------------------

void TransmitString(char *string)
{
    UART0TransmitString(string);
    2ff0:	c1 c2       	rjmp	.+1410   	; 0x3574 <TerminalParseCommand+0xdca>
    2ff2:	89 e4       	ldi	r24, 0x49	; 73
    2ff4:	e8 16       	cp	r14, r24
    2ff6:	8e e4       	ldi	r24, 0x4E	; 78
							{
								Amplifier_Init(slotNr);
							
								//Answer
								TransmitString("SIN");
								TransmitInt(slotNr, 1);
    2ff8:	f8 06       	cpc	r15, r24
    2ffa:	69 f0       	breq	.+26     	; 0x3016 <TerminalParseCommand+0x86c>
    2ffc:	a7 e5       	ldi	r26, 0x57	; 87
    2ffe:	ea 16       	cp	r14, r26
// String & CRLF auf Interface ausgeben
// -------------------------------------------------------------

void TransmitStringLn(char *string)
{
    UART0TransmitStringLn(string);
    3000:	af e4       	ldi	r26, 0x4F	; 79
    3002:	fa 06       	cpc	r15, r26
    3004:	09 f4       	brne	.+2      	; 0x3008 <TerminalParseCommand+0x85e>
    3006:	6b c0       	rjmp	.+214    	; 0x30de <TerminalParseCommand+0x934>
    3008:	b7 e5       	ldi	r27, 0x57	; 87
							break;
						
						//2. Window Gain (Fixed to 2)
						case _MK16('W','G'):
						
							if (!ParseIntLn(&string[6],4,&temp16))
    300a:	eb 16       	cp	r14, r27
    300c:	b7 e4       	ldi	r27, 0x47	; 71
    300e:	fb 06       	cpc	r15, r27
    3010:	09 f0       	breq	.+2      	; 0x3014 <TerminalParseCommand+0x86a>
    3012:	ad c0       	rjmp	.+346    	; 0x316e <TerminalParseCommand+0x9c4>
    3014:	18 c0       	rjmp	.+48     	; 0x3046 <TerminalParseCommand+0x89c>
    3016:	f8 01       	movw	r30, r16
    3018:	85 81       	ldd	r24, Z+5	; 0x05
    301a:	8a 30       	cpi	r24, 0x0A	; 10
// String & CRLF auf Interface ausgeben
// -------------------------------------------------------------

void TransmitStringLn(char *string)
{
    UART0TransmitStringLn(string);
    301c:	21 f0       	breq	.+8      	; 0x3026 <TerminalParseCommand+0x87c>
    301e:	8e e0       	ldi	r24, 0x0E	; 14
    3020:	92 e0       	ldi	r25, 0x02	; 2
    3022:	41 d4       	rcall	.+2178   	; 0x38a6 <UART0TransmitStringLn>
							if (!ParseIntLn(&string[6],4,&temp16))
							{
								//no number
								TransmitStringLn("FORMAT ERR");
							}
							else if (temp16 > 100 || temp16 < 1)
    3024:	a7 c2       	rjmp	.+1358   	; 0x3574 <TerminalParseCommand+0xdca>
    3026:	0d 2d       	mov	r16, r13
    3028:	dd 0c       	add	r13, r13
    302a:	11 0b       	sbc	r17, r17
    302c:	c8 01       	movw	r24, r16
// String & CRLF auf Interface ausgeben
// -------------------------------------------------------------

void TransmitStringLn(char *string)
{
    UART0TransmitStringLn(string);
    302e:	0e 94 8d 01 	call	0x31a	; 0x31a <Amplifier_Init>
    3032:	89 e1       	ldi	r24, 0x19	; 25
// String auf Interface ausgeben
// -------------------------------------------------------------

void TransmitString(char *string)
{
    UART0TransmitString(string);
    3034:	92 e0       	ldi	r25, 0x02	; 2
    3036:	26 d4       	rcall	.+2124   	; 0x3884 <UART0TransmitString>
    3038:	61 e0       	ldi	r22, 0x01	; 1
								TransmitStringLn("NUMBER ERR");
							}
							else
							{
								TransmitString("SWG");
								TransmitInt(slotNr, 1);
    303a:	c8 01       	movw	r24, r16
    303c:	a7 d9       	rcall	.-3250   	; 0x238c <TransmitInt>
    303e:	81 e9       	ldi	r24, 0x91	; 145
    3040:	92 e0       	ldi	r25, 0x02	; 2
    3042:	31 d4       	rcall	.+2146   	; 0x38a6 <UART0TransmitStringLn>
// String auf Interface ausgeben
// -------------------------------------------------------------

void TransmitString(char *string)
{
    UART0TransmitString(string);
    3044:	97 c2       	rjmp	.+1326   	; 0x3574 <TerminalParseCommand+0xdca>
    3046:	ae 01       	movw	r20, r28
    3048:	4e 5f       	subi	r20, 0xFE	; 254
    304a:	5f 4f       	sbci	r21, 0xFF	; 255
							{
								TransmitString("SWG");
								TransmitInt(slotNr, 1);
								TransmitString("A=");
								//TransmitInt(temp16, 1);
								TransmitInt(2, 1);
    304c:	64 e0       	ldi	r22, 0x04	; 4
    304e:	c8 01       	movw	r24, r16
    3050:	06 96       	adiw	r24, 0x06	; 6
    3052:	63 d8       	rcall	.-3898   	; 0x211a <ParseIntLn>
    3054:	81 11       	cpse	r24, r1
// String & CRLF auf Interface ausgeben
// -------------------------------------------------------------

void TransmitStringLn(char *string)
{
    UART0TransmitStringLn(string);
    3056:	04 c0       	rjmp	.+8      	; 0x3060 <TerminalParseCommand+0x8b6>
    3058:	8e e0       	ldi	r24, 0x0E	; 14
    305a:	92 e0       	ldi	r25, 0x02	; 2
    305c:	24 d4       	rcall	.+2120   	; 0x38a6 <UART0TransmitStringLn>
								TransmitString("A=");
								//TransmitInt(temp16, 1);
								TransmitInt(2, 1);
								TransmitStringLn(" W/O-Unit");

								if (amplifier_gain[slotNr-1] != temp16)
    305e:	8a c2       	rjmp	.+1300   	; 0x3574 <TerminalParseCommand+0xdca>
    3060:	8a 81       	ldd	r24, Y+2	; 0x02
    3062:	9b 81       	ldd	r25, Y+3	; 0x03
    3064:	01 97       	sbiw	r24, 0x01	; 1
    3066:	84 36       	cpi	r24, 0x64	; 100
    3068:	91 05       	cpc	r25, r1
    306a:	20 f0       	brcs	.+8      	; 0x3074 <TerminalParseCommand+0x8ca>
    306c:	8d e1       	ldi	r24, 0x1D	; 29
    306e:	92 e0       	ldi	r25, 0x02	; 2
    3070:	1a d4       	rcall	.+2100   	; 0x38a6 <UART0TransmitStringLn>
    3072:	80 c2       	rjmp	.+1280   	; 0x3574 <TerminalParseCommand+0xdca>
    3074:	88 e2       	ldi	r24, 0x28	; 40
    3076:	92 e0       	ldi	r25, 0x02	; 2
    3078:	05 d4       	rcall	.+2058   	; 0x3884 <UART0TransmitString>
								{
									amplifier_gain[slotNr-1] = 2;
    307a:	0d 2d       	mov	r16, r13
    307c:	dd 0c       	add	r13, r13
    307e:	11 0b       	sbc	r17, r17
    3080:	61 e0       	ldi	r22, 0x01	; 1
    3082:	c8 01       	movw	r24, r16
    3084:	83 d9       	rcall	.-3322   	; 0x238c <TransmitInt>
									eeprom_write_word(&parameter1_eeprom[slotNr-1], 2);
    3086:	81 e6       	ldi	r24, 0x61	; 97
    3088:	93 e0       	ldi	r25, 0x03	; 3
    308a:	fc d3       	rcall	.+2040   	; 0x3884 <UART0TransmitString>
    308c:	61 e0       	ldi	r22, 0x01	; 1
    308e:	82 e0       	ldi	r24, 0x02	; 2
    3090:	90 e0       	ldi	r25, 0x00	; 0
									Amplifier_Set_Gain(amplifier_gain[slotNr-1], slotNr);
    3092:	7c d9       	rcall	.-3336   	; 0x238c <TransmitInt>
    3094:	8f e2       	ldi	r24, 0x2F	; 47
    3096:	92 e0       	ldi	r25, 0x02	; 2
    3098:	06 d4       	rcall	.+2060   	; 0x38a6 <UART0TransmitStringLn>
    309a:	c8 01       	movw	r24, r16
							}
							break;
						//3. Set Window Offset Voltage
						case _MK16('W','O'):
						
							if (!ParseIntLn(&string[6],4,&temp16))
    309c:	01 97       	sbiw	r24, 0x01	; 1
    309e:	fc 01       	movw	r30, r24
    30a0:	ee 0f       	add	r30, r30
    30a2:	ff 1f       	adc	r31, r31
    30a4:	e4 52       	subi	r30, 0x24	; 36
    30a6:	fb 4f       	sbci	r31, 0xFB	; 251
    30a8:	40 81       	ld	r20, Z
// String & CRLF auf Interface ausgeben
// -------------------------------------------------------------

void TransmitStringLn(char *string)
{
    UART0TransmitStringLn(string);
    30aa:	51 81       	ldd	r21, Z+1	; 0x01
    30ac:	2a 81       	ldd	r18, Y+2	; 0x02
    30ae:	3b 81       	ldd	r19, Y+3	; 0x03
    30b0:	42 17       	cp	r20, r18
    30b2:	53 07       	cpc	r21, r19
							if (!ParseIntLn(&string[6],4,&temp16))
							{
								//no number
								TransmitStringLn("FORMAT ERR");
							}
							else if (temp16 > 10000 || temp16 < 0)
    30b4:	09 f4       	brne	.+2      	; 0x30b8 <TerminalParseCommand+0x90e>
    30b6:	5e c2       	rjmp	.+1212   	; 0x3574 <TerminalParseCommand+0xdca>
    30b8:	88 0f       	add	r24, r24
    30ba:	99 1f       	adc	r25, r25
    30bc:	7f 01       	movw	r14, r30
// String & CRLF auf Interface ausgeben
// -------------------------------------------------------------

void TransmitStringLn(char *string)
{
    UART0TransmitStringLn(string);
    30be:	22 e0       	ldi	r18, 0x02	; 2
    30c0:	30 e0       	ldi	r19, 0x00	; 0
    30c2:	31 83       	std	Z+1, r19	; 0x01
    30c4:	20 83       	st	Z, r18
    30c6:	62 e0       	ldi	r22, 0x02	; 2
// String auf Interface ausgeben
// -------------------------------------------------------------

void TransmitString(char *string)
{
    UART0TransmitString(string);
    30c8:	70 e0       	ldi	r23, 0x00	; 0
    30ca:	80 5e       	subi	r24, 0xE0	; 224
    30cc:	9f 4f       	sbci	r25, 0xFF	; 255
								TransmitStringLn("NUMBER ERR");
							}
							else
							{
								TransmitString("SWO");
								TransmitInt(slotNr, 1);
    30ce:	e9 d6       	rcall	.+3538   	; 0x3ea2 <eeprom_write_word>
    30d0:	b8 01       	movw	r22, r16
    30d2:	f7 01       	movw	r30, r14
    30d4:	80 81       	ld	r24, Z
    30d6:	91 81       	ldd	r25, Z+1	; 0x01
    30d8:	0e 94 74 01 	call	0x2e8	; 0x2e8 <Amplifier_Set_Gain>
// String auf Interface ausgeben
// -------------------------------------------------------------

void TransmitString(char *string)
{
    UART0TransmitString(string);
    30dc:	4b c2       	rjmp	.+1174   	; 0x3574 <TerminalParseCommand+0xdca>
    30de:	ae 01       	movw	r20, r28
    30e0:	4e 5f       	subi	r20, 0xFE	; 254
							else
							{
								TransmitString("SWO");
								TransmitInt(slotNr, 1);
								TransmitString("A=");
								TransmitFloat(temp16,1, 3);
    30e2:	5f 4f       	sbci	r21, 0xFF	; 255
    30e4:	64 e0       	ldi	r22, 0x04	; 4
    30e6:	c8 01       	movw	r24, r16
    30e8:	06 96       	adiw	r24, 0x06	; 6
    30ea:	17 d8       	rcall	.-4050   	; 0x211a <ParseIntLn>
    30ec:	81 11       	cpse	r24, r1
// String & CRLF auf Interface ausgeben
// -------------------------------------------------------------

void TransmitStringLn(char *string)
{
    UART0TransmitStringLn(string);
    30ee:	04 c0       	rjmp	.+8      	; 0x30f8 <TerminalParseCommand+0x94e>
    30f0:	8e e0       	ldi	r24, 0x0E	; 14
    30f2:	92 e0       	ldi	r25, 0x02	; 2
    30f4:	d8 d3       	rcall	.+1968   	; 0x38a6 <UART0TransmitStringLn>
								TransmitInt(slotNr, 1);
								TransmitString("A=");
								TransmitFloat(temp16,1, 3);
								TransmitStringLn(" V");

								if (amplifier_offset_voltage_mV[slotNr-1] != temp16)
    30f6:	3e c2       	rjmp	.+1148   	; 0x3574 <TerminalParseCommand+0xdca>
    30f8:	8a 81       	ldd	r24, Y+2	; 0x02
    30fa:	9b 81       	ldd	r25, Y+3	; 0x03
    30fc:	81 31       	cpi	r24, 0x11	; 17
    30fe:	97 42       	sbci	r25, 0x27	; 39
    3100:	20 f0       	brcs	.+8      	; 0x310a <TerminalParseCommand+0x960>
    3102:	8d e1       	ldi	r24, 0x1D	; 29
    3104:	92 e0       	ldi	r25, 0x02	; 2
    3106:	cf d3       	rcall	.+1950   	; 0x38a6 <UART0TransmitStringLn>
    3108:	35 c2       	rjmp	.+1130   	; 0x3574 <TerminalParseCommand+0xdca>
    310a:	89 e3       	ldi	r24, 0x39	; 57
    310c:	92 e0       	ldi	r25, 0x02	; 2
    310e:	ba d3       	rcall	.+1908   	; 0x3884 <UART0TransmitString>
    3110:	0d 2d       	mov	r16, r13
    3112:	dd 0c       	add	r13, r13
								{
									amplifier_offset_voltage_mV[slotNr-1] = temp16;
    3114:	11 0b       	sbc	r17, r17
    3116:	61 e0       	ldi	r22, 0x01	; 1
    3118:	c8 01       	movw	r24, r16
    311a:	38 d9       	rcall	.-3472   	; 0x238c <TransmitInt>
    311c:	81 e6       	ldi	r24, 0x61	; 97
									eeprom_write_word(&parameter2_eeprom[slotNr-1], temp16);
    311e:	93 e0       	ldi	r25, 0x03	; 3
    3120:	b1 d3       	rcall	.+1890   	; 0x3884 <UART0TransmitString>
    3122:	43 e0       	ldi	r20, 0x03	; 3
    3124:	61 e0       	ldi	r22, 0x01	; 1
									Amplifier_Set_Offset_Voltage(amplifier_offset_voltage_mV[slotNr-1], slotNr);
    3126:	8a 81       	ldd	r24, Y+2	; 0x02
    3128:	9b 81       	ldd	r25, Y+3	; 0x03
    312a:	00 da       	rcall	.-3072   	; 0x252c <TransmitFloat>
    312c:	8d e3       	ldi	r24, 0x3D	; 61
    312e:	92 e0       	ldi	r25, 0x02	; 2
    3130:	ba d3       	rcall	.+1908   	; 0x38a6 <UART0TransmitStringLn>
    3132:	c8 01       	movw	r24, r16
// String & CRLF auf Interface ausgeben
// -------------------------------------------------------------

void TransmitStringLn(char *string)
{
    UART0TransmitStringLn(string);
    3134:	01 97       	sbiw	r24, 0x01	; 1
    3136:	6a 81       	ldd	r22, Y+2	; 0x02
    3138:	7b 81       	ldd	r23, Y+3	; 0x03
    313a:	fc 01       	movw	r30, r24
					
				//5. SlotTester
				#pragma region Setting_SlotTester
					
				case 'T':
					switch(cmd){
    313c:	ee 0f       	add	r30, r30
    313e:	ff 1f       	adc	r31, r31
    3140:	ef 5c       	subi	r30, 0xCF	; 207
    3142:	fa 4f       	sbci	r31, 0xFA	; 250
    3144:	20 81       	ld	r18, Z
    3146:	31 81       	ldd	r19, Z+1	; 0x01
						
						//1. Set Heat Current
						case _MK16('S','T'):						
							if (string[5] != '\n')
    3148:	26 17       	cp	r18, r22
    314a:	37 07       	cpc	r19, r23
    314c:	09 f4       	brne	.+2      	; 0x3150 <TerminalParseCommand+0x9a6>
    314e:	12 c2       	rjmp	.+1060   	; 0x3574 <TerminalParseCommand+0xdca>
    3150:	88 0f       	add	r24, r24
// String & CRLF auf Interface ausgeben
// -------------------------------------------------------------

void TransmitStringLn(char *string)
{
    UART0TransmitStringLn(string);
    3152:	99 1f       	adc	r25, r25
    3154:	7f 01       	movw	r14, r30
    3156:	71 83       	std	Z+1, r23	; 0x01
    3158:	60 83       	st	Z, r22
    315a:	80 5f       	subi	r24, 0xF0	; 240
// String auf Interface ausgeben
// -------------------------------------------------------------

void TransmitString(char *string)
{
    UART0TransmitString(string);
    315c:	9f 4f       	sbci	r25, 0xFF	; 255
    315e:	a1 d6       	rcall	.+3394   	; 0x3ea2 <eeprom_write_word>
    3160:	b8 01       	movw	r22, r16
							}
							else
							{
								//Antrowrt
								TransmitString("SST Slot-Test: ");
								TransmitInt(slotNr, 1);
    3162:	f7 01       	movw	r30, r14
    3164:	80 81       	ld	r24, Z
    3166:	91 81       	ldd	r25, Z+1	; 0x01
    3168:	0e 94 75 01 	call	0x2ea	; 0x2ea <Amplifier_Set_Offset_Voltage>
    316c:	03 c2       	rjmp	.+1030   	; 0x3574 <TerminalParseCommand+0xdca>
    316e:	84 e4       	ldi	r24, 0x44	; 68
// String & CRLF auf Interface ausgeben
// -------------------------------------------------------------

void TransmitStringLn(char *string)
{
    UART0TransmitStringLn(string);
    3170:	92 e0       	ldi	r25, 0x02	; 2
    3172:	99 d3       	rcall	.+1842   	; 0x38a6 <UART0TransmitStringLn>
    3174:	f3 e5       	ldi	r31, 0x53	; 83
    3176:	ef 16       	cp	r14, r31
								TransmitString("SST Slot-Test: ");
								TransmitInt(slotNr, 1);
								TransmitStringLn("");
							
								//Test
								Slot_Tester_Init(slotNr);
    3178:	f4 e5       	ldi	r31, 0x54	; 84
    317a:	ff 06       	cpc	r15, r31
    317c:	09 f0       	breq	.+2      	; 0x3180 <TerminalParseCommand+0x9d6>
								Slot_Tester_Gesamtablauf(slotNr);								
    317e:	fa c1       	rjmp	.+1012   	; 0x3574 <TerminalParseCommand+0xdca>
    3180:	d8 01       	movw	r26, r16
    3182:	15 96       	adiw	r26, 0x05	; 5
					
				#pragma endregion Setting_SlotTester
				
				//6. BreakDownVoltage Test								
				case 'B':
					Terminal_SET_BreakDown(string);
    3184:	8c 91       	ld	r24, X
    3186:	8a 30       	cpi	r24, 0x0A	; 10
    3188:	21 f0       	breq	.+8      	; 0x3192 <TerminalParseCommand+0x9e8>
					break;
    318a:	8e e0       	ldi	r24, 0x0E	; 14
												
				//7. Heller Frontend (F)								
				case 'F':
					Terminal_SET_FrontEnd(string);
    318c:	92 e0       	ldi	r25, 0x02	; 2
    318e:	8b d3       	rcall	.+1814   	; 0x38a6 <UART0TransmitStringLn>
					break;
    3190:	f1 c1       	rjmp	.+994    	; 0x3574 <TerminalParseCommand+0xdca>
// String & CRLF auf Interface ausgeben
// -------------------------------------------------------------

void TransmitStringLn(char *string)
{
    UART0TransmitStringLn(string);
    3192:	84 e6       	ldi	r24, 0x64	; 100
    3194:	93 e0       	ldi	r25, 0x03	; 3
    3196:	76 d3       	rcall	.+1772   	; 0x3884 <UART0TransmitString>
    3198:	0d 2d       	mov	r16, r13
    319a:	dd 0c       	add	r13, r13
    319c:	11 0b       	sbc	r17, r17
    319e:	61 e0       	ldi	r22, 0x01	; 1
    31a0:	c8 01       	movw	r24, r16
	//									GET
	//***************************************************************************
	
	#pragma region Get
			
	else if (string[0] == 'G')
    31a2:	f4 d8       	rcall	.-3608   	; 0x238c <TransmitInt>
    31a4:	83 e7       	ldi	r24, 0x73	; 115
	{
		//Must executed here, later no chance, before not safe
		slotNr = string[3] - '0';
    31a6:	93 e0       	ldi	r25, 0x03	; 3
		//Get-Commands, that apply for all 19''-Cards (Definition: Space @ 3 character)
		//*****************************************************************************
		
		#pragma region Gerneral_Get
		
		if(string[3] == '\n'){
    31a8:	7e d3       	rcall	.+1788   	; 0x38a6 <UART0TransmitStringLn>
		
			switch (cmd)
    31aa:	c8 01       	movw	r24, r16
    31ac:	0e 94 11 08 	call	0x1022	; 0x1022 <Slot_Tester_Init>
    31b0:	c8 01       	movw	r24, r16
    31b2:	0e 94 9b 09 	call	0x1336	; 0x1336 <Slot_Tester_Gesamtablauf>
    31b6:	de c1       	rjmp	.+956    	; 0x3574 <TerminalParseCommand+0xdca>
    31b8:	c8 01       	movw	r24, r16
    31ba:	0e 94 29 06 	call	0xc52	; 0xc52 <Terminal_SET_BreakDown>
    31be:	da c1       	rjmp	.+948    	; 0x3574 <TerminalParseCommand+0xdca>
    31c0:	c8 01       	movw	r24, r16
    31c2:	0e 94 c7 02 	call	0x58e	; 0x58e <Terminal_SET_FrontEnd>
    31c6:	d6 c1       	rjmp	.+940    	; 0x3574 <TerminalParseCommand+0xdca>
    31c8:	84 e4       	ldi	r24, 0x44	; 68
    31ca:	92 e0       	ldi	r25, 0x02	; 2
    31cc:	6c d3       	rcall	.+1752   	; 0x38a6 <UART0TransmitStringLn>
    31ce:	d2 c1       	rjmp	.+932    	; 0x3574 <TerminalParseCommand+0xdca>
    31d0:	84 e4       	ldi	r24, 0x44	; 68
    31d2:	92 e0       	ldi	r25, 0x02	; 2
    31d4:	68 d3       	rcall	.+1744   	; 0x38a6 <UART0TransmitStringLn>
    31d6:	ce c1       	rjmp	.+924    	; 0x3574 <TerminalParseCommand+0xdca>
    31d8:	97 34       	cpi	r25, 0x47	; 71
    31da:	09 f0       	breq	.+2      	; 0x31de <TerminalParseCommand+0xa34>
    31dc:	c8 c1       	rjmp	.+912    	; 0x356e <TerminalParseCommand+0xdc4>
    31de:	f8 01       	movw	r30, r16
    31e0:	83 81       	ldd	r24, Z+3	; 0x03
    31e2:	8a 30       	cpi	r24, 0x0A	; 10
    31e4:	09 f0       	breq	.+2      	; 0x31e8 <TerminalParseCommand+0xa3e>
    31e6:	10 c1       	rjmp	.+544    	; 0x3408 <TerminalParseCommand+0xc5e>
    31e8:	f8 e4       	ldi	r31, 0x48	; 72
    31ea:	ef 16       	cp	r14, r31
    31ec:	f0 e5       	ldi	r31, 0x50	; 80
    31ee:	ff 06       	cpc	r15, r31
    31f0:	09 f4       	brne	.+2      	; 0x31f4 <TerminalParseCommand+0xa4a>
    31f2:	53 c0       	rjmp	.+166    	; 0x329a <TerminalParseCommand+0xaf0>
    31f4:	00 f5       	brcc	.+64     	; 0x3236 <TerminalParseCommand+0xa8c>
    31f6:	3e e4       	ldi	r19, 0x4E	; 78
    31f8:	e3 16       	cp	r14, r19
    31fa:	34 e4       	ldi	r19, 0x44	; 68
    31fc:	f3 06       	cpc	r15, r19
    31fe:	09 f4       	brne	.+2      	; 0x3202 <TerminalParseCommand+0xa58>
    3200:	6a c0       	rjmp	.+212    	; 0x32d6 <TerminalParseCommand+0xb2c>
    3202:	68 f4       	brcc	.+26     	; 0x321e <TerminalParseCommand+0xa74>
    3204:	a0 e5       	ldi	r26, 0x50	; 80
    3206:	ea 16       	cp	r14, r26
    3208:	a1 e4       	ldi	r26, 0x41	; 65
    320a:	fa 06       	cpc	r15, r26
    320c:	09 f4       	brne	.+2      	; 0x3210 <TerminalParseCommand+0xa66>
    320e:	c0 c0       	rjmp	.+384    	; 0x3390 <TerminalParseCommand+0xbe6>
    3210:	b9 e4       	ldi	r27, 0x49	; 73
    3212:	eb 16       	cp	r14, r27
    3214:	b4 e4       	ldi	r27, 0x44	; 68
    3216:	fb 06       	cpc	r15, r27
    3218:	09 f4       	brne	.+2      	; 0x321c <TerminalParseCommand+0xa72>
    321a:	b3 c0       	rjmp	.+358    	; 0x3382 <TerminalParseCommand+0xbd8>
    321c:	f1 c0       	rjmp	.+482    	; 0x3400 <TerminalParseCommand+0xc56>
    321e:	e4 e5       	ldi	r30, 0x54	; 84
    3220:	ee 16       	cp	r14, r30
// String auf Interface ausgeben
// -------------------------------------------------------------

void TransmitString(char *string)
{
    UART0TransmitString(string);
    3222:	e4 e4       	ldi	r30, 0x44	; 68
    3224:	fe 06       	cpc	r15, r30
			switch (cmd)
			{
				//1.1 GEN, get enable status......................................................
				case _MK16('E','N'):			
					TransmitString("GEN=");
					TransmitInt(current_source_enabled, 1);
    3226:	09 f4       	brne	.+2      	; 0x322a <TerminalParseCommand+0xa80>
    3228:	63 c0       	rjmp	.+198    	; 0x32f0 <TerminalParseCommand+0xb46>
    322a:	f5 e4       	ldi	r31, 0x45	; 69
    322c:	ef 16       	cp	r14, r31
    322e:	fe e4       	ldi	r31, 0x4E	; 78
// String & CRLF auf Interface ausgeben
// -------------------------------------------------------------

void TransmitStringLn(char *string)
{
    UART0TransmitStringLn(string);
    3230:	ff 06       	cpc	r15, r31
    3232:	39 f1       	breq	.+78     	; 0x3282 <TerminalParseCommand+0xad8>
    3234:	e5 c0       	rjmp	.+458    	; 0x3400 <TerminalParseCommand+0xc56>
    3236:	23 e4       	ldi	r18, 0x43	; 67
    3238:	e2 16       	cp	r14, r18
// String auf Interface ausgeben
// -------------------------------------------------------------

void TransmitString(char *string)
{
    UART0TransmitString(string);
    323a:	24 e5       	ldi	r18, 0x54	; 84
    323c:	f2 06       	cpc	r15, r18
    323e:	09 f4       	brne	.+2      	; 0x3242 <TerminalParseCommand+0xa98>
					break;
				
				//3.1 GHP, get heat pulse length.................................................
				case _MK16('H','P'):							
					TransmitString("GHP=");
					TransmitLong(heat_pulse_length, 1);
    3240:	6f c0       	rjmp	.+222    	; 0x3320 <TerminalParseCommand+0xb76>
    3242:	60 f4       	brcc	.+24     	; 0x325c <TerminalParseCommand+0xab2>
    3244:	8d e4       	ldi	r24, 0x4D	; 77
    3246:	e8 16       	cp	r14, r24
    3248:	80 e5       	ldi	r24, 0x50	; 80
    324a:	f8 06       	cpc	r15, r24
    324c:	b9 f1       	breq	.+110    	; 0x32bc <TerminalParseCommand+0xb12>
// String & CRLF auf Interface ausgeben
// -------------------------------------------------------------

void TransmitStringLn(char *string)
{
    UART0TransmitStringLn(string);
    324e:	a0 e5       	ldi	r26, 0x50	; 80
    3250:	ea 16       	cp	r14, r26
    3252:	a2 e5       	ldi	r26, 0x52	; 82
// String auf Interface ausgeben
// -------------------------------------------------------------

void TransmitString(char *string)
{
    UART0TransmitString(string);
    3254:	fa 06       	cpc	r15, r26
    3256:	09 f4       	brne	.+2      	; 0x325a <TerminalParseCommand+0xab0>
    3258:	59 c0       	rjmp	.+178    	; 0x330c <TerminalParseCommand+0xb62>
    325a:	d2 c0       	rjmp	.+420    	; 0x3400 <TerminalParseCommand+0xc56>
					break;

				//3.2 GMP, get measure pulse length
				case _MK16('M','P'):							
					TransmitString("GMP=");
					TransmitInt(measure_pulse_length, 1);
    325c:	bd e4       	ldi	r27, 0x4D	; 77
    325e:	eb 16       	cp	r14, r27
    3260:	b6 e5       	ldi	r27, 0x56	; 86
    3262:	fb 06       	cpc	r15, r27
    3264:	09 f4       	brne	.+2      	; 0x3268 <TerminalParseCommand+0xabe>
    3266:	77 c0       	rjmp	.+238    	; 0x3356 <TerminalParseCommand+0xbac>
// String & CRLF auf Interface ausgeben
// -------------------------------------------------------------

void TransmitStringLn(char *string)
{
    UART0TransmitStringLn(string);
    3268:	e6 e4       	ldi	r30, 0x46	; 70
    326a:	ee 16       	cp	r14, r30
    326c:	e7 e5       	ldi	r30, 0x57	; 87
    326e:	fe 06       	cpc	r15, r30
// String auf Interface ausgeben
// -------------------------------------------------------------

void TransmitString(char *string)
{
    UART0TransmitString(string);
    3270:	09 f4       	brne	.+2      	; 0x3274 <TerminalParseCommand+0xaca>
    3272:	80 c0       	rjmp	.+256    	; 0x3374 <TerminalParseCommand+0xbca>
    3274:	f8 e4       	ldi	r31, 0x48	; 72
					break;
				
				//3.3 GND, get deterministic pulse count
				case _MK16('N','D'):			
					TransmitString("GND=");
					TransmitInt(deterministic_pulse_cycles, 1);
    3276:	ef 16       	cp	r14, r31
    3278:	f6 e5       	ldi	r31, 0x56	; 86
    327a:	ff 06       	cpc	r15, r31
    327c:	09 f0       	breq	.+2      	; 0x3280 <TerminalParseCommand+0xad6>
    327e:	c0 c0       	rjmp	.+384    	; 0x3400 <TerminalParseCommand+0xc56>
    3280:	59 c0       	rjmp	.+178    	; 0x3334 <TerminalParseCommand+0xb8a>
// String & CRLF auf Interface ausgeben
// -------------------------------------------------------------

void TransmitStringLn(char *string)
{
    UART0TransmitStringLn(string);
    3282:	84 e7       	ldi	r24, 0x74	; 116
    3284:	93 e0       	ldi	r25, 0x03	; 3
    3286:	fe d2       	rcall	.+1532   	; 0x3884 <UART0TransmitString>
    3288:	80 91 41 05 	lds	r24, 0x0541	; 0x800541 <current_source_enabled>
// String auf Interface ausgeben
// -------------------------------------------------------------

void TransmitString(char *string)
{
    UART0TransmitString(string);
    328c:	61 e0       	ldi	r22, 0x01	; 1
    328e:	90 e0       	ldi	r25, 0x00	; 0
    3290:	7d d8       	rcall	.-3846   	; 0x238c <TransmitInt>
					break;
			
				//3.4 GTD, get deterministic pulse length
				case _MK16('T','D'):
					TransmitString("GTD=");
					TransmitFloat(deterministic_pulse_length, 1, 1);
    3292:	83 e7       	ldi	r24, 0x73	; 115
    3294:	93 e0       	ldi	r25, 0x03	; 3
    3296:	07 d3       	rcall	.+1550   	; 0x38a6 <UART0TransmitStringLn>
    3298:	6d c1       	rjmp	.+730    	; 0x3574 <TerminalParseCommand+0xdca>
    329a:	89 e7       	ldi	r24, 0x79	; 121
    329c:	93 e0       	ldi	r25, 0x03	; 3
    329e:	f2 d2       	rcall	.+1508   	; 0x3884 <UART0TransmitString>
// String & CRLF auf Interface ausgeben
// -------------------------------------------------------------

void TransmitStringLn(char *string)
{
    UART0TransmitStringLn(string);
    32a0:	60 91 2b 04 	lds	r22, 0x042B	; 0x80042b <heat_pulse_length>
    32a4:	70 91 2c 04 	lds	r23, 0x042C	; 0x80042c <heat_pulse_length+0x1>
    32a8:	80 91 2d 04 	lds	r24, 0x042D	; 0x80042d <heat_pulse_length+0x2>
// String auf Interface ausgeben
// -------------------------------------------------------------

void TransmitString(char *string)
{
    UART0TransmitString(string);
    32ac:	90 91 2e 04 	lds	r25, 0x042E	; 0x80042e <heat_pulse_length+0x3>
					break;
				
				//3.5, get Slot pulse info
				case _MK16('P','R'):
					TransmitString("GPR=");
					TransmitByte_Reverse(pulse_output_register);
    32b0:	41 e0       	ldi	r20, 0x01	; 1
    32b2:	d2 d8       	rcall	.-3676   	; 0x2458 <TransmitLong>
    32b4:	82 ef       	ldi	r24, 0xF2	; 242
// String & CRLF auf Interface ausgeben
// -------------------------------------------------------------

void TransmitStringLn(char *string)
{
    UART0TransmitStringLn(string);
    32b6:	92 e0       	ldi	r25, 0x02	; 2
    32b8:	f6 d2       	rcall	.+1516   	; 0x38a6 <UART0TransmitStringLn>
    32ba:	5c c1       	rjmp	.+696    	; 0x3574 <TerminalParseCommand+0xdca>
    32bc:	8e e7       	ldi	r24, 0x7E	; 126
    32be:	93 e0       	ldi	r25, 0x03	; 3
// String auf Interface ausgeben
// -------------------------------------------------------------

void TransmitString(char *string)
{
    UART0TransmitString(string);
    32c0:	e1 d2       	rcall	.+1474   	; 0x3884 <UART0TransmitString>
    32c2:	61 e0       	ldi	r22, 0x01	; 1
    32c4:	80 91 2c 05 	lds	r24, 0x052C	; 0x80052c <measure_pulse_length>
    32c8:	90 91 2d 05 	lds	r25, 0x052D	; 0x80052d <measure_pulse_length+0x1>
    32cc:	5f d8       	rcall	.-3906   	; 0x238c <TransmitInt>
    32ce:	82 ef       	ldi	r24, 0xF2	; 242
// String & CRLF auf Interface ausgeben
// -------------------------------------------------------------

void TransmitStringLn(char *string)
{
    UART0TransmitStringLn(string);
    32d0:	92 e0       	ldi	r25, 0x02	; 2
    32d2:	e9 d2       	rcall	.+1490   	; 0x38a6 <UART0TransmitStringLn>
    32d4:	4f c1       	rjmp	.+670    	; 0x3574 <TerminalParseCommand+0xdca>
    32d6:	83 e8       	ldi	r24, 0x83	; 131
    32d8:	93 e0       	ldi	r25, 0x03	; 3
// String auf Interface ausgeben
// -------------------------------------------------------------

void TransmitString(char *string)
{
    UART0TransmitString(string);
    32da:	d4 d2       	rcall	.+1448   	; 0x3884 <UART0TransmitString>
    32dc:	61 e0       	ldi	r22, 0x01	; 1
    32de:	80 91 2f 04 	lds	r24, 0x042F	; 0x80042f <deterministic_pulse_cycles>
			
				//GHV, get heat pulse voltage
				case _MK16('H','V'):
															
					TransmitString("GHV=");
					TransmitLong(heat_pulse_voltage,1);
    32e2:	90 91 30 04 	lds	r25, 0x0430	; 0x800430 <deterministic_pulse_cycles+0x1>
    32e6:	52 d8       	rcall	.-3932   	; 0x238c <TransmitInt>
    32e8:	80 e0       	ldi	r24, 0x00	; 0
    32ea:	93 e0       	ldi	r25, 0x03	; 3
    32ec:	dc d2       	rcall	.+1464   	; 0x38a6 <UART0TransmitStringLn>
    32ee:	42 c1       	rjmp	.+644    	; 0x3574 <TerminalParseCommand+0xdca>
    32f0:	88 e8       	ldi	r24, 0x88	; 136
    32f2:	93 e0       	ldi	r25, 0x03	; 3
    32f4:	c7 d2       	rcall	.+1422   	; 0x3884 <UART0TransmitString>
    32f6:	41 e0       	ldi	r20, 0x01	; 1
// String & CRLF auf Interface ausgeben
// -------------------------------------------------------------

void TransmitStringLn(char *string)
{
    UART0TransmitStringLn(string);
    32f8:	61 e0       	ldi	r22, 0x01	; 1
    32fa:	80 91 27 04 	lds	r24, 0x0427	; 0x800427 <deterministic_pulse_length>
    32fe:	90 91 28 04 	lds	r25, 0x0428	; 0x800428 <deterministic_pulse_length+0x1>
// String auf Interface ausgeben
// -------------------------------------------------------------

void TransmitString(char *string)
{
    UART0TransmitString(string);
    3302:	14 d9       	rcall	.-3544   	; 0x252c <TransmitFloat>
    3304:	82 ef       	ldi	r24, 0xF2	; 242
			
				//GMV, get measure pulse voltage
				case _MK16('M','V'):
												
					TransmitString("GMV=");
					TransmitLong(measure_pulse_voltage,1);
    3306:	92 e0       	ldi	r25, 0x02	; 2
    3308:	ce d2       	rcall	.+1436   	; 0x38a6 <UART0TransmitStringLn>
    330a:	34 c1       	rjmp	.+616    	; 0x3574 <TerminalParseCommand+0xdca>
    330c:	8d e8       	ldi	r24, 0x8D	; 141
    330e:	93 e0       	ldi	r25, 0x03	; 3
    3310:	b9 d2       	rcall	.+1394   	; 0x3884 <UART0TransmitString>
    3312:	80 91 4b 05 	lds	r24, 0x054B	; 0x80054b <pulse_output_register>
// String & CRLF auf Interface ausgeben
// -------------------------------------------------------------

void TransmitStringLn(char *string)
{
    UART0TransmitStringLn(string);
    3316:	10 da       	rcall	.-3040   	; 0x2738 <TransmitByte_Reverse>
    3318:	83 e7       	ldi	r24, 0x73	; 115
    331a:	93 e0       	ldi	r25, 0x03	; 3
    331c:	c4 d2       	rcall	.+1416   	; 0x38a6 <UART0TransmitStringLn>
    331e:	2a c1       	rjmp	.+596    	; 0x3574 <TerminalParseCommand+0xdca>
// String auf Interface ausgeben
// -------------------------------------------------------------

void TransmitString(char *string)
{
    UART0TransmitString(string);
    3320:	82 e9       	ldi	r24, 0x92	; 146
    3322:	93 e0       	ldi	r25, 0x03	; 3
    3324:	af d2       	rcall	.+1374   	; 0x3884 <UART0TransmitString>
// String & CRLF auf Interface ausgeben
// -------------------------------------------------------------

void TransmitStringLn(char *string)
{
    UART0TransmitStringLn(string);
    3326:	8e e4       	ldi	r24, 0x4E	; 78
    3328:	95 e0       	ldi	r25, 0x05	; 5
    332a:	ac d2       	rcall	.+1368   	; 0x3884 <UART0TransmitString>
// String auf Interface ausgeben
// -------------------------------------------------------------

void TransmitString(char *string)
{
    UART0TransmitString(string);
    332c:	83 e7       	ldi	r24, 0x73	; 115
    332e:	93 e0       	ldi	r25, 0x03	; 3
    3330:	ba d2       	rcall	.+1396   	; 0x38a6 <UART0TransmitStringLn>
// String & CRLF auf Interface ausgeben
// -------------------------------------------------------------

void TransmitStringLn(char *string)
{
    UART0TransmitStringLn(string);
    3332:	20 c1       	rjmp	.+576    	; 0x3574 <TerminalParseCommand+0xdca>
    3334:	87 e9       	ldi	r24, 0x97	; 151
    3336:	93 e0       	ldi	r25, 0x03	; 3
    3338:	a5 d2       	rcall	.+1354   	; 0x3884 <UART0TransmitString>
    333a:	60 91 01 04 	lds	r22, 0x0401	; 0x800401 <heat_pulse_voltage>
// String auf Interface ausgeben
// -------------------------------------------------------------

void TransmitString(char *string)
{
    UART0TransmitString(string);
    333e:	70 91 02 04 	lds	r23, 0x0402	; 0x800402 <heat_pulse_voltage+0x1>
				//GPA, get parameters
				case _MK16('P','A'):
			
					TransmitString("PARAMS=");

					TransmitInt(current_source_enabled, 1);
    3342:	80 91 03 04 	lds	r24, 0x0403	; 0x800403 <heat_pulse_voltage+0x2>
    3346:	90 91 04 04 	lds	r25, 0x0404	; 0x800404 <heat_pulse_voltage+0x3>
    334a:	41 e0       	ldi	r20, 0x01	; 1
    334c:	85 d8       	rcall	.-3830   	; 0x2458 <TransmitLong>
// String auf Interface ausgeben
// -------------------------------------------------------------

void TransmitString(char *string)
{
    UART0TransmitString(string);
    334e:	80 e6       	ldi	r24, 0x60	; 96
    3350:	92 e0       	ldi	r25, 0x02	; 2
    3352:	a9 d2       	rcall	.+1362   	; 0x38a6 <UART0TransmitStringLn>
    3354:	0f c1       	rjmp	.+542    	; 0x3574 <TerminalParseCommand+0xdca>
					TransmitString("PARAMS=");

					TransmitInt(current_source_enabled, 1);

					TransmitString(",");
					TransmitInt(heat_pulse_current, 1);
    3356:	8c e9       	ldi	r24, 0x9C	; 156
    3358:	93 e0       	ldi	r25, 0x03	; 3
    335a:	94 d2       	rcall	.+1320   	; 0x3884 <UART0TransmitString>
    335c:	60 91 15 04 	lds	r22, 0x0415	; 0x800415 <measure_pulse_voltage>
// String auf Interface ausgeben
// -------------------------------------------------------------

void TransmitString(char *string)
{
    UART0TransmitString(string);
    3360:	70 91 16 04 	lds	r23, 0x0416	; 0x800416 <measure_pulse_voltage+0x1>
    3364:	80 e0       	ldi	r24, 0x00	; 0
    3366:	90 e0       	ldi	r25, 0x00	; 0

					TransmitString(",");
					TransmitInt(heat_pulse_current, 1);

					TransmitString(",");
					TransmitFloat(measure_pulse_current, 1, 1);
    3368:	41 e0       	ldi	r20, 0x01	; 1
    336a:	76 d8       	rcall	.-3860   	; 0x2458 <TransmitLong>
    336c:	80 e6       	ldi	r24, 0x60	; 96
    336e:	92 e0       	ldi	r25, 0x02	; 2
    3370:	9a d2       	rcall	.+1332   	; 0x38a6 <UART0TransmitStringLn>
    3372:	00 c1       	rjmp	.+512    	; 0x3574 <TerminalParseCommand+0xdca>
    3374:	81 ea       	ldi	r24, 0xA1	; 161
    3376:	93 e0       	ldi	r25, 0x03	; 3
// String auf Interface ausgeben
// -------------------------------------------------------------

void TransmitString(char *string)
{
    UART0TransmitString(string);
    3378:	85 d2       	rcall	.+1290   	; 0x3884 <UART0TransmitString>
    337a:	85 ea       	ldi	r24, 0xA5	; 165
    337c:	93 e0       	ldi	r25, 0x03	; 3

					TransmitString(",");
					TransmitFloat(measure_pulse_current, 1, 1);

					TransmitString(",");
					TransmitLong(heat_pulse_length, 1);
    337e:	93 d2       	rcall	.+1318   	; 0x38a6 <UART0TransmitStringLn>
    3380:	f9 c0       	rjmp	.+498    	; 0x3574 <TerminalParseCommand+0xdca>
    3382:	8b eb       	ldi	r24, 0xBB	; 187
    3384:	93 e0       	ldi	r25, 0x03	; 3
    3386:	7e d2       	rcall	.+1276   	; 0x3884 <UART0TransmitString>
    3388:	8f eb       	ldi	r24, 0xBF	; 191
    338a:	93 e0       	ldi	r25, 0x03	; 3
    338c:	8c d2       	rcall	.+1304   	; 0x38a6 <UART0TransmitStringLn>
    338e:	f2 c0       	rjmp	.+484    	; 0x3574 <TerminalParseCommand+0xdca>
    3390:	89 ed       	ldi	r24, 0xD9	; 217
// String auf Interface ausgeben
// -------------------------------------------------------------

void TransmitString(char *string)
{
    UART0TransmitString(string);
    3392:	93 e0       	ldi	r25, 0x03	; 3
    3394:	77 d2       	rcall	.+1262   	; 0x3884 <UART0TransmitString>
    3396:	80 91 41 05 	lds	r24, 0x0541	; 0x800541 <current_source_enabled>

					TransmitString(",");
					TransmitLong(heat_pulse_length, 1);

					TransmitString(",");
					TransmitInt(measure_pulse_length, 1);
    339a:	61 e0       	ldi	r22, 0x01	; 1
    339c:	90 e0       	ldi	r25, 0x00	; 0
    339e:	0e 94 c6 11 	call	0x238c	; 0x238c <TransmitInt>
    33a2:	81 ee       	ldi	r24, 0xE1	; 225
    33a4:	93 e0       	ldi	r25, 0x03	; 3
// String & CRLF auf Interface ausgeben
// -------------------------------------------------------------

void TransmitStringLn(char *string)
{
    UART0TransmitStringLn(string);
    33a6:	6e d2       	rcall	.+1244   	; 0x3884 <UART0TransmitString>
    33a8:	61 e0       	ldi	r22, 0x01	; 1
    33aa:	80 91 d8 04 	lds	r24, 0x04D8	; 0x8004d8 <heat_pulse_current>
    33ae:	90 91 d9 04 	lds	r25, 0x04D9	; 0x8004d9 <heat_pulse_current+0x1>
    33b2:	0e 94 c6 11 	call	0x238c	; 0x238c <TransmitInt>
    33b6:	81 ee       	ldi	r24, 0xE1	; 225
	#pragma region Get
			
	else if (string[0] == 'G')
	{
		//Must executed here, later no chance, before not safe
		slotNr = string[3] - '0';
    33b8:	93 e0       	ldi	r25, 0x03	; 3
    33ba:	64 d2       	rcall	.+1224   	; 0x3884 <UART0TransmitString>
    33bc:	41 e0       	ldi	r20, 0x01	; 1
    33be:	61 e0       	ldi	r22, 0x01	; 1
		//Get-Commands, that apply ONE 19''-Cards (Definition: Number @ 3 character)
		//*****************************************************************************
		
		#pragma region Special_Get
		
		else if (slotNr >= 0 && slotNr < 8){
    33c0:	80 91 b3 04 	lds	r24, 0x04B3	; 0x8004b3 <measure_pulse_current>
    33c4:	90 91 b4 04 	lds	r25, 0x04B4	; 0x8004b4 <measure_pulse_current+0x1>
						
			switch(string[4]){
    33c8:	b1 d8       	rcall	.-3742   	; 0x252c <TransmitFloat>
    33ca:	81 ee       	ldi	r24, 0xE1	; 225
    33cc:	93 e0       	ldi	r25, 0x03	; 3
    33ce:	5a d2       	rcall	.+1204   	; 0x3884 <UART0TransmitString>
    33d0:	60 91 2b 04 	lds	r22, 0x042B	; 0x80042b <heat_pulse_length>
    33d4:	70 91 2c 04 	lds	r23, 0x042C	; 0x80042c <heat_pulse_length+0x1>
    33d8:	80 91 2d 04 	lds	r24, 0x042D	; 0x80042d <heat_pulse_length+0x2>
    33dc:	90 91 2e 04 	lds	r25, 0x042E	; 0x80042e <heat_pulse_length+0x3>
    33e0:	41 e0       	ldi	r20, 0x01	; 1
				
				//4.1 LED-Source
				#pragma region SettingsLED-Source
				
				case 'L':
					switch(cmd){
    33e2:	3a d8       	rcall	.-3980   	; 0x2458 <TransmitLong>
    33e4:	81 ee       	ldi	r24, 0xE1	; 225
    33e6:	93 e0       	ldi	r25, 0x03	; 3
    33e8:	4d d2       	rcall	.+1178   	; 0x3884 <UART0TransmitString>
    33ea:	61 e0       	ldi	r22, 0x01	; 1
    33ec:	80 91 2c 05 	lds	r24, 0x052C	; 0x80052c <measure_pulse_length>
    33f0:	90 91 2d 05 	lds	r25, 0x052D	; 0x80052d <measure_pulse_length+0x1>
    33f4:	0e 94 c6 11 	call	0x238c	; 0x238c <TransmitInt>
// String auf Interface ausgeben
// -------------------------------------------------------------

void TransmitString(char *string)
{
    UART0TransmitString(string);
    33f8:	83 e7       	ldi	r24, 0x73	; 115
    33fa:	93 e0       	ldi	r25, 0x03	; 3
					switch(cmd){
					
						//2. Set Heat Current
						case _MK16('H','C'):
							TransmitString("GHC");
							TransmitInt(slotNr, 1);
    33fc:	54 d2       	rcall	.+1192   	; 0x38a6 <UART0TransmitStringLn>
    33fe:	ba c0       	rjmp	.+372    	; 0x3574 <TerminalParseCommand+0xdca>
    3400:	84 e4       	ldi	r24, 0x44	; 68
    3402:	92 e0       	ldi	r25, 0x02	; 2
    3404:	50 d2       	rcall	.+1184   	; 0x38a6 <UART0TransmitStringLn>
    3406:	b6 c0       	rjmp	.+364    	; 0x3574 <TerminalParseCommand+0xdca>
// String auf Interface ausgeben
// -------------------------------------------------------------

void TransmitString(char *string)
{
    UART0TransmitString(string);
    3408:	0f 2e       	mov	r0, r31
    340a:	f0 ed       	ldi	r31, 0xD0	; 208
    340c:	df 2e       	mov	r13, r31
    340e:	f0 2d       	mov	r31, r0
						//2. Set Heat Current
						case _MK16('H','C'):
							TransmitString("GHC");
							TransmitInt(slotNr, 1);
							TransmitString("L=");
							TransmitInt(led_Source_Heat_Current_mA[slotNr-1], 1);
    3410:	d8 0e       	add	r13, r24
    3412:	27 e0       	ldi	r18, 0x07	; 7
    3414:	2d 15       	cp	r18, r13
    3416:	08 f4       	brcc	.+2      	; 0x341a <TerminalParseCommand+0xc70>
    3418:	a6 c0       	rjmp	.+332    	; 0x3566 <TerminalParseCommand+0xdbc>
    341a:	84 81       	ldd	r24, Z+4	; 0x04
    341c:	82 34       	cpi	r24, 0x42	; 66
    341e:	09 f4       	brne	.+2      	; 0x3422 <TerminalParseCommand+0xc78>
    3420:	96 c0       	rjmp	.+300    	; 0x354e <TerminalParseCommand+0xda4>
    3422:	20 f4       	brcc	.+8      	; 0x342c <TerminalParseCommand+0xc82>
// String & CRLF auf Interface ausgeben
// -------------------------------------------------------------

void TransmitStringLn(char *string)
{
    UART0TransmitStringLn(string);
    3424:	81 34       	cpi	r24, 0x41	; 65
    3426:	09 f4       	brne	.+2      	; 0x342a <TerminalParseCommand+0xc80>
    3428:	4c c0       	rjmp	.+152    	; 0x34c2 <TerminalParseCommand+0xd18>
    342a:	99 c0       	rjmp	.+306    	; 0x355e <TerminalParseCommand+0xdb4>
    342c:	86 34       	cpi	r24, 0x46	; 70
// String auf Interface ausgeben
// -------------------------------------------------------------

void TransmitString(char *string)
{
    UART0TransmitString(string);
    342e:	09 f4       	brne	.+2      	; 0x3432 <TerminalParseCommand+0xc88>
    3430:	92 c0       	rjmp	.+292    	; 0x3556 <TerminalParseCommand+0xdac>
    3432:	8c 34       	cpi	r24, 0x4C	; 76
    3434:	09 f0       	breq	.+2      	; 0x3438 <TerminalParseCommand+0xc8e>
							break;
										
						//3. Set Meas Current
						case _MK16('M','C'):
							TransmitString("GMC");
							TransmitInt(slotNr, 1);
    3436:	93 c0       	rjmp	.+294    	; 0x355e <TerminalParseCommand+0xdb4>
    3438:	b8 e4       	ldi	r27, 0x48	; 72
    343a:	eb 16       	cp	r14, r27
    343c:	b3 e4       	ldi	r27, 0x43	; 67
    343e:	fb 06       	cpc	r15, r27
    3440:	31 f0       	breq	.+12     	; 0x344e <TerminalParseCommand+0xca4>
    3442:	ed e4       	ldi	r30, 0x4D	; 77
// String auf Interface ausgeben
// -------------------------------------------------------------

void TransmitString(char *string)
{
    UART0TransmitString(string);
    3444:	ee 16       	cp	r14, r30
    3446:	e3 e4       	ldi	r30, 0x43	; 67
    3448:	fe 06       	cpc	r15, r30
    344a:	e1 f0       	breq	.+56     	; 0x3484 <TerminalParseCommand+0xcda>
						//3. Set Meas Current
						case _MK16('M','C'):
							TransmitString("GMC");
							TransmitInt(slotNr, 1);
							TransmitString("L=");
							TransmitFloat(led_Source_Meas_Current_0mA1[slotNr-1], 1, 1);
    344c:	36 c0       	rjmp	.+108    	; 0x34ba <TerminalParseCommand+0xd10>
    344e:	83 ee       	ldi	r24, 0xE3	; 227
    3450:	93 e0       	ldi	r25, 0x03	; 3
    3452:	18 d2       	rcall	.+1072   	; 0x3884 <UART0TransmitString>
    3454:	0d 2d       	mov	r16, r13
    3456:	dd 0c       	add	r13, r13
    3458:	11 0b       	sbc	r17, r17
    345a:	61 e0       	ldi	r22, 0x01	; 1
    345c:	c8 01       	movw	r24, r16
    345e:	0e 94 c6 11 	call	0x238c	; 0x238c <TransmitInt>
// String & CRLF auf Interface ausgeben
// -------------------------------------------------------------

void TransmitStringLn(char *string)
{
    UART0TransmitStringLn(string);
    3462:	8b e1       	ldi	r24, 0x1B	; 27
    3464:	93 e0       	ldi	r25, 0x03	; 3
    3466:	0e d2       	rcall	.+1052   	; 0x3884 <UART0TransmitString>
    3468:	f8 01       	movw	r30, r16
    346a:	ee 0f       	add	r30, r30
    346c:	ff 1f       	adc	r31, r31
    346e:	ed 54       	subi	r30, 0x4D	; 77
    3470:	fb 4f       	sbci	r31, 0xFB	; 251
    3472:	61 e0       	ldi	r22, 0x01	; 1
    3474:	80 81       	ld	r24, Z
					
				//4.2 Amplifier
				#pragma region Amplifier
				
				case 'A':
					switch(cmd){
    3476:	91 81       	ldd	r25, Z+1	; 0x01
    3478:	0e 94 c6 11 	call	0x238c	; 0x238c <TransmitInt>
    347c:	8f e8       	ldi	r24, 0x8F	; 143
    347e:	92 e0       	ldi	r25, 0x02	; 2
    3480:	12 d2       	rcall	.+1060   	; 0x38a6 <UART0TransmitStringLn>
    3482:	78 c0       	rjmp	.+240    	; 0x3574 <TerminalParseCommand+0xdca>
    3484:	87 ee       	ldi	r24, 0xE7	; 231
    3486:	93 e0       	ldi	r25, 0x03	; 3
    3488:	fd d1       	rcall	.+1018   	; 0x3884 <UART0TransmitString>
    348a:	0d 2d       	mov	r16, r13
// String auf Interface ausgeben
// -------------------------------------------------------------

void TransmitString(char *string)
{
    UART0TransmitString(string);
    348c:	dd 0c       	add	r13, r13
    348e:	11 0b       	sbc	r17, r17
    3490:	61 e0       	ldi	r22, 0x01	; 1
    3492:	c8 01       	movw	r24, r16
					switch(cmd){
					
						//2. Gain
						case _MK16('W','G'):
							TransmitString("GWG");
							TransmitInt(slotNr, 1);
    3494:	0e 94 c6 11 	call	0x238c	; 0x238c <TransmitInt>
    3498:	8b e1       	ldi	r24, 0x1B	; 27
    349a:	93 e0       	ldi	r25, 0x03	; 3
    349c:	f3 d1       	rcall	.+998    	; 0x3884 <UART0TransmitString>
    349e:	f8 01       	movw	r30, r16
    34a0:	ee 0f       	add	r30, r30
// String auf Interface ausgeben
// -------------------------------------------------------------

void TransmitString(char *string)
{
    UART0TransmitString(string);
    34a2:	ff 1f       	adc	r31, r31
    34a4:	eb 5e       	subi	r30, 0xEB	; 235
    34a6:	fb 4f       	sbci	r31, 0xFB	; 251
    34a8:	41 e0       	ldi	r20, 0x01	; 1
						//2. Gain
						case _MK16('W','G'):
							TransmitString("GWG");
							TransmitInt(slotNr, 1);
							TransmitString("A=");
							TransmitInt(amplifier_gain[slotNr-1], 1);
    34aa:	61 e0       	ldi	r22, 0x01	; 1
    34ac:	80 81       	ld	r24, Z
    34ae:	91 81       	ldd	r25, Z+1	; 0x01
    34b0:	3d d8       	rcall	.-3974   	; 0x252c <TransmitFloat>
    34b2:	8f e8       	ldi	r24, 0x8F	; 143
    34b4:	92 e0       	ldi	r25, 0x02	; 2
    34b6:	f7 d1       	rcall	.+1006   	; 0x38a6 <UART0TransmitStringLn>
    34b8:	5d c0       	rjmp	.+186    	; 0x3574 <TerminalParseCommand+0xdca>
    34ba:	84 e4       	ldi	r24, 0x44	; 68
    34bc:	92 e0       	ldi	r25, 0x02	; 2
// String & CRLF auf Interface ausgeben
// -------------------------------------------------------------

void TransmitStringLn(char *string)
{
    UART0TransmitStringLn(string);
    34be:	f3 d1       	rcall	.+998    	; 0x38a6 <UART0TransmitStringLn>
    34c0:	59 c0       	rjmp	.+178    	; 0x3574 <TerminalParseCommand+0xdca>
    34c2:	f7 e5       	ldi	r31, 0x57	; 87
    34c4:	ef 16       	cp	r14, r31
    34c6:	f7 e4       	ldi	r31, 0x47	; 71
// String auf Interface ausgeben
// -------------------------------------------------------------

void TransmitString(char *string)
{
    UART0TransmitString(string);
    34c8:	ff 06       	cpc	r15, r31
    34ca:	31 f0       	breq	.+12     	; 0x34d8 <TerminalParseCommand+0xd2e>
    34cc:	27 e5       	ldi	r18, 0x57	; 87
    34ce:	e2 16       	cp	r14, r18
							break;
					
						//3. Set Meas Current
						case _MK16('W','O'):
							TransmitString("GWO");
							TransmitInt(slotNr, 1);
    34d0:	2f e4       	ldi	r18, 0x4F	; 79
    34d2:	f2 06       	cpc	r15, r18
    34d4:	e1 f0       	breq	.+56     	; 0x350e <TerminalParseCommand+0xd64>
    34d6:	37 c0       	rjmp	.+110    	; 0x3546 <TerminalParseCommand+0xd9c>
    34d8:	80 e5       	ldi	r24, 0x50	; 80
    34da:	92 e0       	ldi	r25, 0x02	; 2
    34dc:	d3 d1       	rcall	.+934    	; 0x3884 <UART0TransmitString>
// String auf Interface ausgeben
// -------------------------------------------------------------

void TransmitString(char *string)
{
    UART0TransmitString(string);
    34de:	0d 2d       	mov	r16, r13
    34e0:	dd 0c       	add	r13, r13
    34e2:	11 0b       	sbc	r17, r17
    34e4:	61 e0       	ldi	r22, 0x01	; 1
						//3. Set Meas Current
						case _MK16('W','O'):
							TransmitString("GWO");
							TransmitInt(slotNr, 1);
							TransmitString("A=");
							TransmitFloat(amplifier_offset_voltage_mV[slotNr-1], 1, 3);
    34e6:	c8 01       	movw	r24, r16
    34e8:	0e 94 c6 11 	call	0x238c	; 0x238c <TransmitInt>
    34ec:	81 e6       	ldi	r24, 0x61	; 97
    34ee:	93 e0       	ldi	r25, 0x03	; 3
    34f0:	c9 d1       	rcall	.+914    	; 0x3884 <UART0TransmitString>
    34f2:	f8 01       	movw	r30, r16
    34f4:	ee 0f       	add	r30, r30
    34f6:	ff 1f       	adc	r31, r31
    34f8:	e6 52       	subi	r30, 0x26	; 38
    34fa:	fb 4f       	sbci	r31, 0xFB	; 251
// String & CRLF auf Interface ausgeben
// -------------------------------------------------------------

void TransmitStringLn(char *string)
{
    UART0TransmitStringLn(string);
    34fc:	61 e0       	ldi	r22, 0x01	; 1
    34fe:	80 81       	ld	r24, Z
    3500:	91 81       	ldd	r25, Z+1	; 0x01
    3502:	0e 94 c6 11 	call	0x238c	; 0x238c <TransmitInt>
    3506:	8f e2       	ldi	r24, 0x2F	; 47
    3508:	92 e0       	ldi	r25, 0x02	; 2
    350a:	cd d1       	rcall	.+922    	; 0x38a6 <UART0TransmitStringLn>
    350c:	33 c0       	rjmp	.+102    	; 0x3574 <TerminalParseCommand+0xdca>
    350e:	84 e5       	ldi	r24, 0x54	; 84
				
				#pragma endregion Amplifier
				
				//6. BreakDown (B)
				case 'B':
					Terminal_GET_BreakDown(string);
    3510:	92 e0       	ldi	r25, 0x02	; 2
    3512:	b8 d1       	rcall	.+880    	; 0x3884 <UART0TransmitString>
    3514:	0d 2d       	mov	r16, r13
					break;
    3516:	dd 0c       	add	r13, r13
				
				//7. Heller FrontEnd (F)	
				case 'F':
					Terminal_GET_FrontEnd(string);
    3518:	11 0b       	sbc	r17, r17
    351a:	61 e0       	ldi	r22, 0x01	; 1
    351c:	c8 01       	movw	r24, r16
					break;
    351e:	0e 94 c6 11 	call	0x238c	; 0x238c <TransmitInt>
// String & CRLF auf Interface ausgeben
// -------------------------------------------------------------

void TransmitStringLn(char *string)
{
    UART0TransmitStringLn(string);
    3522:	81 e6       	ldi	r24, 0x61	; 97
    3524:	93 e0       	ldi	r25, 0x03	; 3
    3526:	ae d1       	rcall	.+860    	; 0x3884 <UART0TransmitString>
    3528:	f8 01       	movw	r30, r16
    352a:	ee 0f       	add	r30, r30
    352c:	ff 1f       	adc	r31, r31
    352e:	e1 5d       	subi	r30, 0xD1	; 209
    3530:	fa 4f       	sbci	r31, 0xFA	; 250
    3532:	43 e0       	ldi	r20, 0x03	; 3
    3534:	61 e0       	ldi	r22, 0x01	; 1
    3536:	80 81       	ld	r24, Z
    3538:	91 81       	ldd	r25, Z+1	; 0x01
    353a:	0e 94 96 12 	call	0x252c	; 0x252c <TransmitFloat>
	else
	{
		TransmitStringLn("COMMAND ERR");
	}
	
}
    353e:	8d e3       	ldi	r24, 0x3D	; 61
    3540:	92 e0       	ldi	r25, 0x02	; 2
    3542:	b1 d1       	rcall	.+866    	; 0x38a6 <UART0TransmitStringLn>
    3544:	17 c0       	rjmp	.+46     	; 0x3574 <TerminalParseCommand+0xdca>
    3546:	84 e4       	ldi	r24, 0x44	; 68
    3548:	92 e0       	ldi	r25, 0x02	; 2
    354a:	ad d1       	rcall	.+858    	; 0x38a6 <UART0TransmitStringLn>
    354c:	13 c0       	rjmp	.+38     	; 0x3574 <TerminalParseCommand+0xdca>
    354e:	c8 01       	movw	r24, r16
    3550:	0e 94 a3 07 	call	0xf46	; 0xf46 <Terminal_GET_BreakDown>
    3554:	0f c0       	rjmp	.+30     	; 0x3574 <TerminalParseCommand+0xdca>
    3556:	c8 01       	movw	r24, r16
    3558:	0e 94 d6 03 	call	0x7ac	; 0x7ac <Terminal_GET_FrontEnd>
    355c:	0b c0       	rjmp	.+22     	; 0x3574 <TerminalParseCommand+0xdca>
    355e:	84 e4       	ldi	r24, 0x44	; 68
    3560:	92 e0       	ldi	r25, 0x02	; 2
    3562:	a1 d1       	rcall	.+834    	; 0x38a6 <UART0TransmitStringLn>
    3564:	07 c0       	rjmp	.+14     	; 0x3574 <TerminalParseCommand+0xdca>
    3566:	84 e4       	ldi	r24, 0x44	; 68
    3568:	92 e0       	ldi	r25, 0x02	; 2
    356a:	9d d1       	rcall	.+826    	; 0x38a6 <UART0TransmitStringLn>
    356c:	03 c0       	rjmp	.+6      	; 0x3574 <TerminalParseCommand+0xdca>
    356e:	84 e4       	ldi	r24, 0x44	; 68
    3570:	92 e0       	ldi	r25, 0x02	; 2
    3572:	99 d1       	rcall	.+818    	; 0x38a6 <UART0TransmitStringLn>
    3574:	2f 96       	adiw	r28, 0x0f	; 15
    3576:	0f b6       	in	r0, 0x3f	; 63
    3578:	f8 94       	cli
    357a:	de bf       	out	0x3e, r29	; 62
    357c:	0f be       	out	0x3f, r0	; 63
    357e:	cd bf       	out	0x3d, r28	; 61
    3580:	df 91       	pop	r29
    3582:	cf 91       	pop	r28
    3584:	1f 91       	pop	r17
    3586:	0f 91       	pop	r16
    3588:	ff 90       	pop	r15
    358a:	ef 90       	pop	r14
    358c:	df 90       	pop	r13
    358e:	08 95       	ret

00003590 <TerminalCheckCommand>:
//////////////////////////////////////////////////////////////////////////////////
//								Check for Command								//
//////////////////////////////////////////////////////////////////////////////////

void TerminalCheckCommand()
{
    3590:	f5 d0       	rcall	.+490    	; 0x377c <UART0ReceiveLine>
    3592:	80 93 70 05 	sts	0x0570, r24	; 0x800570 <len>
    3596:	88 23       	and	r24, r24
    3598:	39 f0       	breq	.+14     	; 0x35a8 <TerminalCheckCommand+0x18>
    359a:	82 e3       	ldi	r24, 0x32	; 50
    359c:	94 e0       	ldi	r25, 0x04	; 4
    359e:	90 93 6f 05 	sts	0x056F, r25	; 0x80056f <string+0x1>
    35a2:	80 93 6e 05 	sts	0x056E, r24	; 0x80056e <string>
    35a6:	01 c9       	rjmp	.-3582   	; 0x27aa <TerminalParseCommand>
    35a8:	08 95       	ret

000035aa <__vector_25>:
// -------------------------------------------------------------

uint8_t UART0SendWaiting()
{
	return uart0_tx_char_write - uart0_tx_char_read;
}
    35aa:	1f 92       	push	r1
    35ac:	0f 92       	push	r0
    35ae:	0f b6       	in	r0, 0x3f	; 63
    35b0:	0f 92       	push	r0
    35b2:	11 24       	eor	r1, r1
    35b4:	0b b6       	in	r0, 0x3b	; 59
    35b6:	0f 92       	push	r0
    35b8:	8f 93       	push	r24
    35ba:	9f 93       	push	r25
    35bc:	ef 93       	push	r30
    35be:	ff 93       	push	r31
    35c0:	80 91 f3 03 	lds	r24, 0x03F3	; 0x8003f3 <uart0_rx_blocked>
    35c4:	88 23       	and	r24, r24
    35c6:	29 f0       	breq	.+10     	; 0x35d2 <__vector_25+0x28>
    35c8:	80 91 c6 00 	lds	r24, 0x00C6	; 0x8000c6 <__TEXT_REGION_LENGTH__+0x7000c6>
    35cc:	80 93 4a 05 	sts	0x054A, r24	; 0x80054a <uart0_active_timer>
    35d0:	35 c0       	rjmp	.+106    	; 0x363c <__vector_25+0x92>
    35d2:	80 91 f5 03 	lds	r24, 0x03F5	; 0x8003f5 <uart0_rx_overrun>
    35d6:	81 11       	cpse	r24, r1
    35d8:	2d c0       	rjmp	.+90     	; 0x3634 <__vector_25+0x8a>
    35da:	e0 91 f6 03 	lds	r30, 0x03F6	; 0x8003f6 <uart0_rx_char_write>
    35de:	f0 e0       	ldi	r31, 0x00	; 0
    35e0:	80 91 c6 00 	lds	r24, 0x00C6	; 0x8000c6 <__TEXT_REGION_LENGTH__+0x7000c6>
    35e4:	ef 50       	subi	r30, 0x0F	; 15
    35e6:	fa 4f       	sbci	r31, 0xFA	; 250
    35e8:	80 83       	st	Z, r24
    35ea:	e0 91 f6 03 	lds	r30, 0x03F6	; 0x8003f6 <uart0_rx_char_write>
    35ee:	f0 e0       	ldi	r31, 0x00	; 0
    35f0:	ef 50       	subi	r30, 0x0F	; 15
    35f2:	fa 4f       	sbci	r31, 0xFA	; 250
    35f4:	80 81       	ld	r24, Z
    35f6:	8a 30       	cpi	r24, 0x0A	; 10
    35f8:	29 f4       	brne	.+10     	; 0x3604 <__vector_25+0x5a>
    35fa:	80 91 f4 03 	lds	r24, 0x03F4	; 0x8003f4 <uart0_rx_lines>
    35fe:	8f 5f       	subi	r24, 0xFF	; 255
    3600:	80 93 f4 03 	sts	0x03F4, r24	; 0x8003f4 <uart0_rx_lines>
    3604:	80 91 f6 03 	lds	r24, 0x03F6	; 0x8003f6 <uart0_rx_char_write>
    3608:	8f 5f       	subi	r24, 0xFF	; 255
    360a:	80 93 f6 03 	sts	0x03F6, r24	; 0x8003f6 <uart0_rx_char_write>
    360e:	80 91 f6 03 	lds	r24, 0x03F6	; 0x8003f6 <uart0_rx_char_write>
    3612:	80 38       	cpi	r24, 0x80	; 128
    3614:	11 f4       	brne	.+4      	; 0x361a <__vector_25+0x70>
    3616:	10 92 f6 03 	sts	0x03F6, r1	; 0x8003f6 <uart0_rx_char_write>
    361a:	90 91 f6 03 	lds	r25, 0x03F6	; 0x8003f6 <uart0_rx_char_write>
    361e:	80 91 f7 03 	lds	r24, 0x03F7	; 0x8003f7 <uart0_rx_char_read>
    3622:	98 13       	cpse	r25, r24
    3624:	03 c0       	rjmp	.+6      	; 0x362c <__vector_25+0x82>
    3626:	81 e0       	ldi	r24, 0x01	; 1
    3628:	80 93 f5 03 	sts	0x03F5, r24	; 0x8003f5 <uart0_rx_overrun>
    362c:	85 e0       	ldi	r24, 0x05	; 5
    362e:	80 93 4a 05 	sts	0x054A, r24	; 0x80054a <uart0_active_timer>
    3632:	04 c0       	rjmp	.+8      	; 0x363c <__vector_25+0x92>
    3634:	80 91 c6 00 	lds	r24, 0x00C6	; 0x8000c6 <__TEXT_REGION_LENGTH__+0x7000c6>
    3638:	80 93 4a 05 	sts	0x054A, r24	; 0x80054a <uart0_active_timer>
    363c:	ff 91       	pop	r31
    363e:	ef 91       	pop	r30
    3640:	9f 91       	pop	r25
    3642:	8f 91       	pop	r24
    3644:	0f 90       	pop	r0
    3646:	0b be       	out	0x3b, r0	; 59
    3648:	0f 90       	pop	r0
    364a:	0f be       	out	0x3f, r0	; 63
    364c:	0f 90       	pop	r0
    364e:	1f 90       	pop	r1
    3650:	18 95       	reti

00003652 <__vector_27>:
    3652:	1f 92       	push	r1
    3654:	0f 92       	push	r0
    3656:	0f b6       	in	r0, 0x3f	; 63
    3658:	0f 92       	push	r0
    365a:	11 24       	eor	r1, r1
    365c:	0b b6       	in	r0, 0x3b	; 59
    365e:	0f 92       	push	r0
    3660:	8f 93       	push	r24
    3662:	9f 93       	push	r25
    3664:	ef 93       	push	r30
    3666:	ff 93       	push	r31
    3668:	80 91 00 02 	lds	r24, 0x0200	; 0x800200 <__data_start>
    366c:	81 11       	cpse	r24, r1
    366e:	1d c0       	rjmp	.+58     	; 0x36aa <__vector_27+0x58>
    3670:	80 91 f2 03 	lds	r24, 0x03F2	; 0x8003f2 <uart0_tx_char_read>
    3674:	8f 5f       	subi	r24, 0xFF	; 255
    3676:	80 93 f2 03 	sts	0x03F2, r24	; 0x8003f2 <uart0_tx_char_read>
    367a:	80 91 f2 03 	lds	r24, 0x03F2	; 0x8003f2 <uart0_tx_char_read>
    367e:	80 38       	cpi	r24, 0x80	; 128
    3680:	11 f4       	brne	.+4      	; 0x3686 <__vector_27+0x34>
    3682:	10 92 f2 03 	sts	0x03F2, r1	; 0x8003f2 <uart0_tx_char_read>
    3686:	90 91 f2 03 	lds	r25, 0x03F2	; 0x8003f2 <uart0_tx_char_read>
    368a:	80 91 f1 03 	lds	r24, 0x03F1	; 0x8003f1 <uart0_tx_char_write>
    368e:	98 13       	cpse	r25, r24
    3690:	04 c0       	rjmp	.+8      	; 0x369a <__vector_27+0x48>
    3692:	81 e0       	ldi	r24, 0x01	; 1
    3694:	80 93 00 02 	sts	0x0200, r24	; 0x800200 <__data_start>
    3698:	08 c0       	rjmp	.+16     	; 0x36aa <__vector_27+0x58>
    369a:	e0 91 f2 03 	lds	r30, 0x03F2	; 0x8003f2 <uart0_tx_char_read>
    369e:	f0 e0       	ldi	r31, 0x00	; 0
    36a0:	ef 58       	subi	r30, 0x8F	; 143
    36a2:	fa 4f       	sbci	r31, 0xFA	; 250
    36a4:	80 81       	ld	r24, Z
    36a6:	80 93 c6 00 	sts	0x00C6, r24	; 0x8000c6 <__TEXT_REGION_LENGTH__+0x7000c6>
    36aa:	85 e0       	ldi	r24, 0x05	; 5
    36ac:	80 93 4a 05 	sts	0x054A, r24	; 0x80054a <uart0_active_timer>
    36b0:	ff 91       	pop	r31
    36b2:	ef 91       	pop	r30
    36b4:	9f 91       	pop	r25
    36b6:	8f 91       	pop	r24
    36b8:	0f 90       	pop	r0
    36ba:	0b be       	out	0x3b, r0	; 59
    36bc:	0f 90       	pop	r0
    36be:	0f be       	out	0x3f, r0	; 63
    36c0:	0f 90       	pop	r0
    36c2:	1f 90       	pop	r1
    36c4:	18 95       	reti

000036c6 <UART0InitBaudrate>:
    36c6:	8f 92       	push	r8
    36c8:	9f 92       	push	r9
    36ca:	af 92       	push	r10
    36cc:	bf 92       	push	r11
    36ce:	cf 92       	push	r12
    36d0:	df 92       	push	r13
    36d2:	ef 92       	push	r14
    36d4:	ff 92       	push	r15
    36d6:	69 9a       	sbi	0x0d, 1	; 13
    36d8:	e1 ec       	ldi	r30, 0xC1	; 193
    36da:	f0 e0       	ldi	r31, 0x00	; 0
    36dc:	20 81       	ld	r18, Z
    36de:	28 61       	ori	r18, 0x18	; 24
    36e0:	20 83       	st	Z, r18
    36e2:	20 81       	ld	r18, Z
    36e4:	20 68       	ori	r18, 0x80	; 128
    36e6:	20 83       	st	Z, r18
    36e8:	20 81       	ld	r18, Z
    36ea:	20 64       	ori	r18, 0x40	; 64
    36ec:	20 83       	st	Z, r18
    36ee:	e2 ec       	ldi	r30, 0xC2	; 194
    36f0:	f0 e0       	ldi	r31, 0x00	; 0
    36f2:	20 81       	ld	r18, Z
    36f4:	26 60       	ori	r18, 0x06	; 6
    36f6:	20 83       	st	Z, r18
    36f8:	6c 01       	movw	r12, r24
    36fa:	e1 2c       	mov	r14, r1
    36fc:	f1 2c       	mov	r15, r1
    36fe:	a0 e2       	ldi	r26, 0x20	; 32
    3700:	b3 e0       	ldi	r27, 0x03	; 3
    3702:	a7 01       	movw	r20, r14
    3704:	96 01       	movw	r18, r12
    3706:	11 d3       	rcall	.+1570   	; 0x3d2a <__muluhisi3>
    3708:	4b 01       	movw	r8, r22
    370a:	5c 01       	movw	r10, r24
    370c:	24 e2       	ldi	r18, 0x24	; 36
    370e:	92 0e       	add	r9, r18
    3710:	24 ef       	ldi	r18, 0xF4	; 244
    3712:	a2 1e       	adc	r10, r18
    3714:	b1 1c       	adc	r11, r1
    3716:	a0 e4       	ldi	r26, 0x40	; 64
    3718:	b6 e0       	ldi	r27, 0x06	; 6
    371a:	a7 01       	movw	r20, r14
    371c:	96 01       	movw	r18, r12
    371e:	05 d3       	rcall	.+1546   	; 0x3d2a <__muluhisi3>
    3720:	9b 01       	movw	r18, r22
    3722:	ac 01       	movw	r20, r24
    3724:	c5 01       	movw	r24, r10
    3726:	b4 01       	movw	r22, r8
    3728:	a5 d2       	rcall	.+1354   	; 0x3c74 <__udivmodsi4>
    372a:	21 50       	subi	r18, 0x01	; 1
    372c:	31 09       	sbc	r19, r1
    372e:	30 93 c5 00 	sts	0x00C5, r19	; 0x8000c5 <__TEXT_REGION_LENGTH__+0x7000c5>
    3732:	20 93 c4 00 	sts	0x00C4, r18	; 0x8000c4 <__TEXT_REGION_LENGTH__+0x7000c4>
    3736:	ff 90       	pop	r15
    3738:	ef 90       	pop	r14
    373a:	df 90       	pop	r13
    373c:	cf 90       	pop	r12
    373e:	bf 90       	pop	r11
    3740:	af 90       	pop	r10
    3742:	9f 90       	pop	r9
    3744:	8f 90       	pop	r8
    3746:	08 95       	ret

00003748 <UART0Init>:
    3748:	80 e4       	ldi	r24, 0x40	; 64
    374a:	92 e0       	ldi	r25, 0x02	; 2
    374c:	bc cf       	rjmp	.-136    	; 0x36c6 <UART0InitBaudrate>
    374e:	08 95       	ret

00003750 <UART0ClearRx>:
uint8_t UART0ClearRx()
{
	uint8_t dummy;

#if (USE_RX0_INTERRUPT)
	UCSR0B &= ~_BV(RXCIE0);         //RX Interrupt aus
    3750:	e1 ec       	ldi	r30, 0xC1	; 193
    3752:	f0 e0       	ldi	r31, 0x00	; 0
    3754:	80 81       	ld	r24, Z
    3756:	8f 77       	andi	r24, 0x7F	; 127
    3758:	80 83       	st	Z, r24
#endif

	dummy = UDR0;
    375a:	a6 ec       	ldi	r26, 0xC6	; 198
    375c:	b0 e0       	ldi	r27, 0x00	; 0
    375e:	2c 91       	ld	r18, X
	uart0_rx_char_read = 0;
    3760:	10 92 f7 03 	sts	0x03F7, r1	; 0x8003f7 <uart0_rx_char_read>
	uart0_rx_char_write = 0;
    3764:	10 92 f6 03 	sts	0x03F6, r1	; 0x8003f6 <uart0_rx_char_write>

	dummy += UDR0;
    3768:	8c 91       	ld	r24, X
	uart0_rx_overrun = 0;
    376a:	10 92 f5 03 	sts	0x03F5, r1	; 0x8003f5 <uart0_rx_overrun>
	uart0_rx_lines = 0;
    376e:	10 92 f4 03 	sts	0x03F4, r1	; 0x8003f4 <uart0_rx_lines>

#if (USE_RX0_INTERRUPT)
	UCSR0B |= _BV(RXCIE0);          //RX ISR aktivieren
    3772:	90 81       	ld	r25, Z
    3774:	90 68       	ori	r25, 0x80	; 128
    3776:	90 83       	st	Z, r25
#endif

    return dummy;
}
    3778:	82 0f       	add	r24, r18
    377a:	08 95       	ret

0000377c <UART0ReceiveLine>:
// -------------------------------------------------------------
// Zeile von UART lesen
// -------------------------------------------------------------

uint8_t UART0ReceiveLine()
{
    377c:	cf 93       	push	r28
	uint8_t uart0_rx_lenght = 0;

    if(uart0_rx_lines)
    377e:	c0 91 f4 03 	lds	r28, 0x03F4	; 0x8003f4 <uart0_rx_lines>
    3782:	cc 23       	and	r28, r28
    3784:	09 f4       	brne	.+2      	; 0x3788 <UART0ReceiveLine+0xc>
    3786:	40 c0       	rjmp	.+128    	; 0x3808 <UART0ReceiveLine+0x8c>
    3788:	80 e0       	ldi	r24, 0x00	; 0
    	while(uart0_rx_lenght < UART0_RX_BUFFER_LENGHT)
    	{
    		uart0_rx[uart0_rx_lenght] = uart0_rx_buffer[uart0_rx_char_read];
		
#if (USE_RX0_INTERRUPT)
    		UCSR0B &= ~_BV(RXCIE0);                         //RX Interrupt aus
    378a:	a1 ec       	ldi	r26, 0xC1	; 193
    378c:	b0 e0       	ldi	r27, 0x00	; 0

    if(uart0_rx_lines)
    {
    	while(uart0_rx_lenght < UART0_RX_BUFFER_LENGHT)
    	{
    		uart0_rx[uart0_rx_lenght] = uart0_rx_buffer[uart0_rx_char_read];
    378e:	28 2f       	mov	r18, r24
    3790:	30 e0       	ldi	r19, 0x00	; 0
    3792:	e0 91 f7 03 	lds	r30, 0x03F7	; 0x8003f7 <uart0_rx_char_read>
    3796:	f0 e0       	ldi	r31, 0x00	; 0
    3798:	ef 50       	subi	r30, 0x0F	; 15
    379a:	fa 4f       	sbci	r31, 0xFA	; 250
    379c:	90 81       	ld	r25, Z
    379e:	f9 01       	movw	r30, r18
    37a0:	ee 5c       	subi	r30, 0xCE	; 206
    37a2:	fb 4f       	sbci	r31, 0xFB	; 251
    37a4:	90 83       	st	Z, r25
		
#if (USE_RX0_INTERRUPT)
    		UCSR0B &= ~_BV(RXCIE0);                         //RX Interrupt aus
    37a6:	9c 91       	ld	r25, X
    37a8:	9f 77       	andi	r25, 0x7F	; 127
    37aa:	9c 93       	st	X, r25
#endif

    		uart0_rx_char_read++;
    37ac:	90 91 f7 03 	lds	r25, 0x03F7	; 0x8003f7 <uart0_rx_char_read>
    37b0:	9f 5f       	subi	r25, 0xFF	; 255
    37b2:	90 93 f7 03 	sts	0x03F7, r25	; 0x8003f7 <uart0_rx_char_read>
    		if(uart0_rx_char_read == UART0_RX_BUFFER_LENGHT)
    37b6:	90 91 f7 03 	lds	r25, 0x03F7	; 0x8003f7 <uart0_rx_char_read>
    37ba:	90 38       	cpi	r25, 0x80	; 128
    37bc:	11 f4       	brne	.+4      	; 0x37c2 <UART0ReceiveLine+0x46>
    		{
    			uart0_rx_char_read = 0;
    37be:	10 92 f7 03 	sts	0x03F7, r1	; 0x8003f7 <uart0_rx_char_read>
    		}

    		uart0_rx_overrun = 0;
    37c2:	10 92 f5 03 	sts	0x03F5, r1	; 0x8003f5 <uart0_rx_overrun>

#if (USE_RX0_INTERRUPT)
	        UCSR0B |= _BV(RXCIE0);                          //RX ISR aktivieren
    37c6:	9c 91       	ld	r25, X
    37c8:	90 68       	ori	r25, 0x80	; 128
    37ca:	9c 93       	st	X, r25
#endif

            if(uart0_rx[uart0_rx_lenght] == '\n')
    37cc:	f9 01       	movw	r30, r18
    37ce:	ee 5c       	subi	r30, 0xCE	; 206
    37d0:	fb 4f       	sbci	r31, 0xFB	; 251
    37d2:	90 81       	ld	r25, Z
    37d4:	9a 30       	cpi	r25, 0x0A	; 10
    37d6:	91 f4       	brne	.+36     	; 0x37fc <UART0ReceiveLine+0x80>
            {

#if (USE_RX0_INTERRUPT)
    		    UCSR0B &= ~_BV(RXCIE0);						//RX Interrupt aus
    37d8:	e1 ec       	ldi	r30, 0xC1	; 193
    37da:	f0 e0       	ldi	r31, 0x00	; 0
    37dc:	90 81       	ld	r25, Z
    37de:	9f 77       	andi	r25, 0x7F	; 127
    37e0:	90 83       	st	Z, r25
#endif

                uart0_rx_lines--;
    37e2:	90 91 f4 03 	lds	r25, 0x03F4	; 0x8003f4 <uart0_rx_lines>
    37e6:	91 50       	subi	r25, 0x01	; 1
    37e8:	90 93 f4 03 	sts	0x03F4, r25	; 0x8003f4 <uart0_rx_lines>

#if (USE_RX0_INTERRUPT)
                UCSR0B |= _BV(RXCIE0);                      //RX ISR aktivieren
    37ec:	90 81       	ld	r25, Z
    37ee:	90 68       	ori	r25, 0x80	; 128
    37f0:	90 83       	st	Z, r25
#endif

                uart0_rx[uart0_rx_lenght + 1] = 0x00;       //'\0' anhängen (String-Ende)
    37f2:	f9 01       	movw	r30, r18
    37f4:	ee 5c       	subi	r30, 0xCE	; 206
    37f6:	fb 4f       	sbci	r31, 0xFB	; 251
    37f8:	11 82       	std	Z+1, r1	; 0x01

                return uart0_rx_lenght;
    37fa:	0c c0       	rjmp	.+24     	; 0x3814 <UART0ReceiveLine+0x98>
            }

            //'\0' nicht übernehmen (Übertragungsfehler)
    		if(uart0_rx[uart0_rx_lenght])
    37fc:	91 11       	cpse	r25, r1
            {
                uart0_rx_lenght++;
    37fe:	8f 5f       	subi	r24, 0xFF	; 255
{
	uint8_t uart0_rx_lenght = 0;

    if(uart0_rx_lines)
    {
    	while(uart0_rx_lenght < UART0_RX_BUFFER_LENGHT)
    3800:	88 23       	and	r24, r24
    3802:	2c f6       	brge	.-118    	; 0x378e <UART0ReceiveLine+0x12>
    else if(uart0_rx_overrun)
    {
        UART0ClearRx();
    }
    
    return 0;
    3804:	80 e0       	ldi	r24, 0x00	; 0
    3806:	06 c0       	rjmp	.+12     	; 0x3814 <UART0ReceiveLine+0x98>
            {
                uart0_rx_lenght++;
            }
    	}
    }
    else if(uart0_rx_overrun)
    3808:	80 91 f5 03 	lds	r24, 0x03F5	; 0x8003f5 <uart0_rx_overrun>
    380c:	88 23       	and	r24, r24
    {
        UART0ClearRx();
    380e:	11 f0       	breq	.+4      	; 0x3814 <UART0ReceiveLine+0x98>
    }
    
    return 0;
    3810:	9f df       	rcall	.-194    	; 0x3750 <UART0ClearRx>
}
    3812:	8c 2f       	mov	r24, r28
    3814:	cf 91       	pop	r28
    3816:	08 95       	ret

00003818 <UART0TxByte>:
// -------------------------------------------------------------
// Byte an TX Buffer anhängen
// -------------------------------------------------------------

uint8_t UART0TxByte(char byte)
{
    3818:	38 2f       	mov	r19, r24
	if(uart0_tx_char_write == uart0_tx_char_read && !uart0_tx_empty) return 0;
    381a:	20 91 f1 03 	lds	r18, 0x03F1	; 0x8003f1 <uart0_tx_char_write>
    381e:	90 91 f2 03 	lds	r25, 0x03F2	; 0x8003f2 <uart0_tx_char_read>
    3822:	29 13       	cpse	r18, r25
    3824:	04 c0       	rjmp	.+8      	; 0x382e <UART0TxByte+0x16>
    3826:	80 91 00 02 	lds	r24, 0x0200	; 0x800200 <__data_start>
    382a:	88 23       	and	r24, r24
    382c:	51 f1       	breq	.+84     	; 0x3882 <UART0TxByte+0x6a>

	uart0_tx_buffer[uart0_tx_char_write] = byte;
    382e:	e0 91 f1 03 	lds	r30, 0x03F1	; 0x8003f1 <uart0_tx_char_write>
    3832:	f0 e0       	ldi	r31, 0x00	; 0
    3834:	ef 58       	subi	r30, 0x8F	; 143
    3836:	fa 4f       	sbci	r31, 0xFA	; 250
    3838:	30 83       	st	Z, r19

#if (USE_TX0_INTERRUPT)
	UCSR0B &= ~_BV(TXCIE0);						//TX Interrupt aus
    383a:	e1 ec       	ldi	r30, 0xC1	; 193
    383c:	f0 e0       	ldi	r31, 0x00	; 0
    383e:	80 81       	ld	r24, Z
    3840:	8f 7b       	andi	r24, 0xBF	; 191
    3842:	80 83       	st	Z, r24
#endif

	uart0_tx_char_write++;
    3844:	80 91 f1 03 	lds	r24, 0x03F1	; 0x8003f1 <uart0_tx_char_write>
    3848:	8f 5f       	subi	r24, 0xFF	; 255
    384a:	80 93 f1 03 	sts	0x03F1, r24	; 0x8003f1 <uart0_tx_char_write>
	if(uart0_tx_char_write == UART0_TX_BUFFER_LENGHT)
    384e:	80 91 f1 03 	lds	r24, 0x03F1	; 0x8003f1 <uart0_tx_char_write>
    3852:	80 38       	cpi	r24, 0x80	; 128
    3854:	11 f4       	brne	.+4      	; 0x385a <UART0TxByte+0x42>
	{
		uart0_tx_char_write = 0;
    3856:	10 92 f1 03 	sts	0x03F1, r1	; 0x8003f1 <uart0_tx_char_write>
	}
	
	if(uart0_tx_empty)
    385a:	80 91 00 02 	lds	r24, 0x0200	; 0x800200 <__data_start>
    385e:	88 23       	and	r24, r24
    3860:	51 f0       	breq	.+20     	; 0x3876 <UART0TxByte+0x5e>
        //enable TX_EN
        UART0_RS485_DE_PORT |= _BV(UART0_RS485_DE_PIN);
#endif
#endif

		UDR0 = uart0_tx_buffer[uart0_tx_char_read];		//sende erstes Zeichen
    3862:	e0 91 f2 03 	lds	r30, 0x03F2	; 0x8003f2 <uart0_tx_char_read>
    3866:	f0 e0       	ldi	r31, 0x00	; 0
    3868:	ef 58       	subi	r30, 0x8F	; 143
    386a:	fa 4f       	sbci	r31, 0xFA	; 250
    386c:	80 81       	ld	r24, Z
    386e:	80 93 c6 00 	sts	0x00C6, r24	; 0x8000c6 <__TEXT_REGION_LENGTH__+0x7000c6>

		uart0_tx_empty = 0;
    3872:	10 92 00 02 	sts	0x0200, r1	; 0x800200 <__data_start>
	}
	
#if (USE_TX0_INTERRUPT)
	UCSR0B |= _BV(TXCIE0);		//TX ISR aktivieren
    3876:	e1 ec       	ldi	r30, 0xC1	; 193
    3878:	f0 e0       	ldi	r31, 0x00	; 0
    387a:	80 81       	ld	r24, Z
    387c:	80 64       	ori	r24, 0x40	; 64
    387e:	80 83       	st	Z, r24
#endif

	return 1;
    3880:	81 e0       	ldi	r24, 0x01	; 1
}
    3882:	08 95       	ret

00003884 <UART0TransmitString>:
// -------------------------------------------------------------
// String auf UART ausgeben
// -------------------------------------------------------------

void UART0TransmitString(char *string)
{
    3884:	cf 93       	push	r28
    3886:	df 93       	push	r29
    3888:	ec 01       	movw	r28, r24
	while(*string)
    388a:	88 81       	ld	r24, Y
    388c:	88 23       	and	r24, r24
    388e:	41 f0       	breq	.+16     	; 0x38a0 <UART0TransmitString+0x1c>
	{
		while(!UART0TxByte(*string));
    3890:	88 81       	ld	r24, Y
    3892:	c2 df       	rcall	.-124    	; 0x3818 <UART0TxByte>
    3894:	88 23       	and	r24, r24
    3896:	e1 f3       	breq	.-8      	; 0x3890 <UART0TransmitString+0xc>

	    string++;
    3898:	21 96       	adiw	r28, 0x01	; 1
// String auf UART ausgeben
// -------------------------------------------------------------

void UART0TransmitString(char *string)
{
	while(*string)
    389a:	88 81       	ld	r24, Y
    389c:	81 11       	cpse	r24, r1
    389e:	f8 cf       	rjmp	.-16     	; 0x3890 <UART0TransmitString+0xc>
	{
		while(!UART0TxByte(*string));

	    string++;
	}
}
    38a0:	df 91       	pop	r29
    38a2:	cf 91       	pop	r28
    38a4:	08 95       	ret

000038a6 <UART0TransmitStringLn>:
// -------------------------------------------------------------
// String & LF auf UART ausgeben
// -------------------------------------------------------------

void UART0TransmitStringLn(char *string)
{
    38a6:	cf 93       	push	r28
    38a8:	df 93       	push	r29
    38aa:	ec 01       	movw	r28, r24
	while(*string)
    38ac:	88 81       	ld	r24, Y
    38ae:	88 23       	and	r24, r24
    38b0:	41 f0       	breq	.+16     	; 0x38c2 <UART0TransmitStringLn+0x1c>
	{
		while(!UART0TxByte(*string));
    38b2:	88 81       	ld	r24, Y
    38b4:	b1 df       	rcall	.-158    	; 0x3818 <UART0TxByte>
    38b6:	88 23       	and	r24, r24
    38b8:	e1 f3       	breq	.-8      	; 0x38b2 <UART0TransmitStringLn+0xc>

	    string++;
    38ba:	21 96       	adiw	r28, 0x01	; 1
// String & LF auf UART ausgeben
// -------------------------------------------------------------

void UART0TransmitStringLn(char *string)
{
	while(*string)
    38bc:	88 81       	ld	r24, Y
    38be:	81 11       	cpse	r24, r1
		while(!UART0TxByte(*string));

	    string++;
	}
	
	while(!UART0TxByte('\n'));			// <LF> anhängen
    38c0:	f8 cf       	rjmp	.-16     	; 0x38b2 <UART0TransmitStringLn+0xc>
    38c2:	8a e0       	ldi	r24, 0x0A	; 10
    38c4:	a9 df       	rcall	.-174    	; 0x3818 <UART0TxByte>
    38c6:	88 23       	and	r24, r24
}
    38c8:	e1 f3       	breq	.-8      	; 0x38c2 <UART0TransmitStringLn+0x1c>
    38ca:	df 91       	pop	r29
    38cc:	cf 91       	pop	r28
    38ce:	08 95       	ret

000038d0 <USART_SPI_InitBaudrate>:
// USART Schnittstelle initialisieren					 (Check)
// -------------------------------------------------------------

void USART_SPI_Init()
{
    USART_SPI_InitBaudrate(USART_SPI_BAUD);
    38d0:	10 92 d5 00 	sts	0x00D5, r1	; 0x8000d5 <__TEXT_REGION_LENGTH__+0x7000d5>
    38d4:	10 92 d4 00 	sts	0x00D4, r1	; 0x8000d4 <__TEXT_REGION_LENGTH__+0x7000d4>
    38d8:	28 9a       	sbi	0x05, 0	; 5
    38da:	23 98       	cbi	0x04, 3	; 4
    38dc:	22 9a       	sbi	0x04, 2	; 4
    38de:	21 9a       	sbi	0x04, 1	; 4
    38e0:	84 e5       	ldi	r24, 0x54	; 84
    38e2:	8c bd       	out	0x2c, r24	; 44
    38e4:	8c b5       	in	r24, 0x2c	; 44
    38e6:	80 68       	ori	r24, 0x80	; 128
    38e8:	8c bd       	out	0x2c, r24	; 44
    38ea:	8c b5       	in	r24, 0x2c	; 44
    38ec:	80 68       	ori	r24, 0x80	; 128
    38ee:	8c bd       	out	0x2c, r24	; 44
    38f0:	8c b5       	in	r24, 0x2c	; 44
    38f2:	83 60       	ori	r24, 0x03	; 3
    38f4:	8c bd       	out	0x2c, r24	; 44
    38f6:	08 95       	ret

000038f8 <USART_SPI_SetCS>:
// USART SPI CS setzen & umschalten						 (Check)
// -------------------------------------------------------------

void USART_SPI_SetCS(volatile uint8_t *csr, uint8_t csp, uint8_t neg, uint8_t len)
{
    usart_spi_cs_port = csr;
    38f8:	90 93 03 02 	sts	0x0203, r25	; 0x800203 <usart_spi_cs_port+0x1>
    38fc:	80 93 02 02 	sts	0x0202, r24	; 0x800202 <usart_spi_cs_port>
    usart_spi_cs_pin = csp;
    3900:	60 93 fa 03 	sts	0x03FA, r22	; 0x8003fa <usart_spi_cs_pin>
    usart_spi_cs_neg = neg;
    3904:	40 93 f9 03 	sts	0x03F9, r20	; 0x8003f9 <usart_spi_cs_neg>
    usart_spi_cs_len = len;
    3908:	20 93 01 02 	sts	0x0201, r18	; 0x800201 <usart_spi_cs_len>
    390c:	08 95       	ret

0000390e <USART_SPI_ToggleCS>:
}

void USART_SPI_ToggleCS(uint8_t set)
{
	if ((usart_spi_cs_neg && set) || (!usart_spi_cs_neg && !set))
    390e:	90 91 f9 03 	lds	r25, 0x03F9	; 0x8003f9 <usart_spi_cs_neg>
    3912:	99 23       	and	r25, r25
    3914:	19 f0       	breq	.+6      	; 0x391c <USART_SPI_ToggleCS+0xe>
    3916:	88 23       	and	r24, r24
    3918:	a9 f0       	breq	.+42     	; 0x3944 <USART_SPI_ToggleCS+0x36>
    391a:	02 c0       	rjmp	.+4      	; 0x3920 <USART_SPI_ToggleCS+0x12>
    391c:	81 11       	cpse	r24, r1
    391e:	12 c0       	rjmp	.+36     	; 0x3944 <USART_SPI_ToggleCS+0x36>
	{
		//Clear
		*usart_spi_cs_port &= ~_BV(usart_spi_cs_pin);
    3920:	e0 91 02 02 	lds	r30, 0x0202	; 0x800202 <usart_spi_cs_port>
    3924:	f0 91 03 02 	lds	r31, 0x0203	; 0x800203 <usart_spi_cs_port+0x1>
    3928:	20 81       	ld	r18, Z
    392a:	81 e0       	ldi	r24, 0x01	; 1
    392c:	90 e0       	ldi	r25, 0x00	; 0
    392e:	00 90 fa 03 	lds	r0, 0x03FA	; 0x8003fa <usart_spi_cs_pin>
    3932:	02 c0       	rjmp	.+4      	; 0x3938 <USART_SPI_ToggleCS+0x2a>
    3934:	88 0f       	add	r24, r24
    3936:	99 1f       	adc	r25, r25
    3938:	0a 94       	dec	r0
    393a:	e2 f7       	brpl	.-8      	; 0x3934 <USART_SPI_ToggleCS+0x26>
    393c:	80 95       	com	r24
    393e:	82 23       	and	r24, r18
    3940:	80 83       	st	Z, r24
    3942:	08 95       	ret
	}
	else
	{
		//Set
		*usart_spi_cs_port |= _BV(usart_spi_cs_pin);
    3944:	e0 91 02 02 	lds	r30, 0x0202	; 0x800202 <usart_spi_cs_port>
    3948:	f0 91 03 02 	lds	r31, 0x0203	; 0x800203 <usart_spi_cs_port+0x1>
    394c:	20 81       	ld	r18, Z
    394e:	81 e0       	ldi	r24, 0x01	; 1
    3950:	90 e0       	ldi	r25, 0x00	; 0
    3952:	00 90 fa 03 	lds	r0, 0x03FA	; 0x8003fa <usart_spi_cs_pin>
    3956:	02 c0       	rjmp	.+4      	; 0x395c <USART_SPI_ToggleCS+0x4e>
    3958:	88 0f       	add	r24, r24
    395a:	99 1f       	adc	r25, r25
    395c:	0a 94       	dec	r0
    395e:	e2 f7       	brpl	.-8      	; 0x3958 <USART_SPI_ToggleCS+0x4a>
    3960:	82 2b       	or	r24, r18
    3962:	80 83       	st	Z, r24
    3964:	08 95       	ret

00003966 <USART_SPI_ReceiveLen>:
// -------------------------------------------------------------
// Anzahl Zeichen von UART lesen						 (Check)
// -------------------------------------------------------------

uint8_t USART_SPI_ReceiveLen(uint8_t len)
{
    3966:	81 34       	cpi	r24, 0x41	; 65
    3968:	08 f0       	brcs	.+2      	; 0x396c <USART_SPI_ReceiveLen+0x6>
    396a:	80 e4       	ldi	r24, 0x40	; 64
    396c:	ac ee       	ldi	r26, 0xEC	; 236
    396e:	b4 e0       	ldi	r27, 0x04	; 4
    3970:	20 e0       	ldi	r18, 0x00	; 0
    3972:	15 c0       	rjmp	.+42     	; 0x399e <USART_SPI_ReceiveLen+0x38>
		if (len > USART_SPI_RX_BUFFER_LENGHT) len = USART_SPI_RX_BUFFER_LENGHT;

		while((usart_spi_rx_char_read != usart_spi_rx_char_write || usart_spi_rx_buffer_overrun) && usart_spi_rx_lenght < len)
		{
			//Zeichen in RX Array übertragen
			usart_spi_rx[usart_spi_rx_lenght] = usart_spi_rx_buffer[usart_spi_rx_char_read];
    3974:	e0 91 00 04 	lds	r30, 0x0400	; 0x800400 <usart_spi_rx_char_read>
    3978:	f0 e0       	ldi	r31, 0x00	; 0
    397a:	ef 54       	subi	r30, 0x4F	; 79
    397c:	f9 4f       	sbci	r31, 0xF9	; 249
    397e:	90 81       	ld	r25, Z
    3980:	9d 93       	st	X+, r25
			//Nächste stelle
			usart_spi_rx_lenght++;
    3982:	2f 5f       	subi	r18, 0xFF	; 255

			#if (USART_SPI_RX_INTERRUPT)
			SPCR &= ~_BV(SPIE);						//RX Interrupt aus
			#endif

			usart_spi_rx_char_read++;
    3984:	90 91 00 04 	lds	r25, 0x0400	; 0x800400 <usart_spi_rx_char_read>
    3988:	9f 5f       	subi	r25, 0xFF	; 255
    398a:	90 93 00 04 	sts	0x0400, r25	; 0x800400 <usart_spi_rx_char_read>

			//Ring-Buffer am Ende, reset
			if(usart_spi_rx_char_read == USART_SPI_RX_BUFFER_LENGHT)
    398e:	90 91 00 04 	lds	r25, 0x0400	; 0x800400 <usart_spi_rx_char_read>
    3992:	90 34       	cpi	r25, 0x40	; 64
    3994:	11 f4       	brne	.+4      	; 0x399a <USART_SPI_ReceiveLen+0x34>
			{
				usart_spi_rx_char_read = 0;
    3996:	10 92 00 04 	sts	0x0400, r1	; 0x800400 <usart_spi_rx_char_read>
			}

			usart_spi_rx_buffer_overrun = 0;
    399a:	10 92 fe 03 	sts	0x03FE, r1	; 0x8003fe <usart_spi_rx_buffer_overrun>
		uint8_t usart_spi_rx_lenght = 0;

		//Maxi: Verhindern das nicht mehr Daten abgeholt werden als Buffer lang ist
		if (len > USART_SPI_RX_BUFFER_LENGHT) len = USART_SPI_RX_BUFFER_LENGHT;

		while((usart_spi_rx_char_read != usart_spi_rx_char_write || usart_spi_rx_buffer_overrun) && usart_spi_rx_lenght < len)
    399e:	30 91 00 04 	lds	r19, 0x0400	; 0x800400 <usart_spi_rx_char_read>
    39a2:	90 91 ff 03 	lds	r25, 0x03FF	; 0x8003ff <usart_spi_rx_char_write>
    39a6:	39 13       	cpse	r19, r25
    39a8:	04 c0       	rjmp	.+8      	; 0x39b2 <USART_SPI_ReceiveLen+0x4c>
    39aa:	90 91 fe 03 	lds	r25, 0x03FE	; 0x8003fe <usart_spi_rx_buffer_overrun>
    39ae:	99 23       	and	r25, r25
    39b0:	19 f0       	breq	.+6      	; 0x39b8 <USART_SPI_ReceiveLen+0x52>
    39b2:	28 13       	cpse	r18, r24
    39b4:	df cf       	rjmp	.-66     	; 0x3974 <USART_SPI_ReceiveLen+0xe>
    39b6:	08 95       	ret
    39b8:	82 2f       	mov	r24, r18
			#endif

		}

		return usart_spi_rx_lenght;
}
    39ba:	08 95       	ret

000039bc <USART_SPI_RXWaiting>:
// Anzahl Zeichen im RX bzw. TX Buffer					 (Check)
// -------------------------------------------------------------

uint8_t USART_SPI_RXWaiting()
{
	if(usart_spi_rx_buffer_overrun) return USART_SPI_RX_BUFFER_LENGHT;
    39bc:	80 91 fe 03 	lds	r24, 0x03FE	; 0x8003fe <usart_spi_rx_buffer_overrun>
    39c0:	81 11       	cpse	r24, r1
    39c2:	06 c0       	rjmp	.+12     	; 0x39d0 <USART_SPI_RXWaiting+0x14>
	else return (usart_spi_rx_char_write - usart_spi_rx_char_read);
    39c4:	80 91 ff 03 	lds	r24, 0x03FF	; 0x8003ff <usart_spi_rx_char_write>
    39c8:	90 91 00 04 	lds	r25, 0x0400	; 0x800400 <usart_spi_rx_char_read>
    39cc:	89 1b       	sub	r24, r25
    39ce:	08 95       	ret
// Anzahl Zeichen im RX bzw. TX Buffer					 (Check)
// -------------------------------------------------------------

uint8_t USART_SPI_RXWaiting()
{
	if(usart_spi_rx_buffer_overrun) return USART_SPI_RX_BUFFER_LENGHT;
    39d0:	80 e4       	ldi	r24, 0x40	; 64
	else return (usart_spi_rx_char_write - usart_spi_rx_char_read);
}
    39d2:	08 95       	ret

000039d4 <USART_SPI_TXWaiting>:

uint8_t USART_SPI_TXWaiting()
{
	return usart_spi_tx_char_write - usart_spi_tx_char_read;
    39d4:	80 91 fb 03 	lds	r24, 0x03FB	; 0x8003fb <usart_spi_tx_char_write>
    39d8:	90 91 fc 03 	lds	r25, 0x03FC	; 0x8003fc <usart_spi_tx_char_read>
}
    39dc:	89 1b       	sub	r24, r25
    39de:	08 95       	ret

000039e0 <USART_SPI_ClearRx>:
uint8_t USART_SPI_ClearRx()
{
	uint8_t dummy;

#if (USART_SPI_USE_RX_INTERRUPT)
	SPCR &= ~_BV(SPIE);         //RX Interrupt aus
    39e0:	8c b5       	in	r24, 0x2c	; 44
    39e2:	8f 77       	andi	r24, 0x7F	; 127
    39e4:	8c bd       	out	0x2c, r24	; 44
#endif

	dummy = SPDR;
    39e6:	2e b5       	in	r18, 0x2e	; 46
	usart_spi_rx_char_read = 0;
    39e8:	10 92 00 04 	sts	0x0400, r1	; 0x800400 <usart_spi_rx_char_read>
	usart_spi_rx_char_write = 0;
    39ec:	10 92 ff 03 	sts	0x03FF, r1	; 0x8003ff <usart_spi_rx_char_write>
    
	dummy += SPDR;
    39f0:	8e b5       	in	r24, 0x2e	; 46
	usart_spi_rx_buffer_overrun = 0;
    39f2:	10 92 fe 03 	sts	0x03FE, r1	; 0x8003fe <usart_spi_rx_buffer_overrun>

#if (USART_SPI_USE_RX_INTERRUPT)
	SPCR |= _BV(SPIE);          //RX ISR aktivieren
    39f6:	9c b5       	in	r25, 0x2c	; 44
    39f8:	90 68       	ori	r25, 0x80	; 128
    39fa:	9c bd       	out	0x2c, r25	; 44
#endif

    return dummy;
}
    39fc:	82 0f       	add	r24, r18
    39fe:	08 95       	ret

00003a00 <__vector_51>:
**	
*/

//Wird nie ausgelöst
ISR(USART2_RX_vect)
{
    3a00:	1f 92       	push	r1
    3a02:	0f 92       	push	r0
    3a04:	0f b6       	in	r0, 0x3f	; 63
    3a06:	0f 92       	push	r0
    3a08:	11 24       	eor	r1, r1
    3a0a:	0b b6       	in	r0, 0x3b	; 59
    3a0c:	0f 92       	push	r0
    3a0e:	2f 93       	push	r18
    3a10:	3f 93       	push	r19
    3a12:	4f 93       	push	r20
    3a14:	5f 93       	push	r21
    3a16:	6f 93       	push	r22
    3a18:	7f 93       	push	r23
    3a1a:	8f 93       	push	r24
    3a1c:	9f 93       	push	r25
    3a1e:	af 93       	push	r26
    3a20:	bf 93       	push	r27
    3a22:	ef 93       	push	r30
    3a24:	ff 93       	push	r31
// -------------------------------------------------------------

inline void _USART_SPI_RxBuffer()
{
	//Ring-Buffer nicht voll
	if(!usart_spi_rx_buffer_overrun)
    3a26:	80 91 fe 03 	lds	r24, 0x03FE	; 0x8003fe <usart_spi_rx_buffer_overrun>
    3a2a:	81 11       	cpse	r24, r1
    3a2c:	24 c0       	rjmp	.+72     	; 0x3a76 <__vector_51+0x76>
	{
		//Maxi: Daten wurden in SPDR (SPI Data Register) abgelegt
		//Maxi: Daten werdein in eingenen Buffer übernommen an aktuelle Stelle geschrieben
		usart_spi_rx_buffer[usart_spi_rx_char_write] = SPDR;
    3a2e:	e0 91 ff 03 	lds	r30, 0x03FF	; 0x8003ff <usart_spi_rx_char_write>
    3a32:	f0 e0       	ldi	r31, 0x00	; 0
    3a34:	8e b5       	in	r24, 0x2e	; 46
    3a36:	ef 54       	subi	r30, 0x4F	; 79
    3a38:	f9 4f       	sbci	r31, 0xF9	; 249
    3a3a:	80 83       	st	Z, r24

		//Maxi: aktuelle Stelle hochzählen
		usart_spi_rx_char_write++;
    3a3c:	80 91 ff 03 	lds	r24, 0x03FF	; 0x8003ff <usart_spi_rx_char_write>
    3a40:	8f 5f       	subi	r24, 0xFF	; 255
    3a42:	80 93 ff 03 	sts	0x03FF, r24	; 0x8003ff <usart_spi_rx_char_write>

		//Ring-Buffer am Ende, reset
		//Maxi: Wenn an letzer stelle angekommen, dann auf 0 setzen
		if(usart_spi_rx_char_write == USART_SPI_RX_BUFFER_LENGHT)
    3a46:	80 91 ff 03 	lds	r24, 0x03FF	; 0x8003ff <usart_spi_rx_char_write>
    3a4a:	80 34       	cpi	r24, 0x40	; 64
    3a4c:	11 f4       	brne	.+4      	; 0x3a52 <__vector_51+0x52>
		{
			usart_spi_rx_char_write = 0;
    3a4e:	10 92 ff 03 	sts	0x03FF, r1	; 0x8003ff <usart_spi_rx_char_write>
		}

		//Ring-Buffer voll (zu wenig Daten abgeholt)
		if(usart_spi_rx_char_write == usart_spi_rx_char_read)
    3a52:	90 91 ff 03 	lds	r25, 0x03FF	; 0x8003ff <usart_spi_rx_char_write>
    3a56:	80 91 00 04 	lds	r24, 0x0400	; 0x800400 <usart_spi_rx_char_read>
    3a5a:	98 13       	cpse	r25, r24
    3a5c:	03 c0       	rjmp	.+6      	; 0x3a64 <__vector_51+0x64>
		{
			usart_spi_rx_buffer_overrun = 1;
    3a5e:	81 e0       	ldi	r24, 0x01	; 1
    3a60:	80 93 fe 03 	sts	0x03FE, r24	; 0x8003fe <usart_spi_rx_buffer_overrun>
		}
		//Wenn alle Bits gelesen, Flag zurücksetzen
		if (usart_spi_byte_count == usart_spi_cs_len)
    3a64:	90 91 f8 03 	lds	r25, 0x03F8	; 0x8003f8 <usart_spi_byte_count>
    3a68:	80 91 01 02 	lds	r24, 0x0201	; 0x800201 <usart_spi_cs_len>
    3a6c:	98 13       	cpse	r25, r24
    3a6e:	04 c0       	rjmp	.+8      	; 0x3a78 <__vector_51+0x78>
		{
			usart_spi_rx_flag = 0;
    3a70:	10 92 fd 03 	sts	0x03FD, r1	; 0x8003fd <usart_spi_rx_flag>
		}
	}
	else
	{
		USART_SPI_ClearRx();
    3a74:	01 c0       	rjmp	.+2      	; 0x3a78 <__vector_51+0x78>

//Wird nie ausgelöst
ISR(USART2_RX_vect)
{
	_USART_SPI_RxBuffer();
	TransmitStringLn("ja");
    3a76:	b4 df       	rcall	.-152    	; 0x39e0 <USART_SPI_ClearRx>
    3a78:	8b ee       	ldi	r24, 0xEB	; 235
    3a7a:	93 e0       	ldi	r25, 0x03	; 3
    3a7c:	0e 94 c3 11 	call	0x2386	; 0x2386 <TransmitStringLn>
}
    3a80:	ff 91       	pop	r31
    3a82:	ef 91       	pop	r30
    3a84:	bf 91       	pop	r27
    3a86:	af 91       	pop	r26
    3a88:	9f 91       	pop	r25
    3a8a:	8f 91       	pop	r24
    3a8c:	7f 91       	pop	r23
    3a8e:	6f 91       	pop	r22
    3a90:	5f 91       	pop	r21
    3a92:	4f 91       	pop	r20
    3a94:	3f 91       	pop	r19
    3a96:	2f 91       	pop	r18
    3a98:	0f 90       	pop	r0
    3a9a:	0b be       	out	0x3b, r0	; 59
    3a9c:	0f 90       	pop	r0
    3a9e:	0f be       	out	0x3f, r0	; 63
    3aa0:	0f 90       	pop	r0
    3aa2:	1f 90       	pop	r1
    3aa4:	18 95       	reti

00003aa6 <__vector_24>:
**	
*/

//Wird ausgelöst wenn Byte gesendet wurde
ISR(SPI_STC_vect)
{
    3aa6:	1f 92       	push	r1
    3aa8:	0f 92       	push	r0
    3aaa:	0f b6       	in	r0, 0x3f	; 63
    3aac:	0f 92       	push	r0
    3aae:	11 24       	eor	r1, r1
    3ab0:	0b b6       	in	r0, 0x3b	; 59
    3ab2:	0f 92       	push	r0
    3ab4:	2f 93       	push	r18
    3ab6:	3f 93       	push	r19
    3ab8:	4f 93       	push	r20
    3aba:	5f 93       	push	r21
    3abc:	6f 93       	push	r22
    3abe:	7f 93       	push	r23
    3ac0:	8f 93       	push	r24
    3ac2:	9f 93       	push	r25
    3ac4:	af 93       	push	r26
    3ac6:	bf 93       	push	r27
    3ac8:	ef 93       	push	r30
    3aca:	ff 93       	push	r31
	if(usart_spi_rx_flag){_USART_SPI_RxBuffer();}	//edit Maxi	
    3acc:	80 91 fd 03 	lds	r24, 0x03FD	; 0x8003fd <usart_spi_rx_flag>
    3ad0:	88 23       	and	r24, r24
    3ad2:	49 f1       	breq	.+82     	; 0x3b26 <__vector_24+0x80>
// -------------------------------------------------------------

inline void _USART_SPI_RxBuffer()
{
	//Ring-Buffer nicht voll
	if(!usart_spi_rx_buffer_overrun)
    3ad4:	80 91 fe 03 	lds	r24, 0x03FE	; 0x8003fe <usart_spi_rx_buffer_overrun>
    3ad8:	81 11       	cpse	r24, r1
    3ada:	24 c0       	rjmp	.+72     	; 0x3b24 <__vector_24+0x7e>
	{
		//Maxi: Daten wurden in SPDR (SPI Data Register) abgelegt
		//Maxi: Daten werdein in eingenen Buffer übernommen an aktuelle Stelle geschrieben
		usart_spi_rx_buffer[usart_spi_rx_char_write] = SPDR;
    3adc:	e0 91 ff 03 	lds	r30, 0x03FF	; 0x8003ff <usart_spi_rx_char_write>
    3ae0:	f0 e0       	ldi	r31, 0x00	; 0
    3ae2:	8e b5       	in	r24, 0x2e	; 46
    3ae4:	ef 54       	subi	r30, 0x4F	; 79
    3ae6:	f9 4f       	sbci	r31, 0xF9	; 249
    3ae8:	80 83       	st	Z, r24

		//Maxi: aktuelle Stelle hochzählen
		usart_spi_rx_char_write++;
    3aea:	80 91 ff 03 	lds	r24, 0x03FF	; 0x8003ff <usart_spi_rx_char_write>
    3aee:	8f 5f       	subi	r24, 0xFF	; 255
    3af0:	80 93 ff 03 	sts	0x03FF, r24	; 0x8003ff <usart_spi_rx_char_write>

		//Ring-Buffer am Ende, reset
		//Maxi: Wenn an letzer stelle angekommen, dann auf 0 setzen
		if(usart_spi_rx_char_write == USART_SPI_RX_BUFFER_LENGHT)
    3af4:	80 91 ff 03 	lds	r24, 0x03FF	; 0x8003ff <usart_spi_rx_char_write>
    3af8:	80 34       	cpi	r24, 0x40	; 64
    3afa:	11 f4       	brne	.+4      	; 0x3b00 <__vector_24+0x5a>
		{
			usart_spi_rx_char_write = 0;
    3afc:	10 92 ff 03 	sts	0x03FF, r1	; 0x8003ff <usart_spi_rx_char_write>
		}

		//Ring-Buffer voll (zu wenig Daten abgeholt)
		if(usart_spi_rx_char_write == usart_spi_rx_char_read)
    3b00:	90 91 ff 03 	lds	r25, 0x03FF	; 0x8003ff <usart_spi_rx_char_write>
    3b04:	80 91 00 04 	lds	r24, 0x0400	; 0x800400 <usart_spi_rx_char_read>
    3b08:	98 13       	cpse	r25, r24
    3b0a:	03 c0       	rjmp	.+6      	; 0x3b12 <__vector_24+0x6c>
		{
			usart_spi_rx_buffer_overrun = 1;
    3b0c:	81 e0       	ldi	r24, 0x01	; 1
    3b0e:	80 93 fe 03 	sts	0x03FE, r24	; 0x8003fe <usart_spi_rx_buffer_overrun>
		}
		//Wenn alle Bits gelesen, Flag zurücksetzen
		if (usart_spi_byte_count == usart_spi_cs_len)
    3b12:	90 91 f8 03 	lds	r25, 0x03F8	; 0x8003f8 <usart_spi_byte_count>
    3b16:	80 91 01 02 	lds	r24, 0x0201	; 0x800201 <usart_spi_cs_len>
    3b1a:	98 13       	cpse	r25, r24
    3b1c:	0e c0       	rjmp	.+28     	; 0x3b3a <__vector_24+0x94>
		{
			usart_spi_rx_flag = 0;
    3b1e:	10 92 fd 03 	sts	0x03FD, r1	; 0x8003fd <usart_spi_rx_flag>
		}
	}
	else
	{
		USART_SPI_ClearRx();
    3b22:	07 c0       	rjmp	.+14     	; 0x3b32 <__vector_24+0x8c>
// -------------------------------------------------------------

inline void _USART_SPI_TxBuffer()
{
	//Wenn alle Bits gesendet wurden --> CS zurück + byte_counter zuückseten
    if (usart_spi_byte_count == usart_spi_cs_len)
    3b24:	5d df       	rcall	.-326    	; 0x39e0 <USART_SPI_ClearRx>
    3b26:	90 91 f8 03 	lds	r25, 0x03F8	; 0x8003f8 <usart_spi_byte_count>
    3b2a:	80 91 01 02 	lds	r24, 0x0201	; 0x800201 <usart_spi_cs_len>
    {
        USART_SPI_ToggleCS(0);
    3b2e:	98 13       	cpse	r25, r24
    3b30:	04 c0       	rjmp	.+8      	; 0x3b3a <__vector_24+0x94>
        usart_spi_byte_count = 0;
    3b32:	80 e0       	ldi	r24, 0x00	; 0
    3b34:	ec de       	rcall	.-552    	; 0x390e <USART_SPI_ToggleCS>
    }

    //Noch zeichen zum senden vorhanden
	if(!usart_spi_tx_buffer_empty)
    3b36:	10 92 f8 03 	sts	0x03F8, r1	; 0x8003f8 <usart_spi_byte_count>
    3b3a:	80 91 04 02 	lds	r24, 0x0204	; 0x800204 <usart_spi_tx_buffer_empty>
	{
		//Zeichen im Hardware-Buffer
        //while ( !( SPSR & _BV(UDRE2) ) );

        usart_spi_tx_char_read++;
    3b3e:	81 11       	cpse	r24, r1
    3b40:	23 c0       	rjmp	.+70     	; 0x3b88 <__vector_24+0xe2>
    3b42:	80 91 fc 03 	lds	r24, 0x03FC	; 0x8003fc <usart_spi_tx_char_read>
    3b46:	8f 5f       	subi	r24, 0xFF	; 255

		//Ring-Buffer am Ende, reset
        if(usart_spi_tx_char_read == USART_SPI_TX_BUFFER_LENGHT)
    3b48:	80 93 fc 03 	sts	0x03FC, r24	; 0x8003fc <usart_spi_tx_char_read>
    3b4c:	80 91 fc 03 	lds	r24, 0x03FC	; 0x8003fc <usart_spi_tx_char_read>
		{
			usart_spi_tx_char_read = 0;
    3b50:	80 34       	cpi	r24, 0x40	; 64
    3b52:	11 f4       	brne	.+4      	; 0x3b58 <__vector_24+0xb2>
		}

		//Alle Zeichen im Buffer gesendet?
		// --> Flag setzen
		if(usart_spi_tx_char_write == usart_spi_tx_char_read)
    3b54:	10 92 fc 03 	sts	0x03FC, r1	; 0x8003fc <usart_spi_tx_char_read>
    3b58:	90 91 fb 03 	lds	r25, 0x03FB	; 0x8003fb <usart_spi_tx_char_write>
    3b5c:	80 91 fc 03 	lds	r24, 0x03FC	; 0x8003fc <usart_spi_tx_char_read>
		{
			usart_spi_tx_buffer_empty = 1;
    3b60:	98 13       	cpse	r25, r24
    3b62:	04 c0       	rjmp	.+8      	; 0x3b6c <__vector_24+0xc6>
    3b64:	81 e0       	ldi	r24, 0x01	; 1
		}
        // --> nächstes zeichen senden
		else
		{
            USART_SPI_ToggleCS(1);
    3b66:	80 93 04 02 	sts	0x0204, r24	; 0x800204 <usart_spi_tx_buffer_empty>
    3b6a:	0e c0       	rjmp	.+28     	; 0x3b88 <__vector_24+0xe2>
			SPDR = usart_spi_tx_buffer[usart_spi_tx_char_read];
    3b6c:	81 e0       	ldi	r24, 0x01	; 1
    3b6e:	cf de       	rcall	.-610    	; 0x390e <USART_SPI_ToggleCS>
    3b70:	e0 91 fc 03 	lds	r30, 0x03FC	; 0x8003fc <usart_spi_tx_char_read>
    3b74:	f0 e0       	ldi	r31, 0x00	; 0
    3b76:	ef 58       	subi	r30, 0x8F	; 143
    3b78:	f9 4f       	sbci	r31, 0xF9	; 249
            usart_spi_byte_count++;
    3b7a:	80 81       	ld	r24, Z
    3b7c:	8e bd       	out	0x2e, r24	; 46
    3b7e:	80 91 f8 03 	lds	r24, 0x03F8	; 0x8003f8 <usart_spi_byte_count>
    3b82:	8f 5f       	subi	r24, 0xFF	; 255
//Wird ausgelöst wenn Byte gesendet wurde
ISR(SPI_STC_vect)
{
	if(usart_spi_rx_flag){_USART_SPI_RxBuffer();}	//edit Maxi	
	_USART_SPI_TxBuffer();	
}
    3b84:	80 93 f8 03 	sts	0x03F8, r24	; 0x8003f8 <usart_spi_byte_count>
    3b88:	ff 91       	pop	r31
    3b8a:	ef 91       	pop	r30
    3b8c:	bf 91       	pop	r27
    3b8e:	af 91       	pop	r26
    3b90:	9f 91       	pop	r25
    3b92:	8f 91       	pop	r24
    3b94:	7f 91       	pop	r23
    3b96:	6f 91       	pop	r22
    3b98:	5f 91       	pop	r21
    3b9a:	4f 91       	pop	r20
    3b9c:	3f 91       	pop	r19
    3b9e:	2f 91       	pop	r18
    3ba0:	0f 90       	pop	r0
    3ba2:	0b be       	out	0x3b, r0	; 59
    3ba4:	0f 90       	pop	r0
    3ba6:	0f be       	out	0x3f, r0	; 63
    3ba8:	0f 90       	pop	r0
    3baa:	1f 90       	pop	r1
    3bac:	18 95       	reti

00003bae <USART_SPI_TxByte>:
// -------------------------------------------------------------

#include <util/delay.h>

uint8_t USART_SPI_TxByte(char byte)
{	
    3bae:	38 2f       	mov	r19, r24
	//Abbruchbedingung für schreiben in tx_Buffer
	//Nur wenn Ring_Buffer vollgeschrieben ist (senden der Daten zu langsam)
	//Nur der fall, falls write und read counter gleich, aber schon Daten im Buffer
    if(usart_spi_tx_char_write == usart_spi_tx_char_read && !usart_spi_tx_buffer_empty) return 0;
    3bb0:	20 91 fb 03 	lds	r18, 0x03FB	; 0x8003fb <usart_spi_tx_char_write>
    3bb4:	90 91 fc 03 	lds	r25, 0x03FC	; 0x8003fc <usart_spi_tx_char_read>
    3bb8:	29 13       	cpse	r18, r25
    3bba:	04 c0       	rjmp	.+8      	; 0x3bc4 <USART_SPI_TxByte+0x16>
    3bbc:	80 91 04 02 	lds	r24, 0x0204	; 0x800204 <usart_spi_tx_buffer_empty>
    3bc0:	88 23       	and	r24, r24
    3bc2:	61 f1       	breq	.+88     	; 0x3c1c <USART_SPI_TxByte+0x6e>

	//Byte in Buffer legen
	usart_spi_tx_buffer[usart_spi_tx_char_write] = byte;
    3bc4:	e0 91 fb 03 	lds	r30, 0x03FB	; 0x8003fb <usart_spi_tx_char_write>
    3bc8:	f0 e0       	ldi	r31, 0x00	; 0
    3bca:	ef 58       	subi	r30, 0x8F	; 143
    3bcc:	f9 4f       	sbci	r31, 0xF9	; 249
    3bce:	30 83       	st	Z, r19

#if (USART_SPI_USE_TX_INTERRUPT)
	SPCR &= ~_BV(SPIE);						//TX Interrupt aus
    3bd0:	8c b5       	in	r24, 0x2c	; 44
    3bd2:	8f 77       	andi	r24, 0x7F	; 127
    3bd4:	8c bd       	out	0x2c, r24	; 44
#endif

	//Buffer-Counter hochzählen
	usart_spi_tx_char_write++;
    3bd6:	80 91 fb 03 	lds	r24, 0x03FB	; 0x8003fb <usart_spi_tx_char_write>
    3bda:	8f 5f       	subi	r24, 0xFF	; 255
    3bdc:	80 93 fb 03 	sts	0x03FB, r24	; 0x8003fb <usart_spi_tx_char_write>
	
    //Ring-Buffer überlauf prüfen
    if(usart_spi_tx_char_write == USART_SPI_TX_BUFFER_LENGHT)
    3be0:	80 91 fb 03 	lds	r24, 0x03FB	; 0x8003fb <usart_spi_tx_char_write>
    3be4:	80 34       	cpi	r24, 0x40	; 64
    3be6:	11 f4       	brne	.+4      	; 0x3bec <USART_SPI_TxByte+0x3e>
	{
		usart_spi_tx_char_write = 0;
    3be8:	10 92 fb 03 	sts	0x03FB, r1	; 0x8003fb <usart_spi_tx_char_write>
	}

	
	//Neue Übertragung starten (würd nur für erste Byte ausgelöst, alle andern über Interrupt)
    if(usart_spi_tx_buffer_empty)
    3bec:	80 91 04 02 	lds	r24, 0x0204	; 0x800204 <usart_spi_tx_buffer_empty>
    3bf0:	88 23       	and	r24, r24
    3bf2:	81 f0       	breq	.+32     	; 0x3c14 <USART_SPI_TxByte+0x66>
	{
		//CS low setzen
        USART_SPI_ToggleCS(1);
    3bf4:	81 e0       	ldi	r24, 0x01	; 1
    3bf6:	8b de       	rcall	.-746    	; 0x390e <USART_SPI_ToggleCS>

		//Senden
		SPDR = usart_spi_tx_buffer[usart_spi_tx_char_read];		//sende erstes Zeichen
    3bf8:	e0 91 fc 03 	lds	r30, 0x03FC	; 0x8003fc <usart_spi_tx_char_read>
    3bfc:	f0 e0       	ldi	r31, 0x00	; 0
    3bfe:	ef 58       	subi	r30, 0x8F	; 143
    3c00:	f9 4f       	sbci	r31, 0xF9	; 249
    3c02:	80 81       	ld	r24, Z
    3c04:	8e bd       	out	0x2e, r24	; 46

        usart_spi_byte_count++;
    3c06:	80 91 f8 03 	lds	r24, 0x03F8	; 0x8003f8 <usart_spi_byte_count>
    3c0a:	8f 5f       	subi	r24, 0xFF	; 255
    3c0c:	80 93 f8 03 	sts	0x03F8, r24	; 0x8003f8 <usart_spi_byte_count>
		
		//Flag das aktuell gesendet wird
		usart_spi_tx_buffer_empty = 0;
    3c10:	10 92 04 02 	sts	0x0204, r1	; 0x800204 <usart_spi_tx_buffer_empty>
	}
	
#if (USART_SPI_USE_TX_INTERRUPT)
	SPCR |= _BV(SPIE);		//TX ISR aktivieren
    3c14:	8c b5       	in	r24, 0x2c	; 44
    3c16:	80 68       	ori	r24, 0x80	; 128
    3c18:	8c bd       	out	0x2c, r24	; 44
#endif

	return 1;
    3c1a:	81 e0       	ldi	r24, 0x01	; 1
}
    3c1c:	08 95       	ret

00003c1e <USART_SPI_TxBytes>:

void USART_SPI_TxBytes(char *pointer, uint8_t len)
{
    3c1e:	1f 93       	push	r17
    3c20:	cf 93       	push	r28
    3c22:	df 93       	push	r29
    3c24:	ec 01       	movw	r28, r24
    3c26:	16 2f       	mov	r17, r22
	while(len)
    3c28:	66 23       	and	r22, r22
    3c2a:	39 f0       	breq	.+14     	; 0x3c3a <USART_SPI_TxBytes+0x1c>
	{
		//Warten falls Buffer schon Vollgeschreiben ist
		while(!USART_SPI_TxByte(*pointer)){}
    3c2c:	88 81       	ld	r24, Y
    3c2e:	bf df       	rcall	.-130    	; 0x3bae <USART_SPI_TxByte>
    3c30:	88 23       	and	r24, r24
    3c32:	e1 f3       	breq	.-8      	; 0x3c2c <USART_SPI_TxBytes+0xe>
		pointer++;
    3c34:	21 96       	adiw	r28, 0x01	; 1
		len--;
    3c36:	11 50       	subi	r17, 0x01	; 1
	return 1;
}

void USART_SPI_TxBytes(char *pointer, uint8_t len)
{
	while(len)
    3c38:	c9 f7       	brne	.-14     	; 0x3c2c <USART_SPI_TxBytes+0xe>
		//Warten falls Buffer schon Vollgeschreiben ist
		while(!USART_SPI_TxByte(*pointer)){}
		pointer++;
		len--;
	}
}
    3c3a:	df 91       	pop	r29
    3c3c:	cf 91       	pop	r28
    3c3e:	1f 91       	pop	r17
    3c40:	08 95       	ret

00003c42 <USART_SPI_RxBytes>:
//Edit: Maxi 21.11.2018
void USART_SPI_RxBytes(char *pointer, uint8_t length)
{

	//Flag setzen, das auch gelesen werden soll
	usart_spi_rx_flag = 1;
    3c42:	21 e0       	ldi	r18, 0x01	; 1
    3c44:	20 93 fd 03 	sts	0x03FD, r18	; 0x8003fd <usart_spi_rx_flag>
	
	//Alle Bytes in Buffer legen, gesendet wird durch Interrupt
	USART_SPI_TxBytes(pointer, length);
    3c48:	ea cf       	rjmp	.-44     	; 0x3c1e <USART_SPI_TxBytes>
    3c4a:	08 95       	ret

00003c4c <__udivmodhi4>:
    3c4c:	aa 1b       	sub	r26, r26
    3c4e:	bb 1b       	sub	r27, r27
    3c50:	51 e1       	ldi	r21, 0x11	; 17
    3c52:	07 c0       	rjmp	.+14     	; 0x3c62 <__udivmodhi4_ep>

00003c54 <__udivmodhi4_loop>:
    3c54:	aa 1f       	adc	r26, r26
    3c56:	bb 1f       	adc	r27, r27
    3c58:	a6 17       	cp	r26, r22
    3c5a:	b7 07       	cpc	r27, r23
    3c5c:	10 f0       	brcs	.+4      	; 0x3c62 <__udivmodhi4_ep>
    3c5e:	a6 1b       	sub	r26, r22
    3c60:	b7 0b       	sbc	r27, r23

00003c62 <__udivmodhi4_ep>:
    3c62:	88 1f       	adc	r24, r24
    3c64:	99 1f       	adc	r25, r25
    3c66:	5a 95       	dec	r21
    3c68:	a9 f7       	brne	.-22     	; 0x3c54 <__udivmodhi4_loop>
    3c6a:	80 95       	com	r24
    3c6c:	90 95       	com	r25
    3c6e:	bc 01       	movw	r22, r24
    3c70:	cd 01       	movw	r24, r26
    3c72:	08 95       	ret

00003c74 <__udivmodsi4>:
    3c74:	a1 e2       	ldi	r26, 0x21	; 33
    3c76:	1a 2e       	mov	r1, r26
    3c78:	aa 1b       	sub	r26, r26
    3c7a:	bb 1b       	sub	r27, r27
    3c7c:	fd 01       	movw	r30, r26
    3c7e:	0d c0       	rjmp	.+26     	; 0x3c9a <__udivmodsi4_ep>

00003c80 <__udivmodsi4_loop>:
    3c80:	aa 1f       	adc	r26, r26
    3c82:	bb 1f       	adc	r27, r27
    3c84:	ee 1f       	adc	r30, r30
    3c86:	ff 1f       	adc	r31, r31
    3c88:	a2 17       	cp	r26, r18
    3c8a:	b3 07       	cpc	r27, r19
    3c8c:	e4 07       	cpc	r30, r20
    3c8e:	f5 07       	cpc	r31, r21
    3c90:	20 f0       	brcs	.+8      	; 0x3c9a <__udivmodsi4_ep>
    3c92:	a2 1b       	sub	r26, r18
    3c94:	b3 0b       	sbc	r27, r19
    3c96:	e4 0b       	sbc	r30, r20
    3c98:	f5 0b       	sbc	r31, r21

00003c9a <__udivmodsi4_ep>:
    3c9a:	66 1f       	adc	r22, r22
    3c9c:	77 1f       	adc	r23, r23
    3c9e:	88 1f       	adc	r24, r24
    3ca0:	99 1f       	adc	r25, r25
    3ca2:	1a 94       	dec	r1
    3ca4:	69 f7       	brne	.-38     	; 0x3c80 <__udivmodsi4_loop>
    3ca6:	60 95       	com	r22
    3ca8:	70 95       	com	r23
    3caa:	80 95       	com	r24
    3cac:	90 95       	com	r25
    3cae:	9b 01       	movw	r18, r22
    3cb0:	ac 01       	movw	r20, r24
    3cb2:	bd 01       	movw	r22, r26
    3cb4:	cf 01       	movw	r24, r30
    3cb6:	08 95       	ret

00003cb8 <__divmodsi4>:
    3cb8:	05 2e       	mov	r0, r21
    3cba:	97 fb       	bst	r25, 7
    3cbc:	16 f4       	brtc	.+4      	; 0x3cc2 <__divmodsi4+0xa>
    3cbe:	00 94       	com	r0
    3cc0:	0f d0       	rcall	.+30     	; 0x3ce0 <__negsi2>
    3cc2:	57 fd       	sbrc	r21, 7
    3cc4:	05 d0       	rcall	.+10     	; 0x3cd0 <__divmodsi4_neg2>
    3cc6:	d6 df       	rcall	.-84     	; 0x3c74 <__udivmodsi4>
    3cc8:	07 fc       	sbrc	r0, 7
    3cca:	02 d0       	rcall	.+4      	; 0x3cd0 <__divmodsi4_neg2>
    3ccc:	46 f4       	brtc	.+16     	; 0x3cde <__divmodsi4_exit>
    3cce:	08 c0       	rjmp	.+16     	; 0x3ce0 <__negsi2>

00003cd0 <__divmodsi4_neg2>:
    3cd0:	50 95       	com	r21
    3cd2:	40 95       	com	r20
    3cd4:	30 95       	com	r19
    3cd6:	21 95       	neg	r18
    3cd8:	3f 4f       	sbci	r19, 0xFF	; 255
    3cda:	4f 4f       	sbci	r20, 0xFF	; 255
    3cdc:	5f 4f       	sbci	r21, 0xFF	; 255

00003cde <__divmodsi4_exit>:
    3cde:	08 95       	ret

00003ce0 <__negsi2>:
    3ce0:	90 95       	com	r25
    3ce2:	80 95       	com	r24
    3ce4:	70 95       	com	r23
    3ce6:	61 95       	neg	r22
    3ce8:	7f 4f       	sbci	r23, 0xFF	; 255
    3cea:	8f 4f       	sbci	r24, 0xFF	; 255
    3cec:	9f 4f       	sbci	r25, 0xFF	; 255
    3cee:	08 95       	ret

00003cf0 <__tablejump2__>:
    3cf0:	ee 0f       	add	r30, r30
    3cf2:	ff 1f       	adc	r31, r31
    3cf4:	88 1f       	adc	r24, r24
    3cf6:	8b bf       	out	0x3b, r24	; 59
    3cf8:	07 90       	elpm	r0, Z+
    3cfa:	f6 91       	elpm	r31, Z
    3cfc:	e0 2d       	mov	r30, r0
    3cfe:	19 94       	eijmp

00003d00 <__umulhisi3>:
    3d00:	a2 9f       	mul	r26, r18
    3d02:	b0 01       	movw	r22, r0
    3d04:	b3 9f       	mul	r27, r19
    3d06:	c0 01       	movw	r24, r0
    3d08:	a3 9f       	mul	r26, r19
    3d0a:	70 0d       	add	r23, r0
    3d0c:	81 1d       	adc	r24, r1
    3d0e:	11 24       	eor	r1, r1
    3d10:	91 1d       	adc	r25, r1
    3d12:	b2 9f       	mul	r27, r18
    3d14:	70 0d       	add	r23, r0
    3d16:	81 1d       	adc	r24, r1
    3d18:	11 24       	eor	r1, r1
    3d1a:	91 1d       	adc	r25, r1
    3d1c:	08 95       	ret

00003d1e <__usmulhisi3>:
    3d1e:	f0 df       	rcall	.-32     	; 0x3d00 <__umulhisi3>

00003d20 <__usmulhisi3_tail>:
    3d20:	b7 ff       	sbrs	r27, 7
    3d22:	08 95       	ret
    3d24:	82 1b       	sub	r24, r18
    3d26:	93 0b       	sbc	r25, r19
    3d28:	08 95       	ret

00003d2a <__muluhisi3>:
    3d2a:	ea df       	rcall	.-44     	; 0x3d00 <__umulhisi3>
    3d2c:	a5 9f       	mul	r26, r21
    3d2e:	90 0d       	add	r25, r0
    3d30:	b4 9f       	mul	r27, r20
    3d32:	90 0d       	add	r25, r0
    3d34:	a4 9f       	mul	r26, r20
    3d36:	80 0d       	add	r24, r0
    3d38:	91 1d       	adc	r25, r1
    3d3a:	11 24       	eor	r1, r1
    3d3c:	08 95       	ret

00003d3e <strcat>:
    3d3e:	fb 01       	movw	r30, r22
    3d40:	dc 01       	movw	r26, r24
    3d42:	0d 90       	ld	r0, X+
    3d44:	00 20       	and	r0, r0
    3d46:	e9 f7       	brne	.-6      	; 0x3d42 <strcat+0x4>
    3d48:	11 97       	sbiw	r26, 0x01	; 1
    3d4a:	01 90       	ld	r0, Z+
    3d4c:	0d 92       	st	X+, r0
    3d4e:	00 20       	and	r0, r0
    3d50:	e1 f7       	brne	.-8      	; 0x3d4a <strcat+0xc>
    3d52:	08 95       	ret

00003d54 <strcpy>:
    3d54:	fb 01       	movw	r30, r22
    3d56:	dc 01       	movw	r26, r24
    3d58:	01 90       	ld	r0, Z+
    3d5a:	0d 92       	st	X+, r0
    3d5c:	00 20       	and	r0, r0
    3d5e:	e1 f7       	brne	.-8      	; 0x3d58 <strcpy+0x4>
    3d60:	08 95       	ret

00003d62 <__itoa_ncheck>:
    3d62:	bb 27       	eor	r27, r27
    3d64:	4a 30       	cpi	r20, 0x0A	; 10
    3d66:	31 f4       	brne	.+12     	; 0x3d74 <__itoa_ncheck+0x12>
    3d68:	99 23       	and	r25, r25
    3d6a:	22 f4       	brpl	.+8      	; 0x3d74 <__itoa_ncheck+0x12>
    3d6c:	bd e2       	ldi	r27, 0x2D	; 45
    3d6e:	90 95       	com	r25
    3d70:	81 95       	neg	r24
    3d72:	9f 4f       	sbci	r25, 0xFF	; 255
    3d74:	30 c0       	rjmp	.+96     	; 0x3dd6 <__utoa_common>

00003d76 <__ltoa_ncheck>:
    3d76:	bb 27       	eor	r27, r27
    3d78:	2a 30       	cpi	r18, 0x0A	; 10
    3d7a:	51 f4       	brne	.+20     	; 0x3d90 <__ltoa_ncheck+0x1a>
    3d7c:	99 23       	and	r25, r25
    3d7e:	42 f4       	brpl	.+16     	; 0x3d90 <__ltoa_ncheck+0x1a>
    3d80:	bd e2       	ldi	r27, 0x2D	; 45
    3d82:	90 95       	com	r25
    3d84:	80 95       	com	r24
    3d86:	70 95       	com	r23
    3d88:	61 95       	neg	r22
    3d8a:	7f 4f       	sbci	r23, 0xFF	; 255
    3d8c:	8f 4f       	sbci	r24, 0xFF	; 255
    3d8e:	9f 4f       	sbci	r25, 0xFF	; 255
    3d90:	01 c0       	rjmp	.+2      	; 0x3d94 <__ultoa_common>

00003d92 <__ultoa_ncheck>:
    3d92:	bb 27       	eor	r27, r27

00003d94 <__ultoa_common>:
    3d94:	fa 01       	movw	r30, r20
    3d96:	a6 2f       	mov	r26, r22
    3d98:	62 17       	cp	r22, r18
    3d9a:	71 05       	cpc	r23, r1
    3d9c:	81 05       	cpc	r24, r1
    3d9e:	91 05       	cpc	r25, r1
    3da0:	33 0b       	sbc	r19, r19
    3da2:	30 fb       	bst	r19, 0
    3da4:	66 f0       	brts	.+24     	; 0x3dbe <__ultoa_common+0x2a>
    3da6:	aa 27       	eor	r26, r26
    3da8:	66 0f       	add	r22, r22
    3daa:	77 1f       	adc	r23, r23
    3dac:	88 1f       	adc	r24, r24
    3dae:	99 1f       	adc	r25, r25
    3db0:	aa 1f       	adc	r26, r26
    3db2:	a2 17       	cp	r26, r18
    3db4:	10 f0       	brcs	.+4      	; 0x3dba <__ultoa_common+0x26>
    3db6:	a2 1b       	sub	r26, r18
    3db8:	63 95       	inc	r22
    3dba:	38 50       	subi	r19, 0x08	; 8
    3dbc:	a9 f7       	brne	.-22     	; 0x3da8 <__ultoa_common+0x14>
    3dbe:	a0 5d       	subi	r26, 0xD0	; 208
    3dc0:	aa 33       	cpi	r26, 0x3A	; 58
    3dc2:	08 f0       	brcs	.+2      	; 0x3dc6 <__ultoa_common+0x32>
    3dc4:	a9 5d       	subi	r26, 0xD9	; 217
    3dc6:	a1 93       	st	Z+, r26
    3dc8:	36 f7       	brtc	.-52     	; 0x3d96 <__ultoa_common+0x2>
    3dca:	b1 11       	cpse	r27, r1
    3dcc:	b1 93       	st	Z+, r27
    3dce:	10 82       	st	Z, r1
    3dd0:	ca 01       	movw	r24, r20
    3dd2:	19 c0       	rjmp	.+50     	; 0x3e06 <strrev>

00003dd4 <__utoa_ncheck>:
    3dd4:	bb 27       	eor	r27, r27

00003dd6 <__utoa_common>:
    3dd6:	fb 01       	movw	r30, r22
    3dd8:	55 27       	eor	r21, r21
    3dda:	aa 27       	eor	r26, r26
    3ddc:	88 0f       	add	r24, r24
    3dde:	99 1f       	adc	r25, r25
    3de0:	aa 1f       	adc	r26, r26
    3de2:	a4 17       	cp	r26, r20
    3de4:	10 f0       	brcs	.+4      	; 0x3dea <__utoa_common+0x14>
    3de6:	a4 1b       	sub	r26, r20
    3de8:	83 95       	inc	r24
    3dea:	50 51       	subi	r21, 0x10	; 16
    3dec:	b9 f7       	brne	.-18     	; 0x3ddc <__utoa_common+0x6>
    3dee:	a0 5d       	subi	r26, 0xD0	; 208
    3df0:	aa 33       	cpi	r26, 0x3A	; 58
    3df2:	08 f0       	brcs	.+2      	; 0x3df6 <__utoa_common+0x20>
    3df4:	a9 5d       	subi	r26, 0xD9	; 217
    3df6:	a1 93       	st	Z+, r26
    3df8:	00 97       	sbiw	r24, 0x00	; 0
    3dfa:	79 f7       	brne	.-34     	; 0x3dda <__utoa_common+0x4>
    3dfc:	b1 11       	cpse	r27, r1
    3dfe:	b1 93       	st	Z+, r27
    3e00:	11 92       	st	Z+, r1
    3e02:	cb 01       	movw	r24, r22
    3e04:	00 c0       	rjmp	.+0      	; 0x3e06 <strrev>

00003e06 <strrev>:
    3e06:	dc 01       	movw	r26, r24
    3e08:	fc 01       	movw	r30, r24
    3e0a:	67 2f       	mov	r22, r23
    3e0c:	71 91       	ld	r23, Z+
    3e0e:	77 23       	and	r23, r23
    3e10:	e1 f7       	brne	.-8      	; 0x3e0a <strrev+0x4>
    3e12:	32 97       	sbiw	r30, 0x02	; 2
    3e14:	04 c0       	rjmp	.+8      	; 0x3e1e <strrev+0x18>
    3e16:	7c 91       	ld	r23, X
    3e18:	6d 93       	st	X+, r22
    3e1a:	70 83       	st	Z, r23
    3e1c:	62 91       	ld	r22, -Z
    3e1e:	ae 17       	cp	r26, r30
    3e20:	bf 07       	cpc	r27, r31
    3e22:	c8 f3       	brcs	.-14     	; 0x3e16 <strrev+0x10>
    3e24:	08 95       	ret

00003e26 <eeprom_read_block>:
    3e26:	dc 01       	movw	r26, r24
    3e28:	cb 01       	movw	r24, r22

00003e2a <eeprom_read_blraw>:
    3e2a:	fc 01       	movw	r30, r24
    3e2c:	f9 99       	sbic	0x1f, 1	; 31
    3e2e:	fe cf       	rjmp	.-4      	; 0x3e2c <eeprom_read_blraw+0x2>
    3e30:	06 c0       	rjmp	.+12     	; 0x3e3e <eeprom_read_blraw+0x14>
    3e32:	f2 bd       	out	0x22, r31	; 34
    3e34:	e1 bd       	out	0x21, r30	; 33
    3e36:	f8 9a       	sbi	0x1f, 0	; 31
    3e38:	31 96       	adiw	r30, 0x01	; 1
    3e3a:	00 b4       	in	r0, 0x20	; 32
    3e3c:	0d 92       	st	X+, r0
    3e3e:	41 50       	subi	r20, 0x01	; 1
    3e40:	50 40       	sbci	r21, 0x00	; 0
    3e42:	b8 f7       	brcc	.-18     	; 0x3e32 <eeprom_read_blraw+0x8>
    3e44:	08 95       	ret

00003e46 <eeprom_read_byte>:
    3e46:	f9 99       	sbic	0x1f, 1	; 31
    3e48:	fe cf       	rjmp	.-4      	; 0x3e46 <eeprom_read_byte>
    3e4a:	92 bd       	out	0x22, r25	; 34
    3e4c:	81 bd       	out	0x21, r24	; 33
    3e4e:	f8 9a       	sbi	0x1f, 0	; 31
    3e50:	99 27       	eor	r25, r25
    3e52:	80 b5       	in	r24, 0x20	; 32
    3e54:	08 95       	ret

00003e56 <eeprom_read_dword>:
    3e56:	a6 e1       	ldi	r26, 0x16	; 22
    3e58:	b0 e0       	ldi	r27, 0x00	; 0
    3e5a:	44 e0       	ldi	r20, 0x04	; 4
    3e5c:	50 e0       	ldi	r21, 0x00	; 0
    3e5e:	e5 cf       	rjmp	.-54     	; 0x3e2a <eeprom_read_blraw>

00003e60 <eeprom_read_word>:
    3e60:	a8 e1       	ldi	r26, 0x18	; 24
    3e62:	b0 e0       	ldi	r27, 0x00	; 0
    3e64:	42 e0       	ldi	r20, 0x02	; 2
    3e66:	50 e0       	ldi	r21, 0x00	; 0
    3e68:	e0 cf       	rjmp	.-64     	; 0x3e2a <eeprom_read_blraw>

00003e6a <eeprom_write_block>:
    3e6a:	dc 01       	movw	r26, r24
    3e6c:	cb 01       	movw	r24, r22
    3e6e:	02 c0       	rjmp	.+4      	; 0x3e74 <eeprom_write_block+0xa>
    3e70:	2d 91       	ld	r18, X+
    3e72:	05 d0       	rcall	.+10     	; 0x3e7e <eeprom_write_r18>
    3e74:	41 50       	subi	r20, 0x01	; 1
    3e76:	50 40       	sbci	r21, 0x00	; 0
    3e78:	d8 f7       	brcc	.-10     	; 0x3e70 <eeprom_write_block+0x6>
    3e7a:	08 95       	ret

00003e7c <eeprom_write_byte>:
    3e7c:	26 2f       	mov	r18, r22

00003e7e <eeprom_write_r18>:
    3e7e:	f9 99       	sbic	0x1f, 1	; 31
    3e80:	fe cf       	rjmp	.-4      	; 0x3e7e <eeprom_write_r18>
    3e82:	1f ba       	out	0x1f, r1	; 31
    3e84:	92 bd       	out	0x22, r25	; 34
    3e86:	81 bd       	out	0x21, r24	; 33
    3e88:	20 bd       	out	0x20, r18	; 32
    3e8a:	0f b6       	in	r0, 0x3f	; 63
    3e8c:	f8 94       	cli
    3e8e:	fa 9a       	sbi	0x1f, 2	; 31
    3e90:	f9 9a       	sbi	0x1f, 1	; 31
    3e92:	0f be       	out	0x3f, r0	; 63
    3e94:	01 96       	adiw	r24, 0x01	; 1
    3e96:	08 95       	ret

00003e98 <eeprom_write_dword>:
    3e98:	24 2f       	mov	r18, r20
    3e9a:	f1 df       	rcall	.-30     	; 0x3e7e <eeprom_write_r18>
    3e9c:	25 2f       	mov	r18, r21
    3e9e:	ef df       	rcall	.-34     	; 0x3e7e <eeprom_write_r18>
    3ea0:	00 c0       	rjmp	.+0      	; 0x3ea2 <eeprom_write_word>

00003ea2 <eeprom_write_word>:
    3ea2:	ec df       	rcall	.-40     	; 0x3e7c <eeprom_write_byte>
    3ea4:	27 2f       	mov	r18, r23
    3ea6:	eb cf       	rjmp	.-42     	; 0x3e7e <eeprom_write_r18>

00003ea8 <_exit>:
    3ea8:	f8 94       	cli

00003eaa <__stop_program>:
    3eaa:	ff cf       	rjmp	.-2      	; 0x3eaa <__stop_program>
