
MC_RthTEC_V0_0_5.elf:     file format elf32-avr

Sections:
Idx Name          Size      VMA       LMA       File off  Algn
  0 .data         000001ee  00800200  000046d4  00004788  2**0
                  CONTENTS, ALLOC, LOAD, DATA
  1 .text         000046d4  00000000  00000000  000000b4  2**1
                  CONTENTS, ALLOC, LOAD, READONLY, CODE
  2 .bss          0000034c  008003ee  008003ee  00004976  2**0
                  ALLOC
  3 .eeprom       00000047  00810000  00810000  00004976  2**0
                  CONTENTS, ALLOC, LOAD, DATA
  4 .comment      00000030  00000000  00000000  000049bd  2**0
                  CONTENTS, READONLY
  5 .note.gnu.avr.deviceinfo 00000040  00000000  00000000  000049f0  2**2
                  CONTENTS, READONLY
  6 .debug_aranges 000005b0  00000000  00000000  00004a30  2**0
                  CONTENTS, READONLY, DEBUGGING
  7 .debug_info   00009818  00000000  00000000  00004fe0  2**0
                  CONTENTS, READONLY, DEBUGGING
  8 .debug_abbrev 0000246e  00000000  00000000  0000e7f8  2**0
                  CONTENTS, READONLY, DEBUGGING
  9 .debug_line   00004800  00000000  00000000  00010c66  2**0
                  CONTENTS, READONLY, DEBUGGING
 10 .debug_frame  00001244  00000000  00000000  00015468  2**2
                  CONTENTS, READONLY, DEBUGGING
 11 .debug_str    00001a59  00000000  00000000  000166ac  2**0
                  CONTENTS, READONLY, DEBUGGING
 12 .debug_loc    00006015  00000000  00000000  00018105  2**0
                  CONTENTS, READONLY, DEBUGGING
 13 .debug_ranges 00000510  00000000  00000000  0001e11a  2**0
                  CONTENTS, READONLY, DEBUGGING

Disassembly of section .text:

00000000 <__vectors>:
       0:	7b c0       	rjmp	.+246    	; 0xf8 <__ctors_end>
       2:	00 00       	nop
       4:	9a c0       	rjmp	.+308    	; 0x13a <__bad_interrupt>
       6:	00 00       	nop
       8:	98 c0       	rjmp	.+304    	; 0x13a <__bad_interrupt>
       a:	00 00       	nop
       c:	96 c0       	rjmp	.+300    	; 0x13a <__bad_interrupt>
       e:	00 00       	nop
      10:	94 c0       	rjmp	.+296    	; 0x13a <__bad_interrupt>
      12:	00 00       	nop
      14:	92 c0       	rjmp	.+292    	; 0x13a <__bad_interrupt>
      16:	00 00       	nop
      18:	90 c0       	rjmp	.+288    	; 0x13a <__bad_interrupt>
      1a:	00 00       	nop
      1c:	8e c0       	rjmp	.+284    	; 0x13a <__bad_interrupt>
      1e:	00 00       	nop
      20:	8c c0       	rjmp	.+280    	; 0x13a <__bad_interrupt>
      22:	00 00       	nop
      24:	8a c0       	rjmp	.+276    	; 0x13a <__bad_interrupt>
      26:	00 00       	nop
      28:	88 c0       	rjmp	.+272    	; 0x13a <__bad_interrupt>
      2a:	00 00       	nop
      2c:	86 c0       	rjmp	.+268    	; 0x13a <__bad_interrupt>
      2e:	00 00       	nop
      30:	84 c0       	rjmp	.+264    	; 0x13a <__bad_interrupt>
      32:	00 00       	nop
      34:	0c 94 04 15 	jmp	0x2a08	; 0x2a08 <__vector_13>
      38:	80 c0       	rjmp	.+256    	; 0x13a <__bad_interrupt>
      3a:	00 00       	nop
      3c:	7e c0       	rjmp	.+252    	; 0x13a <__bad_interrupt>
      3e:	00 00       	nop
      40:	7c c0       	rjmp	.+248    	; 0x13a <__bad_interrupt>
      42:	00 00       	nop
      44:	7a c0       	rjmp	.+244    	; 0x13a <__bad_interrupt>
      46:	00 00       	nop
      48:	78 c0       	rjmp	.+240    	; 0x13a <__bad_interrupt>
      4a:	00 00       	nop
      4c:	76 c0       	rjmp	.+236    	; 0x13a <__bad_interrupt>
      4e:	00 00       	nop
      50:	74 c0       	rjmp	.+232    	; 0x13a <__bad_interrupt>
      52:	00 00       	nop
      54:	72 c0       	rjmp	.+228    	; 0x13a <__bad_interrupt>
      56:	00 00       	nop
      58:	70 c0       	rjmp	.+224    	; 0x13a <__bad_interrupt>
      5a:	00 00       	nop
      5c:	6e c0       	rjmp	.+220    	; 0x13a <__bad_interrupt>
      5e:	00 00       	nop
      60:	0c 94 1a 21 	jmp	0x4234	; 0x4234 <__vector_24>
      64:	0c 94 9d 1e 	jmp	0x3d3a	; 0x3d3a <__vector_25>
      68:	68 c0       	rjmp	.+208    	; 0x13a <__bad_interrupt>
      6a:	00 00       	nop
      6c:	0c 94 f1 1e 	jmp	0x3de2	; 0x3de2 <__vector_27>
      70:	64 c0       	rjmp	.+200    	; 0x13a <__bad_interrupt>
      72:	00 00       	nop
      74:	62 c0       	rjmp	.+196    	; 0x13a <__bad_interrupt>
      76:	00 00       	nop
      78:	60 c0       	rjmp	.+192    	; 0x13a <__bad_interrupt>
      7a:	00 00       	nop
      7c:	5e c0       	rjmp	.+188    	; 0x13a <__bad_interrupt>
      7e:	00 00       	nop
      80:	5c c0       	rjmp	.+184    	; 0x13a <__bad_interrupt>
      82:	00 00       	nop
      84:	5a c0       	rjmp	.+180    	; 0x13a <__bad_interrupt>
      86:	00 00       	nop
      88:	58 c0       	rjmp	.+176    	; 0x13a <__bad_interrupt>
      8a:	00 00       	nop
      8c:	56 c0       	rjmp	.+172    	; 0x13a <__bad_interrupt>
      8e:	00 00       	nop
      90:	54 c0       	rjmp	.+168    	; 0x13a <__bad_interrupt>
      92:	00 00       	nop
      94:	52 c0       	rjmp	.+164    	; 0x13a <__bad_interrupt>
      96:	00 00       	nop
      98:	50 c0       	rjmp	.+160    	; 0x13a <__bad_interrupt>
      9a:	00 00       	nop
      9c:	4e c0       	rjmp	.+156    	; 0x13a <__bad_interrupt>
      9e:	00 00       	nop
      a0:	4c c0       	rjmp	.+152    	; 0x13a <__bad_interrupt>
      a2:	00 00       	nop
      a4:	4a c0       	rjmp	.+148    	; 0x13a <__bad_interrupt>
      a6:	00 00       	nop
      a8:	48 c0       	rjmp	.+144    	; 0x13a <__bad_interrupt>
      aa:	00 00       	nop
      ac:	46 c0       	rjmp	.+140    	; 0x13a <__bad_interrupt>
      ae:	00 00       	nop
      b0:	44 c0       	rjmp	.+136    	; 0x13a <__bad_interrupt>
      b2:	00 00       	nop
      b4:	42 c0       	rjmp	.+132    	; 0x13a <__bad_interrupt>
      b6:	00 00       	nop
      b8:	40 c0       	rjmp	.+128    	; 0x13a <__bad_interrupt>
      ba:	00 00       	nop
      bc:	0c 94 d0 16 	jmp	0x2da0	; 0x2da0 <__vector_47>
      c0:	0c 94 fe 16 	jmp	0x2dfc	; 0x2dfc <__vector_48>
      c4:	0c 94 80 17 	jmp	0x2f00	; 0x2f00 <__vector_49>
      c8:	0c 94 58 16 	jmp	0x2cb0	; 0x2cb0 <__vector_50>
      cc:	0c 94 c8 20 	jmp	0x4190	; 0x4190 <__vector_51>
      d0:	34 c0       	rjmp	.+104    	; 0x13a <__bad_interrupt>
      d2:	00 00       	nop
      d4:	32 c0       	rjmp	.+100    	; 0x13a <__bad_interrupt>
      d6:	00 00       	nop
      d8:	30 c0       	rjmp	.+96     	; 0x13a <__bad_interrupt>
      da:	00 00       	nop
      dc:	2e c0       	rjmp	.+92     	; 0x13a <__bad_interrupt>
      de:	00 00       	nop
      e0:	2c c0       	rjmp	.+88     	; 0x13a <__bad_interrupt>
      e2:	00 00       	nop
      e4:	a6 0e       	add	r10, r22
      e6:	92 0e       	add	r9, r18
      e8:	94 0e       	add	r9, r20
      ea:	96 0e       	add	r9, r22
      ec:	98 0e       	add	r9, r24
      ee:	9a 0e       	add	r9, r26
      f0:	9c 0e       	add	r9, r28
      f2:	9e 0e       	add	r9, r30
      f4:	a0 0e       	add	r10, r16
      f6:	a2 0e       	add	r10, r18

000000f8 <__ctors_end>:
      f8:	11 24       	eor	r1, r1
      fa:	1f be       	out	0x3f, r1	; 63
      fc:	cf ef       	ldi	r28, 0xFF	; 255
      fe:	d1 e2       	ldi	r29, 0x21	; 33
     100:	de bf       	out	0x3e, r29	; 62
     102:	cd bf       	out	0x3d, r28	; 61
     104:	00 e0       	ldi	r16, 0x00	; 0
     106:	0c bf       	out	0x3c, r16	; 60

00000108 <__do_copy_data>:
     108:	13 e0       	ldi	r17, 0x03	; 3
     10a:	a0 e0       	ldi	r26, 0x00	; 0
     10c:	b2 e0       	ldi	r27, 0x02	; 2
     10e:	e4 ed       	ldi	r30, 0xD4	; 212
     110:	f6 e4       	ldi	r31, 0x46	; 70
     112:	00 e0       	ldi	r16, 0x00	; 0
     114:	0b bf       	out	0x3b, r16	; 59
     116:	02 c0       	rjmp	.+4      	; 0x11c <__do_copy_data+0x14>
     118:	07 90       	elpm	r0, Z+
     11a:	0d 92       	st	X+, r0
     11c:	ae 3e       	cpi	r26, 0xEE	; 238
     11e:	b1 07       	cpc	r27, r17
     120:	d9 f7       	brne	.-10     	; 0x118 <__do_copy_data+0x10>

00000122 <__do_clear_bss>:
     122:	27 e0       	ldi	r18, 0x07	; 7
     124:	ae ee       	ldi	r26, 0xEE	; 238
     126:	b3 e0       	ldi	r27, 0x03	; 3
     128:	01 c0       	rjmp	.+2      	; 0x12c <.do_clear_bss_start>

0000012a <.do_clear_bss_loop>:
     12a:	1d 92       	st	X+, r1

0000012c <.do_clear_bss_start>:
     12c:	aa 33       	cpi	r26, 0x3A	; 58
     12e:	b2 07       	cpc	r27, r18
     130:	e1 f7       	brne	.-8      	; 0x12a <.do_clear_bss_loop>
     132:	0e 94 6d 14 	call	0x28da	; 0x28da <main>
     136:	0c 94 68 23 	jmp	0x46d0	; 0x46d0 <_exit>

0000013a <__bad_interrupt>:
     13a:	62 cf       	rjmp	.-316    	; 0x0 <__vectors>

0000013c <Amplifier_Variables_from_EEPROM>:
//*******************************************************************
//						 Setting - FCTs
//*******************************************************************

void Amplifier_Set_Gain(uint16_t gain, int slot_nr)
{
     13c:	cf 93       	push	r28
     13e:	df 93       	push	r29
     140:	01 97       	sbiw	r24, 0x01	; 1
     142:	ec 01       	movw	r28, r24
     144:	cc 0f       	add	r28, r28
     146:	dd 1f       	adc	r29, r29
     148:	ce 01       	movw	r24, r28
     14a:	84 5d       	subi	r24, 0xD4	; 212
     14c:	9f 4f       	sbci	r25, 0xFF	; 255
     14e:	0e 94 44 23 	call	0x4688	; 0x4688 <eeprom_read_word>
     152:	fe 01       	movw	r30, r28
     154:	e1 58       	subi	r30, 0x81	; 129
     156:	fb 4f       	sbci	r31, 0xFB	; 251
     158:	91 83       	std	Z+1, r25	; 0x01
     15a:	80 83       	st	Z, r24
     15c:	ce 01       	movw	r24, r28
     15e:	84 5e       	subi	r24, 0xE4	; 228
     160:	9f 4f       	sbci	r25, 0xFF	; 255
     162:	0e 94 44 23 	call	0x4688	; 0x4688 <eeprom_read_word>
     166:	c1 57       	subi	r28, 0x71	; 113
     168:	db 4f       	sbci	r29, 0xFB	; 251
     16a:	99 83       	std	Y+1, r25	; 0x01
     16c:	88 83       	st	Y, r24
     16e:	df 91       	pop	r29
     170:	cf 91       	pop	r28
     172:	08 95       	ret

00000174 <Amplifier_Default_Values>:
     174:	0f 93       	push	r16
     176:	1f 93       	push	r17
     178:	cf 93       	push	r28
     17a:	df 93       	push	r29
     17c:	01 97       	sbiw	r24, 0x01	; 1
     17e:	ec 01       	movw	r28, r24
     180:	cc 0f       	add	r28, r28
     182:	dd 1f       	adc	r29, r29
     184:	fe 01       	movw	r30, r28
     186:	e1 58       	subi	r30, 0x81	; 129
     188:	fb 4f       	sbci	r31, 0xFB	; 251
     18a:	82 e0       	ldi	r24, 0x02	; 2
     18c:	90 e0       	ldi	r25, 0x00	; 0
     18e:	91 83       	std	Z+1, r25	; 0x01
     190:	80 83       	st	Z, r24
     192:	8e 01       	movw	r16, r28
     194:	01 57       	subi	r16, 0x71	; 113
     196:	1b 4f       	sbci	r17, 0xFB	; 251
     198:	88 eb       	ldi	r24, 0xB8	; 184
     19a:	9b e0       	ldi	r25, 0x0B	; 11
     19c:	f8 01       	movw	r30, r16
     19e:	91 83       	std	Z+1, r25	; 0x01
     1a0:	80 83       	st	Z, r24
     1a2:	62 e0       	ldi	r22, 0x02	; 2
     1a4:	70 e0       	ldi	r23, 0x00	; 0
     1a6:	ce 01       	movw	r24, r28
     1a8:	84 5d       	subi	r24, 0xD4	; 212
     1aa:	9f 4f       	sbci	r25, 0xFF	; 255
     1ac:	0e 94 65 23 	call	0x46ca	; 0x46ca <eeprom_write_word>
     1b0:	f8 01       	movw	r30, r16
     1b2:	60 81       	ld	r22, Z
     1b4:	71 81       	ldd	r23, Z+1	; 0x01
     1b6:	ce 01       	movw	r24, r28
     1b8:	84 5e       	subi	r24, 0xE4	; 228
     1ba:	9f 4f       	sbci	r25, 0xFF	; 255
     1bc:	0e 94 65 23 	call	0x46ca	; 0x46ca <eeprom_write_word>
     1c0:	df 91       	pop	r29
     1c2:	cf 91       	pop	r28
     1c4:	1f 91       	pop	r17
     1c6:	0f 91       	pop	r16
     1c8:	08 95       	ret

000001ca <Amplifier_Set_Offset_Voltage>:
	//Is fixed to 2	
}

void Amplifier_Set_Offset_Voltage(uint16_t voltage_in_mV, int slot_nr)
{
     1ca:	cf 93       	push	r28
	
	//Calculate binary value
	uint16_t binary_value = (((uint32_t) voltage_in_mV) * 0xffff) / 5000 / 2;
	
	//Send
	DAC_AD5752_Set(binary_value, &IO_PORT3, slot_nr-1, DAC_ADR_DAC_A);
     1cc:	cf ef       	ldi	r28, 0xFF	; 255
     1ce:	c6 0f       	add	r28, r22
     1d0:	9c 01       	movw	r18, r24
     1d2:	af ef       	ldi	r26, 0xFF	; 255
     1d4:	bf ef       	ldi	r27, 0xFF	; 255
     1d6:	0e 94 47 22 	call	0x448e	; 0x448e <__umulhisi3>
     1da:	20 e1       	ldi	r18, 0x10	; 16
     1dc:	37 e2       	ldi	r19, 0x27	; 39
     1de:	40 e0       	ldi	r20, 0x00	; 0
     1e0:	50 e0       	ldi	r21, 0x00	; 0
     1e2:	0e 94 01 22 	call	0x4402	; 0x4402 <__udivmodsi4>
     1e6:	da 01       	movw	r26, r20
     1e8:	c9 01       	movw	r24, r18
     1ea:	20 e0       	ldi	r18, 0x00	; 0
     1ec:	4c 2f       	mov	r20, r28
     1ee:	62 e2       	ldi	r22, 0x22	; 34
     1f0:	70 e0       	ldi	r23, 0x00	; 0
     1f2:	0e 94 5c 11 	call	0x22b8	; 0x22b8 <DAC_AD5752_Set>
	
}
     1f6:	cf 91       	pop	r28
     1f8:	08 95       	ret

000001fa <Amplifier_Init>:
//*******************************************************************
//						 Init & EEPROM
//*******************************************************************

void Amplifier_Init(int slot_nr)
{
     1fa:	0f 93       	push	r16
     1fc:	1f 93       	push	r17
     1fe:	cf 93       	push	r28
     200:	df 93       	push	r29
     202:	8c 01       	movw	r16, r24
	//Set HP&MP to LOW, and all CS to HIGH
	_clear_bit(HP_Port, slot_nr - 1);
     204:	e2 e0       	ldi	r30, 0x02	; 2
     206:	f1 e0       	ldi	r31, 0x01	; 1
     208:	20 81       	ld	r18, Z
     20a:	ec 01       	movw	r28, r24
     20c:	21 97       	sbiw	r28, 0x01	; 1
     20e:	81 e0       	ldi	r24, 0x01	; 1
     210:	90 e0       	ldi	r25, 0x00	; 0
     212:	0c 2e       	mov	r0, r28
     214:	02 c0       	rjmp	.+4      	; 0x21a <Amplifier_Init+0x20>
     216:	88 0f       	add	r24, r24
     218:	99 1f       	adc	r25, r25
     21a:	0a 94       	dec	r0
     21c:	e2 f7       	brpl	.-8      	; 0x216 <Amplifier_Init+0x1c>
     21e:	98 2f       	mov	r25, r24
     220:	90 95       	com	r25
     222:	29 23       	and	r18, r25
     224:	20 83       	st	Z, r18
	_clear_bit(MP_Port, slot_nr - 1);
     226:	e8 e0       	ldi	r30, 0x08	; 8
     228:	f1 e0       	ldi	r31, 0x01	; 1
     22a:	20 81       	ld	r18, Z
     22c:	92 23       	and	r25, r18
     22e:	90 83       	st	Z, r25
	_set_bit(IO_PORT3, slot_nr - 1);
     230:	92 b1       	in	r25, 0x02	; 2
     232:	98 2b       	or	r25, r24
     234:	92 b9       	out	0x02, r25	; 2
	_set_bit(IO_PORT4, slot_nr - 1);
     236:	e5 e0       	ldi	r30, 0x05	; 5
     238:	f1 e0       	ldi	r31, 0x01	; 1
     23a:	90 81       	ld	r25, Z
     23c:	98 2b       	or	r25, r24
     23e:	90 83       	st	Z, r25
	_set_bit(IO_PORT5, slot_nr - 1);
     240:	9b b1       	in	r25, 0x0b	; 11
     242:	98 2b       	or	r25, r24
     244:	9b b9       	out	0x0b, r25	; 11
	_set_bit(IO_PORT6, slot_nr - 1);
     246:	98 b1       	in	r25, 0x08	; 8
     248:	98 2b       	or	r25, r24
     24a:	98 b9       	out	0x08, r25	; 8
	//Set all as Output
	_set_out(HP_Port, slot_nr - 1);
     24c:	e1 e0       	ldi	r30, 0x01	; 1
     24e:	f1 e0       	ldi	r31, 0x01	; 1
     250:	90 81       	ld	r25, Z
     252:	98 2b       	or	r25, r24
     254:	90 83       	st	Z, r25
	_set_out(MP_Port, slot_nr - 1);
     256:	e7 e0       	ldi	r30, 0x07	; 7
     258:	f1 e0       	ldi	r31, 0x01	; 1
     25a:	90 81       	ld	r25, Z
     25c:	98 2b       	or	r25, r24
     25e:	90 83       	st	Z, r25
	_set_out(IO_PORT3, slot_nr - 1);
     260:	91 b1       	in	r25, 0x01	; 1
     262:	98 2b       	or	r25, r24
     264:	91 b9       	out	0x01, r25	; 1
	_set_out(IO_PORT4, slot_nr - 1);
     266:	e4 e0       	ldi	r30, 0x04	; 4
     268:	f1 e0       	ldi	r31, 0x01	; 1
     26a:	90 81       	ld	r25, Z
     26c:	98 2b       	or	r25, r24
     26e:	90 83       	st	Z, r25
	_set_out(IO_PORT5, slot_nr - 1);
     270:	9a b1       	in	r25, 0x0a	; 10
     272:	98 2b       	or	r25, r24
     274:	9a b9       	out	0x0a, r25	; 10
	_set_out(IO_PORT6, slot_nr - 1);
     276:	97 b1       	in	r25, 0x07	; 7
     278:	89 2b       	or	r24, r25
     27a:	87 b9       	out	0x07, r24	; 7
	

	//ADC initialization
	//Range: +5V
	//Both Channels on
	DAC_AD5752_Range_and_PowerUp(Range_p5V, PowerUp_A, &IO_PORT3, slot_nr-1);	
     27c:	2f ef       	ldi	r18, 0xFF	; 255
     27e:	20 0f       	add	r18, r16
     280:	42 e2       	ldi	r20, 0x22	; 34
     282:	50 e0       	ldi	r21, 0x00	; 0
     284:	61 e0       	ldi	r22, 0x01	; 1
     286:	80 e0       	ldi	r24, 0x00	; 0
     288:	0e 94 31 11 	call	0x2262	; 0x2262 <DAC_AD5752_Range_and_PowerUp>
	
	//Set DAC output
	Amplifier_Set_Gain(amplifier_gain[slot_nr-1], slot_nr);		
	Amplifier_Set_Offset_Voltage(amplifier_offset_voltage_mV[slot_nr-1], slot_nr);	
     28c:	cc 0f       	add	r28, r28
     28e:	dd 1f       	adc	r29, r29
     290:	c1 57       	subi	r28, 0x71	; 113
     292:	db 4f       	sbci	r29, 0xFB	; 251
     294:	b8 01       	movw	r22, r16
     296:	88 81       	ld	r24, Y
     298:	99 81       	ldd	r25, Y+1	; 0x01
     29a:	97 df       	rcall	.-210    	; 0x1ca <Amplifier_Set_Offset_Voltage>
}
     29c:	df 91       	pop	r29
     29e:	cf 91       	pop	r28
     2a0:	1f 91       	pop	r17
     2a2:	0f 91       	pop	r16
     2a4:	08 95       	ret

000002a6 <Terminal_SET_Amplifier>:
//*******************************************************************
//							  Terminal
//*******************************************************************

void Terminal_SET_Amplifier(char *myMessage)
{
     2a6:	ef 92       	push	r14
     2a8:	ff 92       	push	r15
     2aa:	0f 93       	push	r16
     2ac:	1f 93       	push	r17
     2ae:	cf 93       	push	r28
     2b0:	df 93       	push	r29
     2b2:	1f 92       	push	r1
     2b4:	1f 92       	push	r1
     2b6:	cd b7       	in	r28, 0x3d	; 61
     2b8:	de b7       	in	r29, 0x3e	; 62
     2ba:	fc 01       	movw	r30, r24
	//myMessage:	whole message
	//myCMD:		2 indicator Chars (Position 1 and 2)
	//mySlotNr:		Slot Number (Position 3)
		
	//Local variables
	uint16_t myCMD = _MK16(myMessage[1],myMessage[2]);
     2bc:	22 81       	ldd	r18, Z+2	; 0x02
     2be:	30 e0       	ldi	r19, 0x00	; 0
     2c0:	32 2f       	mov	r19, r18
     2c2:	22 27       	eor	r18, r18
     2c4:	81 81       	ldd	r24, Z+1	; 0x01
     2c6:	28 2b       	or	r18, r24
	int8_t mySlotNr = myMessage[3] - '0';
     2c8:	03 81       	ldd	r16, Z+3	; 0x03
     2ca:	00 53       	subi	r16, 0x30	; 48
	int16_t temp16 = 0;
     2cc:	1a 82       	std	Y+2, r1	; 0x02
     2ce:	19 82       	std	Y+1, r1	; 0x01
		
	//Dependent on indicator Chars --> Command
	switch(myCMD)
     2d0:	29 34       	cpi	r18, 0x49	; 73
     2d2:	8e e4       	ldi	r24, 0x4E	; 78
     2d4:	38 07       	cpc	r19, r24
     2d6:	49 f0       	breq	.+18     	; 0x2ea <Terminal_SET_Amplifier+0x44>
     2d8:	27 35       	cpi	r18, 0x57	; 87
     2da:	8f e4       	ldi	r24, 0x4F	; 79
     2dc:	38 07       	cpc	r19, r24
     2de:	71 f1       	breq	.+92     	; 0x33c <Terminal_SET_Amplifier+0x96>
     2e0:	27 35       	cpi	r18, 0x57	; 87
     2e2:	37 44       	sbci	r19, 0x47	; 71
     2e4:	09 f0       	breq	.+2      	; 0x2e8 <Terminal_SET_Amplifier+0x42>
     2e6:	c9 c0       	rjmp	.+402    	; 0x47a <__LOCK_REGION_LENGTH__+0x7a>
     2e8:	79 c0       	rjmp	.+242    	; 0x3dc <Terminal_SET_Amplifier+0x136>
	{
		//4.3.1 Initialization
		case _MK16('I','N'):
			if (myMessage[5] != '\n')
     2ea:	85 81       	ldd	r24, Z+5	; 0x05
     2ec:	8a 30       	cpi	r24, 0x0A	; 10
     2ee:	29 f0       	breq	.+10     	; 0x2fa <Terminal_SET_Amplifier+0x54>
			{
				//to many signs
				TransmitStringLn("FORMAT ERR");
     2f0:	87 e1       	ldi	r24, 0x17	; 23
     2f2:	92 e0       	ldi	r25, 0x02	; 2
     2f4:	0e 94 12 19 	call	0x3224	; 0x3224 <TransmitStringLn>
     2f8:	c4 c0       	rjmp	.+392    	; 0x482 <__LOCK_REGION_LENGTH__+0x82>
			}
			else
			{
				//Overwrite old settings
				card_Type[mySlotNr-1] = 'A';
     2fa:	00 2e       	mov	r0, r16
     2fc:	00 0c       	add	r0, r0
     2fe:	11 0b       	sbc	r17, r17
     300:	f8 01       	movw	r30, r16
     302:	e3 56       	subi	r30, 0x63	; 99
     304:	fa 4f       	sbci	r31, 0xFA	; 250
     306:	81 e4       	ldi	r24, 0x41	; 65
     308:	80 83       	st	Z, r24
				eeprom_write_block(card_Type, &card_Type_register_eeprom, 8);
     30a:	48 e0       	ldi	r20, 0x08	; 8
     30c:	50 e0       	ldi	r21, 0x00	; 0
     30e:	6c e3       	ldi	r22, 0x3C	; 60
     310:	70 e0       	ldi	r23, 0x00	; 0
     312:	8e e9       	ldi	r24, 0x9E	; 158
     314:	95 e0       	ldi	r25, 0x05	; 5
     316:	0e 94 49 23 	call	0x4692	; 0x4692 <eeprom_write_block>
								
				//Take default values
				Amplifier_Default_Values(mySlotNr);
     31a:	c8 01       	movw	r24, r16
     31c:	2b df       	rcall	.-426    	; 0x174 <Amplifier_Default_Values>
				//Init
				Amplifier_Init(mySlotNr);
     31e:	c8 01       	movw	r24, r16
     320:	6c df       	rcall	.-296    	; 0x1fa <Amplifier_Init>
							
				//Answer
				TransmitString("SIN");
     322:	82 e2       	ldi	r24, 0x22	; 34
     324:	92 e0       	ldi	r25, 0x02	; 2
     326:	0e 94 10 19 	call	0x3220	; 0x3220 <TransmitString>
				TransmitInt(mySlotNr, 1);
     32a:	61 e0       	ldi	r22, 0x01	; 1
     32c:	c8 01       	movw	r24, r16
     32e:	0e 94 14 19 	call	0x3228	; 0x3228 <TransmitInt>
				TransmitStringLn("A");
     332:	89 e7       	ldi	r24, 0x79	; 121
     334:	92 e0       	ldi	r25, 0x02	; 2
     336:	0e 94 12 19 	call	0x3224	; 0x3224 <TransmitStringLn>
     33a:	a3 c0       	rjmp	.+326    	; 0x482 <__LOCK_REGION_LENGTH__+0x82>
			}
			break;
		
		//4.3.2 Set Window Offset Voltage
		case _MK16('W','O'):
			if (!ParseIntLn(&myMessage[6],4,&temp16))
     33c:	ae 01       	movw	r20, r28
     33e:	4f 5f       	subi	r20, 0xFF	; 255
     340:	5f 4f       	sbci	r21, 0xFF	; 255
     342:	64 e0       	ldi	r22, 0x04	; 4
     344:	cf 01       	movw	r24, r30
     346:	06 96       	adiw	r24, 0x06	; 6
     348:	0e 94 dd 17 	call	0x2fba	; 0x2fba <ParseIntLn>
     34c:	81 11       	cpse	r24, r1
     34e:	05 c0       	rjmp	.+10     	; 0x35a <Terminal_SET_Amplifier+0xb4>
			{
				//no number
				TransmitStringLn("FORMAT ERR");
     350:	87 e1       	ldi	r24, 0x17	; 23
     352:	92 e0       	ldi	r25, 0x02	; 2
     354:	0e 94 12 19 	call	0x3224	; 0x3224 <TransmitStringLn>
     358:	94 c0       	rjmp	.+296    	; 0x482 <__LOCK_REGION_LENGTH__+0x82>
			}
			else if (temp16 > 10000 || temp16 < 0)
     35a:	89 81       	ldd	r24, Y+1	; 0x01
     35c:	9a 81       	ldd	r25, Y+2	; 0x02
     35e:	81 31       	cpi	r24, 0x11	; 17
     360:	97 42       	sbci	r25, 0x27	; 39
     362:	28 f0       	brcs	.+10     	; 0x36e <Terminal_SET_Amplifier+0xc8>
			{
				//0 bis 10 V
				TransmitStringLn("NUMBER ERR");
     364:	86 e2       	ldi	r24, 0x26	; 38
     366:	92 e0       	ldi	r25, 0x02	; 2
     368:	0e 94 12 19 	call	0x3224	; 0x3224 <TransmitStringLn>
     36c:	8a c0       	rjmp	.+276    	; 0x482 <__LOCK_REGION_LENGTH__+0x82>
			}
			else
			{
				TransmitString("SWO");
     36e:	81 e3       	ldi	r24, 0x31	; 49
     370:	92 e0       	ldi	r25, 0x02	; 2
     372:	0e 94 10 19 	call	0x3220	; 0x3220 <TransmitString>
				TransmitInt(mySlotNr, 1);
     376:	00 2e       	mov	r0, r16
     378:	00 0c       	add	r0, r0
     37a:	11 0b       	sbc	r17, r17
     37c:	61 e0       	ldi	r22, 0x01	; 1
     37e:	c8 01       	movw	r24, r16
     380:	0e 94 14 19 	call	0x3228	; 0x3228 <TransmitInt>
				TransmitString("A=");
     384:	85 e3       	ldi	r24, 0x35	; 53
     386:	92 e0       	ldi	r25, 0x02	; 2
     388:	0e 94 10 19 	call	0x3220	; 0x3220 <TransmitString>
				TransmitFloat(temp16,1, 3);
     38c:	43 e0       	ldi	r20, 0x03	; 3
     38e:	61 e0       	ldi	r22, 0x01	; 1
     390:	89 81       	ldd	r24, Y+1	; 0x01
     392:	9a 81       	ldd	r25, Y+2	; 0x02
     394:	0e 94 e2 19 	call	0x33c4	; 0x33c4 <TransmitFloat>
				TransmitStringLn(" V");
     398:	88 e3       	ldi	r24, 0x38	; 56
     39a:	92 e0       	ldi	r25, 0x02	; 2
     39c:	0e 94 12 19 	call	0x3224	; 0x3224 <TransmitStringLn>

				if (amplifier_offset_voltage_mV[mySlotNr-1] != temp16)
     3a0:	c8 01       	movw	r24, r16
     3a2:	01 97       	sbiw	r24, 0x01	; 1
     3a4:	69 81       	ldd	r22, Y+1	; 0x01
     3a6:	7a 81       	ldd	r23, Y+2	; 0x02
     3a8:	fc 01       	movw	r30, r24
     3aa:	ee 0f       	add	r30, r30
     3ac:	ff 1f       	adc	r31, r31
     3ae:	e1 57       	subi	r30, 0x71	; 113
     3b0:	fb 4f       	sbci	r31, 0xFB	; 251
     3b2:	20 81       	ld	r18, Z
     3b4:	31 81       	ldd	r19, Z+1	; 0x01
     3b6:	26 17       	cp	r18, r22
     3b8:	37 07       	cpc	r19, r23
     3ba:	09 f4       	brne	.+2      	; 0x3be <Terminal_SET_Amplifier+0x118>
     3bc:	62 c0       	rjmp	.+196    	; 0x482 <__LOCK_REGION_LENGTH__+0x82>
				{
					amplifier_offset_voltage_mV[mySlotNr-1] = temp16;
     3be:	88 0f       	add	r24, r24
     3c0:	99 1f       	adc	r25, r25
     3c2:	7f 01       	movw	r14, r30
     3c4:	71 83       	std	Z+1, r23	; 0x01
     3c6:	60 83       	st	Z, r22
					eeprom_write_word(&parameter2_eeprom[mySlotNr-1], temp16);
     3c8:	84 5e       	subi	r24, 0xE4	; 228
     3ca:	9f 4f       	sbci	r25, 0xFF	; 255
     3cc:	0e 94 65 23 	call	0x46ca	; 0x46ca <eeprom_write_word>
					Amplifier_Set_Offset_Voltage(amplifier_offset_voltage_mV[mySlotNr-1], mySlotNr);
     3d0:	b8 01       	movw	r22, r16
     3d2:	f7 01       	movw	r30, r14
     3d4:	80 81       	ld	r24, Z
     3d6:	91 81       	ldd	r25, Z+1	; 0x01
     3d8:	f8 de       	rcall	.-528    	; 0x1ca <Amplifier_Set_Offset_Voltage>
     3da:	53 c0       	rjmp	.+166    	; 0x482 <__LOCK_REGION_LENGTH__+0x82>
			}
			break;	
						
		//4.3.3 Window Gain (Fixed to 2)
		case _MK16('W','G'):					
			if (!ParseIntLn(&myMessage[6],4,&temp16))
     3dc:	ae 01       	movw	r20, r28
     3de:	4f 5f       	subi	r20, 0xFF	; 255
     3e0:	5f 4f       	sbci	r21, 0xFF	; 255
     3e2:	64 e0       	ldi	r22, 0x04	; 4
     3e4:	cf 01       	movw	r24, r30
     3e6:	06 96       	adiw	r24, 0x06	; 6
     3e8:	0e 94 dd 17 	call	0x2fba	; 0x2fba <ParseIntLn>
     3ec:	81 11       	cpse	r24, r1
     3ee:	05 c0       	rjmp	.+10     	; 0x3fa <Terminal_SET_Amplifier+0x154>
			{
				//no number
				TransmitStringLn("FORMAT ERR");
     3f0:	87 e1       	ldi	r24, 0x17	; 23
     3f2:	92 e0       	ldi	r25, 0x02	; 2
     3f4:	0e 94 12 19 	call	0x3224	; 0x3224 <TransmitStringLn>
     3f8:	44 c0       	rjmp	.+136    	; 0x482 <__LOCK_REGION_LENGTH__+0x82>
			}
			else if (temp16 > 2 || temp16 < 2)
     3fa:	89 81       	ldd	r24, Y+1	; 0x01
     3fc:	9a 81       	ldd	r25, Y+2	; 0x02
     3fe:	02 97       	sbiw	r24, 0x02	; 2
     400:	29 f0       	breq	.+10     	; 0x40c <__LOCK_REGION_LENGTH__+0xc>
			{
				//Kp mit der versterkung
				TransmitStringLn("NUMBER ERR");
     402:	86 e2       	ldi	r24, 0x26	; 38
     404:	92 e0       	ldi	r25, 0x02	; 2
     406:	0e 94 12 19 	call	0x3224	; 0x3224 <TransmitStringLn>
     40a:	3b c0       	rjmp	.+118    	; 0x482 <__LOCK_REGION_LENGTH__+0x82>
			}
			else
			{
				TransmitString("SWG");
     40c:	8b e3       	ldi	r24, 0x3B	; 59
     40e:	92 e0       	ldi	r25, 0x02	; 2
     410:	0e 94 10 19 	call	0x3220	; 0x3220 <TransmitString>
				TransmitInt(mySlotNr, 1);
     414:	00 2e       	mov	r0, r16
     416:	00 0c       	add	r0, r0
     418:	11 0b       	sbc	r17, r17
     41a:	61 e0       	ldi	r22, 0x01	; 1
     41c:	c8 01       	movw	r24, r16
     41e:	0e 94 14 19 	call	0x3228	; 0x3228 <TransmitInt>
				TransmitString("A=");
     422:	85 e3       	ldi	r24, 0x35	; 53
     424:	92 e0       	ldi	r25, 0x02	; 2
     426:	0e 94 10 19 	call	0x3220	; 0x3220 <TransmitString>
				//TransmitInt(temp16, 1);
				TransmitInt(2, 1);
     42a:	61 e0       	ldi	r22, 0x01	; 1
     42c:	82 e0       	ldi	r24, 0x02	; 2
     42e:	90 e0       	ldi	r25, 0x00	; 0
     430:	0e 94 14 19 	call	0x3228	; 0x3228 <TransmitInt>
				TransmitStringLn(" W/O-Unit");
     434:	8f e3       	ldi	r24, 0x3F	; 63
     436:	92 e0       	ldi	r25, 0x02	; 2
     438:	0e 94 12 19 	call	0x3224	; 0x3224 <TransmitStringLn>

				if (amplifier_gain[mySlotNr-1] != temp16)
     43c:	01 50       	subi	r16, 0x01	; 1
     43e:	11 09       	sbc	r17, r1
     440:	f8 01       	movw	r30, r16
     442:	ee 0f       	add	r30, r30
     444:	ff 1f       	adc	r31, r31
     446:	e1 58       	subi	r30, 0x81	; 129
     448:	fb 4f       	sbci	r31, 0xFB	; 251
     44a:	20 81       	ld	r18, Z
     44c:	31 81       	ldd	r19, Z+1	; 0x01
     44e:	89 81       	ldd	r24, Y+1	; 0x01
     450:	9a 81       	ldd	r25, Y+2	; 0x02
     452:	28 17       	cp	r18, r24
     454:	39 07       	cpc	r19, r25
     456:	a9 f0       	breq	.+42     	; 0x482 <__LOCK_REGION_LENGTH__+0x82>
				{
					amplifier_gain[mySlotNr-1] = 2;
     458:	00 0f       	add	r16, r16
     45a:	11 1f       	adc	r17, r17
     45c:	f8 01       	movw	r30, r16
     45e:	e1 58       	subi	r30, 0x81	; 129
     460:	fb 4f       	sbci	r31, 0xFB	; 251
     462:	82 e0       	ldi	r24, 0x02	; 2
     464:	90 e0       	ldi	r25, 0x00	; 0
     466:	91 83       	std	Z+1, r25	; 0x01
     468:	80 83       	st	Z, r24
					eeprom_write_word(&parameter1_eeprom[mySlotNr-1], 2);
     46a:	62 e0       	ldi	r22, 0x02	; 2
     46c:	70 e0       	ldi	r23, 0x00	; 0
     46e:	c8 01       	movw	r24, r16
     470:	84 5d       	subi	r24, 0xD4	; 212
     472:	9f 4f       	sbci	r25, 0xFF	; 255
     474:	0e 94 65 23 	call	0x46ca	; 0x46ca <eeprom_write_word>
     478:	04 c0       	rjmp	.+8      	; 0x482 <__LOCK_REGION_LENGTH__+0x82>
			}
		break;
								
		//Default --> Fehler
		default:
			TransmitStringLn("COMMAND ERR");
     47a:	89 e4       	ldi	r24, 0x49	; 73
     47c:	92 e0       	ldi	r25, 0x02	; 2
     47e:	0e 94 12 19 	call	0x3224	; 0x3224 <TransmitStringLn>
			break;
		
	}
		
}
     482:	0f 90       	pop	r0
     484:	0f 90       	pop	r0
     486:	df 91       	pop	r29
     488:	cf 91       	pop	r28
     48a:	1f 91       	pop	r17
     48c:	0f 91       	pop	r16
     48e:	ff 90       	pop	r15
     490:	ef 90       	pop	r14
     492:	08 95       	ret

00000494 <Terminal_GET_Amplifier>:

void Terminal_GET_Amplifier(char *myMessage)
{
     494:	cf 93       	push	r28
     496:	df 93       	push	r29
     498:	fc 01       	movw	r30, r24
	//myCMD:		2 indicator Chars (Position 1 and 2)
	//mySlotNr:		Slot Number (Position 3)
		
	//Local variables
	uint16_t myCMD = _MK16(myMessage[1],myMessage[2]);
	int8_t mySlotNr = myMessage[3] - '0';
     49a:	c3 81       	ldd	r28, Z+3	; 0x03
     49c:	c0 53       	subi	r28, 0x30	; 48
		
	switch(myCMD){
     49e:	22 81       	ldd	r18, Z+2	; 0x02
     4a0:	30 e0       	ldi	r19, 0x00	; 0
     4a2:	32 2f       	mov	r19, r18
     4a4:	22 27       	eor	r18, r18
     4a6:	81 81       	ldd	r24, Z+1	; 0x01
     4a8:	28 2b       	or	r18, r24
     4aa:	27 35       	cpi	r18, 0x57	; 87
     4ac:	87 e4       	ldi	r24, 0x47	; 71
     4ae:	38 07       	cpc	r19, r24
     4b0:	09 f1       	breq	.+66     	; 0x4f4 <Terminal_GET_Amplifier+0x60>
     4b2:	27 35       	cpi	r18, 0x57	; 87
     4b4:	3f 44       	sbci	r19, 0x4F	; 79
     4b6:	d9 f5       	brne	.+118    	; 0x52e <Terminal_GET_Amplifier+0x9a>
		
		//4.3.2 Offset Voltage
		case _MK16('W','O'):
			TransmitString("GWO");
     4b8:	85 e5       	ldi	r24, 0x55	; 85
     4ba:	92 e0       	ldi	r25, 0x02	; 2
     4bc:	0e 94 10 19 	call	0x3220	; 0x3220 <TransmitString>
			TransmitInt(mySlotNr , 1);
     4c0:	0c 2e       	mov	r0, r28
     4c2:	00 0c       	add	r0, r0
     4c4:	dd 0b       	sbc	r29, r29
     4c6:	61 e0       	ldi	r22, 0x01	; 1
     4c8:	ce 01       	movw	r24, r28
     4ca:	0e 94 14 19 	call	0x3228	; 0x3228 <TransmitInt>
			TransmitString("A=");
     4ce:	85 e3       	ldi	r24, 0x35	; 53
     4d0:	92 e0       	ldi	r25, 0x02	; 2
     4d2:	0e 94 10 19 	call	0x3220	; 0x3220 <TransmitString>
			TransmitFloat(amplifier_offset_voltage_mV[mySlotNr -1], 1, 3);
     4d6:	cc 0f       	add	r28, r28
     4d8:	dd 1f       	adc	r29, r29
     4da:	c3 57       	subi	r28, 0x73	; 115
     4dc:	db 4f       	sbci	r29, 0xFB	; 251
     4de:	43 e0       	ldi	r20, 0x03	; 3
     4e0:	61 e0       	ldi	r22, 0x01	; 1
     4e2:	88 81       	ld	r24, Y
     4e4:	99 81       	ldd	r25, Y+1	; 0x01
     4e6:	0e 94 e2 19 	call	0x33c4	; 0x33c4 <TransmitFloat>
			TransmitStringLn(" V");
     4ea:	88 e3       	ldi	r24, 0x38	; 56
     4ec:	92 e0       	ldi	r25, 0x02	; 2
     4ee:	0e 94 12 19 	call	0x3224	; 0x3224 <TransmitStringLn>
			break;
     4f2:	21 c0       	rjmp	.+66     	; 0x536 <Terminal_GET_Amplifier+0xa2>
		
		//4.3.3 Gain
		case _MK16('W','G'):
			TransmitString("GWG");
     4f4:	89 e5       	ldi	r24, 0x59	; 89
     4f6:	92 e0       	ldi	r25, 0x02	; 2
     4f8:	0e 94 10 19 	call	0x3220	; 0x3220 <TransmitString>
			TransmitInt(mySlotNr , 1);
     4fc:	0c 2e       	mov	r0, r28
     4fe:	00 0c       	add	r0, r0
     500:	dd 0b       	sbc	r29, r29
     502:	61 e0       	ldi	r22, 0x01	; 1
     504:	ce 01       	movw	r24, r28
     506:	0e 94 14 19 	call	0x3228	; 0x3228 <TransmitInt>
			TransmitString("A=");
     50a:	85 e3       	ldi	r24, 0x35	; 53
     50c:	92 e0       	ldi	r25, 0x02	; 2
     50e:	0e 94 10 19 	call	0x3220	; 0x3220 <TransmitString>
			TransmitInt(amplifier_gain[mySlotNr -1], 1);
     512:	cc 0f       	add	r28, r28
     514:	dd 1f       	adc	r29, r29
     516:	c3 58       	subi	r28, 0x83	; 131
     518:	db 4f       	sbci	r29, 0xFB	; 251
     51a:	61 e0       	ldi	r22, 0x01	; 1
     51c:	88 81       	ld	r24, Y
     51e:	99 81       	ldd	r25, Y+1	; 0x01
     520:	0e 94 14 19 	call	0x3228	; 0x3228 <TransmitInt>
			TransmitStringLn(" W/O-Unit");
     524:	8f e3       	ldi	r24, 0x3F	; 63
     526:	92 e0       	ldi	r25, 0x02	; 2
     528:	0e 94 12 19 	call	0x3224	; 0x3224 <TransmitStringLn>
			break;
     52c:	04 c0       	rjmp	.+8      	; 0x536 <Terminal_GET_Amplifier+0xa2>
								
								
		//Default --> Fehler
		default:
			TransmitStringLn("COMMAND ERR");
     52e:	89 e4       	ldi	r24, 0x49	; 73
     530:	92 e0       	ldi	r25, 0x02	; 2
     532:	0e 94 12 19 	call	0x3224	; 0x3224 <TransmitStringLn>
			break;
		
	}
     536:	df 91       	pop	r29
     538:	cf 91       	pop	r28
     53a:	08 95       	ret

0000053c <FrontEnd_Variables_from_EEPROM>:
	FrontEnd_Set_Gain(frontEnd_gain[slot_nr-1], slot_nr-1);		
	FrontEnd_Set_Offset_Voltage(frontEnd_offset_voltage_mV[slot_nr-1], slot_nr-1);			
}

void FrontEnd_Variables_from_EEPROM(int slot_nr)
{		
     53c:	cf 93       	push	r28
     53e:	df 93       	push	r29
	frontEnd_gain[slot_nr-1] = eeprom_read_word(&parameter1_eeprom[slot_nr-1]);
     540:	01 97       	sbiw	r24, 0x01	; 1
     542:	ec 01       	movw	r28, r24
     544:	cc 0f       	add	r28, r28
     546:	dd 1f       	adc	r29, r29
     548:	ce 01       	movw	r24, r28
     54a:	84 5d       	subi	r24, 0xD4	; 212
     54c:	9f 4f       	sbci	r25, 0xFF	; 255
     54e:	0e 94 44 23 	call	0x4688	; 0x4688 <eeprom_read_word>
     552:	fe 01       	movw	r30, r28
     554:	e0 55       	subi	r30, 0x50	; 80
     556:	fb 4f       	sbci	r31, 0xFB	; 251
     558:	91 83       	std	Z+1, r25	; 0x01
     55a:	80 83       	st	Z, r24
	frontEnd_offset_voltage_mV[slot_nr-1] = eeprom_read_word(&parameter2_eeprom[slot_nr-1]);
     55c:	ce 01       	movw	r24, r28
     55e:	84 5e       	subi	r24, 0xE4	; 228
     560:	9f 4f       	sbci	r25, 0xFF	; 255
     562:	0e 94 44 23 	call	0x4688	; 0x4688 <eeprom_read_word>
     566:	c0 56       	subi	r28, 0x60	; 96
     568:	db 4f       	sbci	r29, 0xFB	; 251
     56a:	99 83       	std	Y+1, r25	; 0x01
     56c:	88 83       	st	Y, r24
}
     56e:	df 91       	pop	r29
     570:	cf 91       	pop	r28
     572:	08 95       	ret

00000574 <FrontEnd_Default_Values>:

void FrontEnd_Default_Values(int slot_nr)
{
     574:	0f 93       	push	r16
     576:	1f 93       	push	r17
     578:	cf 93       	push	r28
     57a:	df 93       	push	r29
	//Set default values (Local & EEPROM)
	frontEnd_gain[slot_nr-1] = frontEnd_gain_default;
     57c:	01 97       	sbiw	r24, 0x01	; 1
     57e:	ec 01       	movw	r28, r24
     580:	cc 0f       	add	r28, r28
     582:	dd 1f       	adc	r29, r29
     584:	fe 01       	movw	r30, r28
     586:	e0 55       	subi	r30, 0x50	; 80
     588:	fb 4f       	sbci	r31, 0xFB	; 251
     58a:	89 e1       	ldi	r24, 0x19	; 25
     58c:	90 e0       	ldi	r25, 0x00	; 0
     58e:	91 83       	std	Z+1, r25	; 0x01
     590:	80 83       	st	Z, r24
	frontEnd_offset_voltage_mV[slot_nr-1] = frontEnd_offset_voltage_default;
     592:	8e 01       	movw	r16, r28
     594:	00 56       	subi	r16, 0x60	; 96
     596:	1b 4f       	sbci	r17, 0xFB	; 251
     598:	88 eb       	ldi	r24, 0xB8	; 184
     59a:	9b e0       	ldi	r25, 0x0B	; 11
     59c:	f8 01       	movw	r30, r16
     59e:	91 83       	std	Z+1, r25	; 0x01
     5a0:	80 83       	st	Z, r24
	
	eeprom_write_word(&parameter1_eeprom[slot_nr-1], frontEnd_gain[slot_nr-1]);
     5a2:	69 e1       	ldi	r22, 0x19	; 25
     5a4:	70 e0       	ldi	r23, 0x00	; 0
     5a6:	ce 01       	movw	r24, r28
     5a8:	84 5d       	subi	r24, 0xD4	; 212
     5aa:	9f 4f       	sbci	r25, 0xFF	; 255
     5ac:	0e 94 65 23 	call	0x46ca	; 0x46ca <eeprom_write_word>
	eeprom_write_word(&parameter2_eeprom[slot_nr-1], frontEnd_offset_voltage_mV[slot_nr-1]);
     5b0:	f8 01       	movw	r30, r16
     5b2:	60 81       	ld	r22, Z
     5b4:	71 81       	ldd	r23, Z+1	; 0x01
     5b6:	ce 01       	movw	r24, r28
     5b8:	84 5e       	subi	r24, 0xE4	; 228
     5ba:	9f 4f       	sbci	r25, 0xFF	; 255
     5bc:	0e 94 65 23 	call	0x46ca	; 0x46ca <eeprom_write_word>
}
     5c0:	df 91       	pop	r29
     5c2:	cf 91       	pop	r28
     5c4:	1f 91       	pop	r17
     5c6:	0f 91       	pop	r16
     5c8:	08 95       	ret

000005ca <FrontEnd_Set_Gain>:
//*******************************************************************

void FrontEnd_Set_Gain(uint16_t gain, int slot_nr)
{
	//Reset bit for FlipFlops always HIGH
	switch(gain)
     5ca:	82 33       	cpi	r24, 0x32	; 50
     5cc:	91 05       	cpc	r25, r1
     5ce:	71 f0       	breq	.+28     	; 0x5ec <FrontEnd_Set_Gain+0x22>
     5d0:	84 36       	cpi	r24, 0x64	; 100
     5d2:	91 05       	cpc	r25, r1
     5d4:	a1 f0       	breq	.+40     	; 0x5fe <FrontEnd_Set_Gain+0x34>
     5d6:	49 97       	sbiw	r24, 0x19	; 25
     5d8:	d1 f4       	brne	.+52     	; 0x60e <FrontEnd_Set_Gain+0x44>
	{
		case 25:
			IO_Expander_set_Register(register_OLAT, 0b00000100,  &IO_PORT4, slot_nr -1);
     5da:	2f ef       	ldi	r18, 0xFF	; 255
     5dc:	26 0f       	add	r18, r22
     5de:	45 e0       	ldi	r20, 0x05	; 5
     5e0:	51 e0       	ldi	r21, 0x01	; 1
     5e2:	64 e0       	ldi	r22, 0x04	; 4
     5e4:	8a e0       	ldi	r24, 0x0A	; 10
     5e6:	0c 94 00 12 	jmp	0x2400	; 0x2400 <IO_Expander_set_Register>
			break;
     5ea:	08 95       	ret
		case 50:
			IO_Expander_set_Register(register_OLAT, 0b00000101,  &IO_PORT4, slot_nr -1);
     5ec:	2f ef       	ldi	r18, 0xFF	; 255
     5ee:	26 0f       	add	r18, r22
     5f0:	45 e0       	ldi	r20, 0x05	; 5
     5f2:	51 e0       	ldi	r21, 0x01	; 1
     5f4:	65 e0       	ldi	r22, 0x05	; 5
     5f6:	8a e0       	ldi	r24, 0x0A	; 10
     5f8:	0c 94 00 12 	jmp	0x2400	; 0x2400 <IO_Expander_set_Register>
			break;
     5fc:	08 95       	ret
		case 100:
			IO_Expander_set_Register(register_OLAT, 0b00000110,  &IO_PORT4, slot_nr -1);
     5fe:	2f ef       	ldi	r18, 0xFF	; 255
     600:	26 0f       	add	r18, r22
     602:	45 e0       	ldi	r20, 0x05	; 5
     604:	51 e0       	ldi	r21, 0x01	; 1
     606:	66 e0       	ldi	r22, 0x06	; 6
     608:	8a e0       	ldi	r24, 0x0A	; 10
     60a:	0c 94 00 12 	jmp	0x2400	; 0x2400 <IO_Expander_set_Register>
     60e:	08 95       	ret

00000610 <FrontEnd_Set_Offset_Voltage>:
			break;
	}	
}

void FrontEnd_Set_Offset_Voltage(uint16_t voltage_in_mV, int slot_nr)
{
     610:	cf 93       	push	r28
	
	//Binär Wert berechnen
	uint16_t binary_value = (((uint32_t) voltage_in_mV) * 0xffff) / 10000;
	
	//Senden
	DAC_AD5752_Set(binary_value, &IO_PORT3, slot_nr-1, DAC_ADR_DAC_A);	
     612:	cf ef       	ldi	r28, 0xFF	; 255
     614:	c6 0f       	add	r28, r22
     616:	9c 01       	movw	r18, r24
     618:	af ef       	ldi	r26, 0xFF	; 255
     61a:	bf ef       	ldi	r27, 0xFF	; 255
     61c:	0e 94 47 22 	call	0x448e	; 0x448e <__umulhisi3>
     620:	20 e1       	ldi	r18, 0x10	; 16
     622:	37 e2       	ldi	r19, 0x27	; 39
     624:	40 e0       	ldi	r20, 0x00	; 0
     626:	50 e0       	ldi	r21, 0x00	; 0
     628:	0e 94 01 22 	call	0x4402	; 0x4402 <__udivmodsi4>
     62c:	da 01       	movw	r26, r20
     62e:	c9 01       	movw	r24, r18
     630:	20 e0       	ldi	r18, 0x00	; 0
     632:	4c 2f       	mov	r20, r28
     634:	62 e2       	ldi	r22, 0x22	; 34
     636:	70 e0       	ldi	r23, 0x00	; 0
     638:	0e 94 5c 11 	call	0x22b8	; 0x22b8 <DAC_AD5752_Set>
} 
     63c:	cf 91       	pop	r28
     63e:	08 95       	ret

00000640 <FrontEnd_Init>:
//*******************************************************************
//						 Init & EEPROM
//*******************************************************************

void FrontEnd_Init(int slot_nr)
{
     640:	0f 93       	push	r16
     642:	1f 93       	push	r17
     644:	cf 93       	push	r28
     646:	df 93       	push	r29
	//Set HP&MP to LOW, and all CS to HIGH
	_clear_bit(HP_Port, slot_nr - 1);
     648:	e2 e0       	ldi	r30, 0x02	; 2
     64a:	f1 e0       	ldi	r31, 0x01	; 1
     64c:	20 81       	ld	r18, Z
     64e:	8c 01       	movw	r16, r24
     650:	01 50       	subi	r16, 0x01	; 1
     652:	11 09       	sbc	r17, r1
     654:	41 e0       	ldi	r20, 0x01	; 1
     656:	50 e0       	ldi	r21, 0x00	; 0
     658:	00 2e       	mov	r0, r16
     65a:	02 c0       	rjmp	.+4      	; 0x660 <FrontEnd_Init+0x20>
     65c:	44 0f       	add	r20, r20
     65e:	55 1f       	adc	r21, r21
     660:	0a 94       	dec	r0
     662:	e2 f7       	brpl	.-8      	; 0x65c <FrontEnd_Init+0x1c>
     664:	94 2f       	mov	r25, r20
     666:	90 95       	com	r25
     668:	29 23       	and	r18, r25
     66a:	20 83       	st	Z, r18
	_clear_bit(MP_Port, slot_nr - 1);
     66c:	e8 e0       	ldi	r30, 0x08	; 8
     66e:	f1 e0       	ldi	r31, 0x01	; 1
     670:	20 81       	ld	r18, Z
     672:	92 23       	and	r25, r18
     674:	90 83       	st	Z, r25
	_set_bit(IO_PORT3, slot_nr - 1);
     676:	92 b1       	in	r25, 0x02	; 2
     678:	94 2b       	or	r25, r20
     67a:	92 b9       	out	0x02, r25	; 2
	_set_bit(IO_PORT4, slot_nr - 1);
     67c:	e5 e0       	ldi	r30, 0x05	; 5
     67e:	f1 e0       	ldi	r31, 0x01	; 1
     680:	90 81       	ld	r25, Z
     682:	94 2b       	or	r25, r20
     684:	90 83       	st	Z, r25
	_set_bit(IO_PORT5, slot_nr - 1);
     686:	9b b1       	in	r25, 0x0b	; 11
     688:	94 2b       	or	r25, r20
     68a:	9b b9       	out	0x0b, r25	; 11
	_set_bit(IO_PORT6, slot_nr - 1);
     68c:	98 b1       	in	r25, 0x08	; 8
     68e:	94 2b       	or	r25, r20
     690:	98 b9       	out	0x08, r25	; 8
	//Set all as Output
	_set_out(HP_Port, slot_nr - 1);
     692:	e1 e0       	ldi	r30, 0x01	; 1
     694:	f1 e0       	ldi	r31, 0x01	; 1
     696:	90 81       	ld	r25, Z
     698:	94 2b       	or	r25, r20
     69a:	90 83       	st	Z, r25
	_set_out(MP_Port, slot_nr - 1);
     69c:	e7 e0       	ldi	r30, 0x07	; 7
     69e:	f1 e0       	ldi	r31, 0x01	; 1
     6a0:	90 81       	ld	r25, Z
     6a2:	94 2b       	or	r25, r20
     6a4:	90 83       	st	Z, r25
	_set_out(IO_PORT3, slot_nr - 1);
     6a6:	91 b1       	in	r25, 0x01	; 1
     6a8:	94 2b       	or	r25, r20
     6aa:	91 b9       	out	0x01, r25	; 1
	_set_out(IO_PORT4, slot_nr - 1);
     6ac:	e4 e0       	ldi	r30, 0x04	; 4
     6ae:	f1 e0       	ldi	r31, 0x01	; 1
     6b0:	90 81       	ld	r25, Z
     6b2:	94 2b       	or	r25, r20
     6b4:	90 83       	st	Z, r25
	_set_out(IO_PORT5, slot_nr - 1);
     6b6:	9a b1       	in	r25, 0x0a	; 10
     6b8:	94 2b       	or	r25, r20
     6ba:	9a b9       	out	0x0a, r25	; 10
	_set_out(IO_PORT6, slot_nr - 1);
     6bc:	97 b1       	in	r25, 0x07	; 7
     6be:	49 2b       	or	r20, r25
     6c0:	47 b9       	out	0x07, r20	; 7

	//ADC initialization
	//Range: +10V
	//Only Channel A
	//DAC_AD5752_Range_and_PowerUp(Range_p5V, PowerUp_A, &IO_Port3, slot_nr-1);	
	DAC_AD5752_Range_and_PowerUp(Range_p10V, PowerUp_A, &IO_PORT3, slot_nr-1);	
     6c2:	cf ef       	ldi	r28, 0xFF	; 255
     6c4:	c8 0f       	add	r28, r24
     6c6:	2c 2f       	mov	r18, r28
     6c8:	42 e2       	ldi	r20, 0x22	; 34
     6ca:	50 e0       	ldi	r21, 0x00	; 0
     6cc:	61 e0       	ldi	r22, 0x01	; 1
     6ce:	81 e0       	ldi	r24, 0x01	; 1
     6d0:	0e 94 31 11 	call	0x2262	; 0x2262 <DAC_AD5752_Range_and_PowerUp>
	
	//IO Expander:
	//Set Direction (0:2 is OUT, 3:7 is IN)
	//0 means OUT, 1 means IN
	IO_Expander_set_Register(register_IODIR, 0b11111000, &IO_PORT4, slot_nr -1 );
     6d4:	2c 2f       	mov	r18, r28
     6d6:	45 e0       	ldi	r20, 0x05	; 5
     6d8:	51 e0       	ldi	r21, 0x01	; 1
     6da:	68 ef       	ldi	r22, 0xF8	; 248
     6dc:	80 e0       	ldi	r24, 0x00	; 0
     6de:	0e 94 00 12 	call	0x2400	; 0x2400 <IO_Expander_set_Register>
	
	//All Output to Low, except FlipFlop RST
	IO_Expander_set_Register(register_OLAT, 0b00000100,  &IO_PORT4, slot_nr -1);
     6e2:	2c 2f       	mov	r18, r28
     6e4:	45 e0       	ldi	r20, 0x05	; 5
     6e6:	51 e0       	ldi	r21, 0x01	; 1
     6e8:	64 e0       	ldi	r22, 0x04	; 4
     6ea:	8a e0       	ldi	r24, 0x0A	; 10
     6ec:	0e 94 00 12 	call	0x2400	; 0x2400 <IO_Expander_set_Register>
	
	
	//Set Offset and GAIN
	FrontEnd_Set_Gain(frontEnd_gain[slot_nr-1], slot_nr-1);		
     6f0:	e8 01       	movw	r28, r16
     6f2:	cc 0f       	add	r28, r28
     6f4:	dd 1f       	adc	r29, r29
     6f6:	fe 01       	movw	r30, r28
     6f8:	e0 55       	subi	r30, 0x50	; 80
     6fa:	fb 4f       	sbci	r31, 0xFB	; 251
     6fc:	b8 01       	movw	r22, r16
     6fe:	80 81       	ld	r24, Z
     700:	91 81       	ldd	r25, Z+1	; 0x01
     702:	63 df       	rcall	.-314    	; 0x5ca <FrontEnd_Set_Gain>
	FrontEnd_Set_Offset_Voltage(frontEnd_offset_voltage_mV[slot_nr-1], slot_nr-1);			
     704:	c0 56       	subi	r28, 0x60	; 96
     706:	db 4f       	sbci	r29, 0xFB	; 251
     708:	b8 01       	movw	r22, r16
     70a:	88 81       	ld	r24, Y
     70c:	99 81       	ldd	r25, Y+1	; 0x01
     70e:	80 df       	rcall	.-256    	; 0x610 <FrontEnd_Set_Offset_Voltage>
}
     710:	df 91       	pop	r29
     712:	cf 91       	pop	r28
     714:	1f 91       	pop	r17
     716:	0f 91       	pop	r16
     718:	08 95       	ret

0000071a <FrontEnd_Get_Voltage_in_mV_FullRange>:
//*******************************************************************

uint16_t FrontEnd_Get_Voltage_in_mV_FullRange(int slot_nr)
{
	//get binary value
	uint32_t temp = LTC1864_getBIT_OneShot(&IO_PORT5, slot_nr-1);
     71a:	6f ef       	ldi	r22, 0xFF	; 255
     71c:	68 0f       	add	r22, r24
     71e:	8b e2       	ldi	r24, 0x2B	; 43
     720:	90 e0       	ldi	r25, 0x00	; 0
     722:	0e 94 81 11 	call	0x2302	; 0x2302 <LTC1864_getBIT_OneShot>
	
	//Convert (DAC Range: 0...2,5V / Pre-Divider: 4 --> Whole Range 0...10000mV)
	return (temp * 10000)>>16; 	
     726:	9c 01       	movw	r18, r24
     728:	a0 e1       	ldi	r26, 0x10	; 16
     72a:	b7 e2       	ldi	r27, 0x27	; 39
     72c:	0c 94 47 22 	jmp	0x448e	; 0x448e <__umulhisi3>
}
     730:	08 95       	ret

00000732 <FrontEnd_Reset_FlipFlops>:

void FrontEnd_Reset_FlipFlops(int slot_nr)
{
     732:	cf 93       	push	r28
     734:	df 93       	push	r29
	//Get current setup of IO-Expander (only the two gain bit necessary; last two)
	uint8_t temp = IO_Expander_get_Register(register_GPIO, &IO_PORT4, slot_nr -1 ) & 0x03;
     736:	df ef       	ldi	r29, 0xFF	; 255
     738:	d8 0f       	add	r29, r24
     73a:	4d 2f       	mov	r20, r29
     73c:	65 e0       	ldi	r22, 0x05	; 5
     73e:	71 e0       	ldi	r23, 0x01	; 1
     740:	89 e0       	ldi	r24, 0x09	; 9
     742:	0e 94 22 12 	call	0x2444	; 0x2444 <IO_Expander_get_Register>
     746:	c8 2f       	mov	r28, r24
     748:	c3 70       	andi	r28, 0x03	; 3
	
	//Reset Bit (3 Position) to LOW 
	IO_Expander_set_Register(register_OLAT, temp, &IO_PORT4, slot_nr-1);
     74a:	2d 2f       	mov	r18, r29
     74c:	45 e0       	ldi	r20, 0x05	; 5
     74e:	51 e0       	ldi	r21, 0x01	; 1
     750:	6c 2f       	mov	r22, r28
     752:	8a e0       	ldi	r24, 0x0A	; 10
     754:	0e 94 00 12 	call	0x2400	; 0x2400 <IO_Expander_set_Register>
	//Reset Bit (3 Position) to HIGH
	IO_Expander_set_Register(register_OLAT, temp | 0x04, &IO_PORT4, slot_nr-1);	
     758:	6c 2f       	mov	r22, r28
     75a:	64 60       	ori	r22, 0x04	; 4
     75c:	2d 2f       	mov	r18, r29
     75e:	45 e0       	ldi	r20, 0x05	; 5
     760:	51 e0       	ldi	r21, 0x01	; 1
     762:	8a e0       	ldi	r24, 0x0A	; 10
     764:	0e 94 00 12 	call	0x2400	; 0x2400 <IO_Expander_set_Register>
}
     768:	df 91       	pop	r29
     76a:	cf 91       	pop	r28
     76c:	08 95       	ret

0000076e <Terminal_SET_FrontEnd>:
//*******************************************************************
//							  Terminal
//*******************************************************************

void Terminal_SET_FrontEnd(char *myMessage)
{
     76e:	ef 92       	push	r14
     770:	ff 92       	push	r15
     772:	0f 93       	push	r16
     774:	1f 93       	push	r17
     776:	cf 93       	push	r28
     778:	df 93       	push	r29
     77a:	1f 92       	push	r1
     77c:	1f 92       	push	r1
     77e:	cd b7       	in	r28, 0x3d	; 61
     780:	de b7       	in	r29, 0x3e	; 62
     782:	fc 01       	movw	r30, r24
	//myMessage:	whole message
	//myCMD:		2 indicator Chars (Position 1 and 2)
	//mySlotNr:		Slot Number (Position 3)
	
	//Local variables
	uint16_t myCMD = _MK16(myMessage[1],myMessage[2]);
     784:	22 81       	ldd	r18, Z+2	; 0x02
     786:	30 e0       	ldi	r19, 0x00	; 0
     788:	32 2f       	mov	r19, r18
     78a:	22 27       	eor	r18, r18
     78c:	81 81       	ldd	r24, Z+1	; 0x01
     78e:	28 2b       	or	r18, r24
	int8_t mySlotNr = myMessage[3] - '0';
     790:	03 81       	ldd	r16, Z+3	; 0x03
     792:	00 53       	subi	r16, 0x30	; 48
	int16_t temp16 = 0;
     794:	1a 82       	std	Y+2, r1	; 0x02
     796:	19 82       	std	Y+1, r1	; 0x01
	
	//Dependent on indicator Chars --> Command
	switch(myCMD)
     798:	27 35       	cpi	r18, 0x57	; 87
     79a:	87 e4       	ldi	r24, 0x47	; 71
     79c:	38 07       	cpc	r19, r24
     79e:	c1 f1       	breq	.+112    	; 0x810 <Terminal_SET_FrontEnd+0xa2>
     7a0:	28 f4       	brcc	.+10     	; 0x7ac <Terminal_SET_FrontEnd+0x3e>
     7a2:	22 35       	cpi	r18, 0x52	; 82
     7a4:	36 44       	sbci	r19, 0x46	; 70
     7a6:	09 f4       	brne	.+2      	; 0x7aa <Terminal_SET_FrontEnd+0x3c>
     7a8:	d9 c0       	rjmp	.+434    	; 0x95c <Terminal_SET_FrontEnd+0x1ee>
     7aa:	f2 c0       	rjmp	.+484    	; 0x990 <Terminal_SET_FrontEnd+0x222>
     7ac:	29 34       	cpi	r18, 0x49	; 73
     7ae:	8e e4       	ldi	r24, 0x4E	; 78
     7b0:	38 07       	cpc	r19, r24
     7b2:	29 f0       	breq	.+10     	; 0x7be <Terminal_SET_FrontEnd+0x50>
     7b4:	27 35       	cpi	r18, 0x57	; 87
     7b6:	3f 44       	sbci	r19, 0x4F	; 79
     7b8:	09 f4       	brne	.+2      	; 0x7bc <Terminal_SET_FrontEnd+0x4e>
     7ba:	81 c0       	rjmp	.+258    	; 0x8be <Terminal_SET_FrontEnd+0x150>
     7bc:	e9 c0       	rjmp	.+466    	; 0x990 <Terminal_SET_FrontEnd+0x222>
	{
		//1. Initialization
		case _MK16('I','N'):
			if (myMessage[5] != '\n')
     7be:	85 81       	ldd	r24, Z+5	; 0x05
     7c0:	8a 30       	cpi	r24, 0x0A	; 10
     7c2:	29 f0       	breq	.+10     	; 0x7ce <Terminal_SET_FrontEnd+0x60>
			{
				//to many signs
				TransmitStringLn("FORMAT ERR");
     7c4:	87 e1       	ldi	r24, 0x17	; 23
     7c6:	92 e0       	ldi	r25, 0x02	; 2
     7c8:	0e 94 12 19 	call	0x3224	; 0x3224 <TransmitStringLn>
     7cc:	e5 c0       	rjmp	.+458    	; 0x998 <Terminal_SET_FrontEnd+0x22a>
			}
			else
			{
				//Overwrite old settings
				card_Type[mySlotNr-1] = 'F';
     7ce:	00 2e       	mov	r0, r16
     7d0:	00 0c       	add	r0, r0
     7d2:	11 0b       	sbc	r17, r17
     7d4:	f8 01       	movw	r30, r16
     7d6:	e3 56       	subi	r30, 0x63	; 99
     7d8:	fa 4f       	sbci	r31, 0xFA	; 250
     7da:	86 e4       	ldi	r24, 0x46	; 70
     7dc:	80 83       	st	Z, r24
				eeprom_write_block(card_Type, &card_Type_register_eeprom, 8);
     7de:	48 e0       	ldi	r20, 0x08	; 8
     7e0:	50 e0       	ldi	r21, 0x00	; 0
     7e2:	6c e3       	ldi	r22, 0x3C	; 60
     7e4:	70 e0       	ldi	r23, 0x00	; 0
     7e6:	8e e9       	ldi	r24, 0x9E	; 158
     7e8:	95 e0       	ldi	r25, 0x05	; 5
     7ea:	0e 94 49 23 	call	0x4692	; 0x4692 <eeprom_write_block>
								
				//Take default values
				FrontEnd_Default_Values(mySlotNr);
     7ee:	c8 01       	movw	r24, r16
     7f0:	c1 de       	rcall	.-638    	; 0x574 <FrontEnd_Default_Values>
				//Init
				FrontEnd_Init(mySlotNr);
     7f2:	c8 01       	movw	r24, r16
     7f4:	25 df       	rcall	.-438    	; 0x640 <FrontEnd_Init>
																
				//Answer
				TransmitString("SIN");
     7f6:	82 e2       	ldi	r24, 0x22	; 34
     7f8:	92 e0       	ldi	r25, 0x02	; 2
     7fa:	0e 94 10 19 	call	0x3220	; 0x3220 <TransmitString>
				TransmitInt(mySlotNr, 1);
     7fe:	61 e0       	ldi	r22, 0x01	; 1
     800:	c8 01       	movw	r24, r16
     802:	0e 94 14 19 	call	0x3228	; 0x3228 <TransmitInt>
				TransmitStringLn("F");
     806:	82 e6       	ldi	r24, 0x62	; 98
     808:	92 e0       	ldi	r25, 0x02	; 2
     80a:	0e 94 12 19 	call	0x3224	; 0x3224 <TransmitStringLn>
     80e:	c4 c0       	rjmp	.+392    	; 0x998 <Terminal_SET_FrontEnd+0x22a>
			
			
		//2. Window Gain 
		case _MK16('W','G'):
						
			if (!ParseIntLn(&myMessage[6],4,&temp16))
     810:	ae 01       	movw	r20, r28
     812:	4f 5f       	subi	r20, 0xFF	; 255
     814:	5f 4f       	sbci	r21, 0xFF	; 255
     816:	64 e0       	ldi	r22, 0x04	; 4
     818:	cf 01       	movw	r24, r30
     81a:	06 96       	adiw	r24, 0x06	; 6
     81c:	0e 94 dd 17 	call	0x2fba	; 0x2fba <ParseIntLn>
     820:	81 11       	cpse	r24, r1
     822:	05 c0       	rjmp	.+10     	; 0x82e <Terminal_SET_FrontEnd+0xc0>
			{
				//no number
				TransmitStringLn("FORMAT ERR");
     824:	87 e1       	ldi	r24, 0x17	; 23
     826:	92 e0       	ldi	r25, 0x02	; 2
     828:	0e 94 12 19 	call	0x3224	; 0x3224 <TransmitStringLn>
     82c:	b5 c0       	rjmp	.+362    	; 0x998 <Terminal_SET_FrontEnd+0x22a>
			}
			else if ( !(temp16 == 100 || temp16 == 50 || temp16 == 25) )
     82e:	89 81       	ldd	r24, Y+1	; 0x01
     830:	9a 81       	ldd	r25, Y+2	; 0x02
     832:	84 36       	cpi	r24, 0x64	; 100
     834:	91 05       	cpc	r25, r1
     836:	51 f0       	breq	.+20     	; 0x84c <Terminal_SET_FrontEnd+0xde>
     838:	82 33       	cpi	r24, 0x32	; 50
     83a:	91 05       	cpc	r25, r1
     83c:	39 f0       	breq	.+14     	; 0x84c <Terminal_SET_FrontEnd+0xde>
     83e:	49 97       	sbiw	r24, 0x19	; 25
     840:	29 f0       	breq	.+10     	; 0x84c <Terminal_SET_FrontEnd+0xde>
			{
				//Wrong Value
				TransmitStringLn("NUMBER ERR");
     842:	86 e2       	ldi	r24, 0x26	; 38
     844:	92 e0       	ldi	r25, 0x02	; 2
     846:	0e 94 12 19 	call	0x3224	; 0x3224 <TransmitStringLn>
     84a:	a6 c0       	rjmp	.+332    	; 0x998 <Terminal_SET_FrontEnd+0x22a>
			}
			else
			{
				TransmitString("SWG");
     84c:	8b e3       	ldi	r24, 0x3B	; 59
     84e:	92 e0       	ldi	r25, 0x02	; 2
     850:	0e 94 10 19 	call	0x3220	; 0x3220 <TransmitString>
				TransmitInt(mySlotNr, 1);
     854:	00 2e       	mov	r0, r16
     856:	00 0c       	add	r0, r0
     858:	11 0b       	sbc	r17, r17
     85a:	61 e0       	ldi	r22, 0x01	; 1
     85c:	c8 01       	movw	r24, r16
     85e:	0e 94 14 19 	call	0x3228	; 0x3228 <TransmitInt>
				TransmitString("F=");
     862:	8d e5       	ldi	r24, 0x5D	; 93
     864:	92 e0       	ldi	r25, 0x02	; 2
     866:	0e 94 10 19 	call	0x3220	; 0x3220 <TransmitString>
				TransmitInt(temp16, 1);
     86a:	61 e0       	ldi	r22, 0x01	; 1
     86c:	89 81       	ldd	r24, Y+1	; 0x01
     86e:	9a 81       	ldd	r25, Y+2	; 0x02
     870:	0e 94 14 19 	call	0x3228	; 0x3228 <TransmitInt>
				TransmitStringLn(" W/O-Unit");
     874:	8f e3       	ldi	r24, 0x3F	; 63
     876:	92 e0       	ldi	r25, 0x02	; 2
     878:	0e 94 12 19 	call	0x3224	; 0x3224 <TransmitStringLn>

				if (frontEnd_gain[mySlotNr-1] != temp16)
     87c:	c8 01       	movw	r24, r16
     87e:	01 97       	sbiw	r24, 0x01	; 1
     880:	69 81       	ldd	r22, Y+1	; 0x01
     882:	7a 81       	ldd	r23, Y+2	; 0x02
     884:	fc 01       	movw	r30, r24
     886:	ee 0f       	add	r30, r30
     888:	ff 1f       	adc	r31, r31
     88a:	e0 55       	subi	r30, 0x50	; 80
     88c:	fb 4f       	sbci	r31, 0xFB	; 251
     88e:	20 81       	ld	r18, Z
     890:	31 81       	ldd	r19, Z+1	; 0x01
     892:	26 17       	cp	r18, r22
     894:	37 07       	cpc	r19, r23
     896:	09 f4       	brne	.+2      	; 0x89a <Terminal_SET_FrontEnd+0x12c>
     898:	7f c0       	rjmp	.+254    	; 0x998 <Terminal_SET_FrontEnd+0x22a>
				{
					frontEnd_gain[mySlotNr-1] = temp16;
     89a:	88 0f       	add	r24, r24
     89c:	99 1f       	adc	r25, r25
     89e:	fc 01       	movw	r30, r24
     8a0:	e0 55       	subi	r30, 0x50	; 80
     8a2:	fb 4f       	sbci	r31, 0xFB	; 251
     8a4:	7f 01       	movw	r14, r30
     8a6:	71 83       	std	Z+1, r23	; 0x01
     8a8:	60 83       	st	Z, r22
					eeprom_write_word(&parameter1_eeprom[mySlotNr-1], temp16);
     8aa:	84 5d       	subi	r24, 0xD4	; 212
     8ac:	9f 4f       	sbci	r25, 0xFF	; 255
     8ae:	0e 94 65 23 	call	0x46ca	; 0x46ca <eeprom_write_word>
					FrontEnd_Set_Gain(frontEnd_gain[mySlotNr-1], mySlotNr);
     8b2:	b8 01       	movw	r22, r16
     8b4:	f7 01       	movw	r30, r14
     8b6:	80 81       	ld	r24, Z
     8b8:	91 81       	ldd	r25, Z+1	; 0x01
     8ba:	87 de       	rcall	.-754    	; 0x5ca <FrontEnd_Set_Gain>
     8bc:	6d c0       	rjmp	.+218    	; 0x998 <Terminal_SET_FrontEnd+0x22a>
			
			
		//3. Set Window Offset Voltage
		case _MK16('W','O'):
						
			if (!ParseIntLn(&myMessage[6],4,&temp16))
     8be:	ae 01       	movw	r20, r28
     8c0:	4f 5f       	subi	r20, 0xFF	; 255
     8c2:	5f 4f       	sbci	r21, 0xFF	; 255
     8c4:	64 e0       	ldi	r22, 0x04	; 4
     8c6:	cf 01       	movw	r24, r30
     8c8:	06 96       	adiw	r24, 0x06	; 6
     8ca:	0e 94 dd 17 	call	0x2fba	; 0x2fba <ParseIntLn>
     8ce:	81 11       	cpse	r24, r1
     8d0:	05 c0       	rjmp	.+10     	; 0x8dc <Terminal_SET_FrontEnd+0x16e>
			{
				//no number
				TransmitStringLn("FORMAT ERR");
     8d2:	87 e1       	ldi	r24, 0x17	; 23
     8d4:	92 e0       	ldi	r25, 0x02	; 2
     8d6:	0e 94 12 19 	call	0x3224	; 0x3224 <TransmitStringLn>
     8da:	5e c0       	rjmp	.+188    	; 0x998 <Terminal_SET_FrontEnd+0x22a>
			}
			else if (temp16 > 10000 || temp16 < 0)
     8dc:	89 81       	ldd	r24, Y+1	; 0x01
     8de:	9a 81       	ldd	r25, Y+2	; 0x02
     8e0:	81 31       	cpi	r24, 0x11	; 17
     8e2:	97 42       	sbci	r25, 0x27	; 39
     8e4:	28 f0       	brcs	.+10     	; 0x8f0 <Terminal_SET_FrontEnd+0x182>
			{
				//0 bis 10 V
				TransmitStringLn("NUMBER ERR");
     8e6:	86 e2       	ldi	r24, 0x26	; 38
     8e8:	92 e0       	ldi	r25, 0x02	; 2
     8ea:	0e 94 12 19 	call	0x3224	; 0x3224 <TransmitStringLn>
     8ee:	54 c0       	rjmp	.+168    	; 0x998 <Terminal_SET_FrontEnd+0x22a>
			}
			else
			{
				TransmitString("SWO");
     8f0:	81 e3       	ldi	r24, 0x31	; 49
     8f2:	92 e0       	ldi	r25, 0x02	; 2
     8f4:	0e 94 10 19 	call	0x3220	; 0x3220 <TransmitString>
				TransmitInt(mySlotNr, 1);
     8f8:	00 2e       	mov	r0, r16
     8fa:	00 0c       	add	r0, r0
     8fc:	11 0b       	sbc	r17, r17
     8fe:	61 e0       	ldi	r22, 0x01	; 1
     900:	c8 01       	movw	r24, r16
     902:	0e 94 14 19 	call	0x3228	; 0x3228 <TransmitInt>
				TransmitString("F=");
     906:	8d e5       	ldi	r24, 0x5D	; 93
     908:	92 e0       	ldi	r25, 0x02	; 2
     90a:	0e 94 10 19 	call	0x3220	; 0x3220 <TransmitString>
				TransmitFloat(temp16,1, 3);
     90e:	43 e0       	ldi	r20, 0x03	; 3
     910:	61 e0       	ldi	r22, 0x01	; 1
     912:	89 81       	ldd	r24, Y+1	; 0x01
     914:	9a 81       	ldd	r25, Y+2	; 0x02
     916:	0e 94 e2 19 	call	0x33c4	; 0x33c4 <TransmitFloat>
				TransmitStringLn(" V");
     91a:	88 e3       	ldi	r24, 0x38	; 56
     91c:	92 e0       	ldi	r25, 0x02	; 2
     91e:	0e 94 12 19 	call	0x3224	; 0x3224 <TransmitStringLn>

				if (frontEnd_offset_voltage_mV[mySlotNr-1] != temp16)
     922:	c8 01       	movw	r24, r16
     924:	01 97       	sbiw	r24, 0x01	; 1
     926:	69 81       	ldd	r22, Y+1	; 0x01
     928:	7a 81       	ldd	r23, Y+2	; 0x02
     92a:	fc 01       	movw	r30, r24
     92c:	ee 0f       	add	r30, r30
     92e:	ff 1f       	adc	r31, r31
     930:	e0 56       	subi	r30, 0x60	; 96
     932:	fb 4f       	sbci	r31, 0xFB	; 251
     934:	20 81       	ld	r18, Z
     936:	31 81       	ldd	r19, Z+1	; 0x01
     938:	26 17       	cp	r18, r22
     93a:	37 07       	cpc	r19, r23
     93c:	69 f1       	breq	.+90     	; 0x998 <Terminal_SET_FrontEnd+0x22a>
				{
					frontEnd_offset_voltage_mV[mySlotNr-1] = temp16;
     93e:	88 0f       	add	r24, r24
     940:	99 1f       	adc	r25, r25
     942:	7f 01       	movw	r14, r30
     944:	71 83       	std	Z+1, r23	; 0x01
     946:	60 83       	st	Z, r22
					eeprom_write_word(&parameter2_eeprom[mySlotNr-1], temp16);
     948:	84 5e       	subi	r24, 0xE4	; 228
     94a:	9f 4f       	sbci	r25, 0xFF	; 255
     94c:	0e 94 65 23 	call	0x46ca	; 0x46ca <eeprom_write_word>
					FrontEnd_Set_Offset_Voltage(frontEnd_offset_voltage_mV[mySlotNr-1], mySlotNr);
     950:	b8 01       	movw	r22, r16
     952:	f7 01       	movw	r30, r14
     954:	80 81       	ld	r24, Z
     956:	91 81       	ldd	r25, Z+1	; 0x01
     958:	5b de       	rcall	.-842    	; 0x610 <FrontEnd_Set_Offset_Voltage>
     95a:	1e c0       	rjmp	.+60     	; 0x998 <Terminal_SET_FrontEnd+0x22a>
				}
			}
			break;

		case _MK16('R','F'):
			if (myMessage[5] != '\n')
     95c:	85 81       	ldd	r24, Z+5	; 0x05
     95e:	8a 30       	cpi	r24, 0x0A	; 10
     960:	29 f0       	breq	.+10     	; 0x96c <Terminal_SET_FrontEnd+0x1fe>
			{
				//to many signs
				TransmitStringLn("FORMAT ERR");
     962:	87 e1       	ldi	r24, 0x17	; 23
     964:	92 e0       	ldi	r25, 0x02	; 2
     966:	0e 94 12 19 	call	0x3224	; 0x3224 <TransmitStringLn>
     96a:	16 c0       	rjmp	.+44     	; 0x998 <Terminal_SET_FrontEnd+0x22a>
			}
			else
			{
				FrontEnd_Reset_FlipFlops(mySlotNr);
     96c:	00 2e       	mov	r0, r16
     96e:	00 0c       	add	r0, r0
     970:	11 0b       	sbc	r17, r17
     972:	c8 01       	movw	r24, r16
     974:	de de       	rcall	.-580    	; 0x732 <FrontEnd_Reset_FlipFlops>
				//Answer
				TransmitString("SRF");
     976:	80 e6       	ldi	r24, 0x60	; 96
     978:	92 e0       	ldi	r25, 0x02	; 2
     97a:	0e 94 10 19 	call	0x3220	; 0x3220 <TransmitString>
				TransmitInt(mySlotNr, 1);
     97e:	61 e0       	ldi	r22, 0x01	; 1
     980:	c8 01       	movw	r24, r16
     982:	0e 94 14 19 	call	0x3228	; 0x3228 <TransmitInt>
				TransmitStringLn("F");
     986:	82 e6       	ldi	r24, 0x62	; 98
     988:	92 e0       	ldi	r25, 0x02	; 2
     98a:	0e 94 12 19 	call	0x3224	; 0x3224 <TransmitStringLn>
     98e:	04 c0       	rjmp	.+8      	; 0x998 <Terminal_SET_FrontEnd+0x22a>
			break;
			
								
		//Default --> Fehler
		default:
			TransmitStringLn("COMMAND ERR");
     990:	89 e4       	ldi	r24, 0x49	; 73
     992:	92 e0       	ldi	r25, 0x02	; 2
     994:	0e 94 12 19 	call	0x3224	; 0x3224 <TransmitStringLn>
			break;		
				
	}
}
     998:	0f 90       	pop	r0
     99a:	0f 90       	pop	r0
     99c:	df 91       	pop	r29
     99e:	cf 91       	pop	r28
     9a0:	1f 91       	pop	r17
     9a2:	0f 91       	pop	r16
     9a4:	ff 90       	pop	r15
     9a6:	ef 90       	pop	r14
     9a8:	08 95       	ret

000009aa <Terminal_GET_FrontEnd>:

void Terminal_GET_FrontEnd(char *myMessage)
{
     9aa:	cf 93       	push	r28
     9ac:	df 93       	push	r29
     9ae:	fc 01       	movw	r30, r24
	//myCMD:		2 indicator Chars (Position 1 and 2)
	//mySlotNr:		Slot Number (Position 3)
		
	//Local variables
	uint16_t myCMD = _MK16(myMessage[1],myMessage[2]);
	int8_t mySlotNr = myMessage[3] - '0';
     9b0:	d3 81       	ldd	r29, Z+3	; 0x03
     9b2:	c0 ed       	ldi	r28, 0xD0	; 208
     9b4:	cd 0f       	add	r28, r29
	
	switch(myCMD){
     9b6:	22 81       	ldd	r18, Z+2	; 0x02
     9b8:	30 e0       	ldi	r19, 0x00	; 0
     9ba:	32 2f       	mov	r19, r18
     9bc:	22 27       	eor	r18, r18
     9be:	81 81       	ldd	r24, Z+1	; 0x01
     9c0:	28 2b       	or	r18, r24
     9c2:	27 35       	cpi	r18, 0x57	; 87
     9c4:	87 e4       	ldi	r24, 0x47	; 71
     9c6:	38 07       	cpc	r19, r24
     9c8:	79 f0       	breq	.+30     	; 0x9e8 <Terminal_GET_FrontEnd+0x3e>
     9ca:	28 f4       	brcc	.+10     	; 0x9d6 <Terminal_GET_FrontEnd+0x2c>
     9cc:	26 35       	cpi	r18, 0x56	; 86
     9ce:	36 44       	sbci	r19, 0x46	; 70
     9d0:	09 f4       	brne	.+2      	; 0x9d4 <Terminal_GET_FrontEnd+0x2a>
     9d2:	61 c0       	rjmp	.+194    	; 0xa96 <Terminal_GET_FrontEnd+0xec>
     9d4:	79 c0       	rjmp	.+242    	; 0xac8 <Terminal_GET_FrontEnd+0x11e>
     9d6:	23 35       	cpi	r18, 0x53	; 83
     9d8:	89 e4       	ldi	r24, 0x49	; 73
     9da:	38 07       	cpc	r19, r24
     9dc:	09 f4       	brne	.+2      	; 0x9e0 <Terminal_GET_FrontEnd+0x36>
     9de:	3f c0       	rjmp	.+126    	; 0xa5e <Terminal_GET_FrontEnd+0xb4>
     9e0:	27 35       	cpi	r18, 0x57	; 87
     9e2:	3f 44       	sbci	r19, 0x4F	; 79
     9e4:	f1 f0       	breq	.+60     	; 0xa22 <Terminal_GET_FrontEnd+0x78>
     9e6:	70 c0       	rjmp	.+224    	; 0xac8 <Terminal_GET_FrontEnd+0x11e>
							
		//1. Gain
		case _MK16('W','G'):
			TransmitString("GWG");
     9e8:	89 e5       	ldi	r24, 0x59	; 89
     9ea:	92 e0       	ldi	r25, 0x02	; 2
     9ec:	0e 94 10 19 	call	0x3220	; 0x3220 <TransmitString>
			TransmitInt(mySlotNr, 1);
     9f0:	0c 2e       	mov	r0, r28
     9f2:	00 0c       	add	r0, r0
     9f4:	dd 0b       	sbc	r29, r29
     9f6:	61 e0       	ldi	r22, 0x01	; 1
     9f8:	ce 01       	movw	r24, r28
     9fa:	0e 94 14 19 	call	0x3228	; 0x3228 <TransmitInt>
			TransmitString("F=");
     9fe:	8d e5       	ldi	r24, 0x5D	; 93
     a00:	92 e0       	ldi	r25, 0x02	; 2
     a02:	0e 94 10 19 	call	0x3220	; 0x3220 <TransmitString>
			TransmitInt(frontEnd_gain[mySlotNr-1], 1);
     a06:	cc 0f       	add	r28, r28
     a08:	dd 1f       	adc	r29, r29
     a0a:	c2 55       	subi	r28, 0x52	; 82
     a0c:	db 4f       	sbci	r29, 0xFB	; 251
     a0e:	61 e0       	ldi	r22, 0x01	; 1
     a10:	88 81       	ld	r24, Y
     a12:	99 81       	ldd	r25, Y+1	; 0x01
     a14:	0e 94 14 19 	call	0x3228	; 0x3228 <TransmitInt>
			TransmitStringLn(" W/O-Unit");
     a18:	8f e3       	ldi	r24, 0x3F	; 63
     a1a:	92 e0       	ldi	r25, 0x02	; 2
     a1c:	0e 94 12 19 	call	0x3224	; 0x3224 <TransmitStringLn>
			break;
     a20:	57 c0       	rjmp	.+174    	; 0xad0 <Terminal_GET_FrontEnd+0x126>
							
		//2. Offset
		case _MK16('W','O'):
			TransmitString("GWO");
     a22:	85 e5       	ldi	r24, 0x55	; 85
     a24:	92 e0       	ldi	r25, 0x02	; 2
     a26:	0e 94 10 19 	call	0x3220	; 0x3220 <TransmitString>
			TransmitInt(mySlotNr, 1);
     a2a:	0c 2e       	mov	r0, r28
     a2c:	00 0c       	add	r0, r0
     a2e:	dd 0b       	sbc	r29, r29
     a30:	61 e0       	ldi	r22, 0x01	; 1
     a32:	ce 01       	movw	r24, r28
     a34:	0e 94 14 19 	call	0x3228	; 0x3228 <TransmitInt>
			TransmitString("F=");
     a38:	8d e5       	ldi	r24, 0x5D	; 93
     a3a:	92 e0       	ldi	r25, 0x02	; 2
     a3c:	0e 94 10 19 	call	0x3220	; 0x3220 <TransmitString>
			TransmitFloat(frontEnd_offset_voltage_mV[mySlotNr-1], 1, 3);
     a40:	cc 0f       	add	r28, r28
     a42:	dd 1f       	adc	r29, r29
     a44:	c2 56       	subi	r28, 0x62	; 98
     a46:	db 4f       	sbci	r29, 0xFB	; 251
     a48:	43 e0       	ldi	r20, 0x03	; 3
     a4a:	61 e0       	ldi	r22, 0x01	; 1
     a4c:	88 81       	ld	r24, Y
     a4e:	99 81       	ldd	r25, Y+1	; 0x01
     a50:	0e 94 e2 19 	call	0x33c4	; 0x33c4 <TransmitFloat>
			TransmitStringLn(" V");
     a54:	88 e3       	ldi	r24, 0x38	; 56
     a56:	92 e0       	ldi	r25, 0x02	; 2
     a58:	0e 94 12 19 	call	0x3224	; 0x3224 <TransmitStringLn>
			break;
     a5c:	39 c0       	rjmp	.+114    	; 0xad0 <Terminal_GET_FrontEnd+0x126>
			
		//3. Status Info
		case _MK16('S','I'):
			TransmitString("GSI");
     a5e:	84 e6       	ldi	r24, 0x64	; 100
     a60:	92 e0       	ldi	r25, 0x02	; 2
     a62:	0e 94 10 19 	call	0x3220	; 0x3220 <TransmitString>
			TransmitInt(mySlotNr, 1);
     a66:	61 e0       	ldi	r22, 0x01	; 1
     a68:	8c 2f       	mov	r24, r28
     a6a:	cc 0f       	add	r28, r28
     a6c:	99 0b       	sbc	r25, r25
     a6e:	0e 94 14 19 	call	0x3228	; 0x3228 <TransmitInt>
			TransmitString("F=");
     a72:	8d e5       	ldi	r24, 0x5D	; 93
     a74:	92 e0       	ldi	r25, 0x02	; 2
     a76:	0e 94 10 19 	call	0x3220	; 0x3220 <TransmitString>
			TransmitByte(IO_Expander_get_Register(register_GPIO, &IO_PORT4, mySlotNr-1));
     a7a:	4f ec       	ldi	r20, 0xCF	; 207
     a7c:	4d 0f       	add	r20, r29
     a7e:	65 e0       	ldi	r22, 0x05	; 5
     a80:	71 e0       	ldi	r23, 0x01	; 1
     a82:	89 e0       	ldi	r24, 0x09	; 9
     a84:	0e 94 22 12 	call	0x2444	; 0x2444 <IO_Expander_get_Register>
     a88:	0e 94 ab 1a 	call	0x3556	; 0x3556 <TransmitByte>
			TransmitStringLn("");
     a8c:	84 e0       	ldi	r24, 0x04	; 4
     a8e:	93 e0       	ldi	r25, 0x03	; 3
     a90:	0e 94 12 19 	call	0x3224	; 0x3224 <TransmitStringLn>
			break;			
     a94:	1d c0       	rjmp	.+58     	; 0xad0 <Terminal_GET_FrontEnd+0x126>
			
		//4. Voltage at full range DAC
		case _MK16('V','F'):
			TransmitString("GVF");
     a96:	88 e6       	ldi	r24, 0x68	; 104
     a98:	92 e0       	ldi	r25, 0x02	; 2
     a9a:	0e 94 10 19 	call	0x3220	; 0x3220 <TransmitString>
			TransmitInt(mySlotNr, 1);
     a9e:	0c 2e       	mov	r0, r28
     aa0:	00 0c       	add	r0, r0
     aa2:	dd 0b       	sbc	r29, r29
     aa4:	61 e0       	ldi	r22, 0x01	; 1
     aa6:	ce 01       	movw	r24, r28
     aa8:	0e 94 14 19 	call	0x3228	; 0x3228 <TransmitInt>
			TransmitString("F=");
     aac:	8d e5       	ldi	r24, 0x5D	; 93
     aae:	92 e0       	ldi	r25, 0x02	; 2
     ab0:	0e 94 10 19 	call	0x3220	; 0x3220 <TransmitString>
			//Measure and return
			TransmitInt(FrontEnd_Get_Voltage_in_mV_FullRange(mySlotNr), 1);
     ab4:	ce 01       	movw	r24, r28
     ab6:	31 de       	rcall	.-926    	; 0x71a <FrontEnd_Get_Voltage_in_mV_FullRange>
     ab8:	61 e0       	ldi	r22, 0x01	; 1
     aba:	0e 94 14 19 	call	0x3228	; 0x3228 <TransmitInt>
			TransmitStringLn(" mV");
     abe:	8c e6       	ldi	r24, 0x6C	; 108
     ac0:	92 e0       	ldi	r25, 0x02	; 2
     ac2:	0e 94 12 19 	call	0x3224	; 0x3224 <TransmitStringLn>
			break;
     ac6:	04 c0       	rjmp	.+8      	; 0xad0 <Terminal_GET_FrontEnd+0x126>
			
							
		//Default --> Fehler
		default:
			TransmitStringLn("COMMAND ERR");
     ac8:	89 e4       	ldi	r24, 0x49	; 73
     aca:	92 e0       	ldi	r25, 0x02	; 2
     acc:	0e 94 12 19 	call	0x3224	; 0x3224 <TransmitStringLn>
			break;							
	}

     ad0:	df 91       	pop	r29
     ad2:	cf 91       	pop	r28
     ad4:	08 95       	ret

00000ad6 <LED_Source_Variables_from_EEPROM>:
	LED_Source_Set_Heat_Current(led_Source_Heat_Current_mA[slot_nr-1], slot_nr);		
	LED_Source_Set_Meas_Current(led_Source_Meas_Current_0mA1[slot_nr-1], slot_nr);	
}

void LED_Source_Variables_from_EEPROM(int slot_nr)
{		
     ad6:	cf 93       	push	r28
     ad8:	df 93       	push	r29
	led_Source_Heat_Current_mA[slot_nr-1] = eeprom_read_word(&parameter1_eeprom[slot_nr-1]);
     ada:	01 97       	sbiw	r24, 0x01	; 1
     adc:	ec 01       	movw	r28, r24
     ade:	cc 0f       	add	r28, r28
     ae0:	dd 1f       	adc	r29, r29
     ae2:	ce 01       	movw	r24, r28
     ae4:	84 5d       	subi	r24, 0xD4	; 212
     ae6:	9f 4f       	sbci	r25, 0xFF	; 255
     ae8:	0e 94 44 23 	call	0x4688	; 0x4688 <eeprom_read_word>
     aec:	fe 01       	movw	r30, r28
     aee:	e0 5f       	subi	r30, 0xF0	; 240
     af0:	fa 4f       	sbci	r31, 0xFA	; 250
     af2:	91 83       	std	Z+1, r25	; 0x01
     af4:	80 83       	st	Z, r24
	led_Source_Meas_Current_0mA1[slot_nr-1] = eeprom_read_word(&parameter2_eeprom[slot_nr-1]);
     af6:	ce 01       	movw	r24, r28
     af8:	84 5e       	subi	r24, 0xE4	; 228
     afa:	9f 4f       	sbci	r25, 0xFF	; 255
     afc:	0e 94 44 23 	call	0x4688	; 0x4688 <eeprom_read_word>
     b00:	c0 50       	subi	r28, 0x00	; 0
     b02:	db 4f       	sbci	r29, 0xFB	; 251
     b04:	99 83       	std	Y+1, r25	; 0x01
     b06:	88 83       	st	Y, r24
}
     b08:	df 91       	pop	r29
     b0a:	cf 91       	pop	r28
     b0c:	08 95       	ret

00000b0e <LED_Source_Default_Values>:

void LED_Source_Default_Values(int slot_nr)
{
     b0e:	0f 93       	push	r16
     b10:	1f 93       	push	r17
     b12:	cf 93       	push	r28
     b14:	df 93       	push	r29
	//Set default values (Local & EEPROM)
	led_Source_Heat_Current_mA[slot_nr-1] = led_source_Heat_current_default;
     b16:	01 97       	sbiw	r24, 0x01	; 1
     b18:	ec 01       	movw	r28, r24
     b1a:	cc 0f       	add	r28, r28
     b1c:	dd 1f       	adc	r29, r29
     b1e:	fe 01       	movw	r30, r28
     b20:	e0 5f       	subi	r30, 0xF0	; 240
     b22:	fa 4f       	sbci	r31, 0xFA	; 250
     b24:	84 ef       	ldi	r24, 0xF4	; 244
     b26:	91 e0       	ldi	r25, 0x01	; 1
     b28:	91 83       	std	Z+1, r25	; 0x01
     b2a:	80 83       	st	Z, r24
	led_Source_Meas_Current_0mA1[slot_nr-1] = led_source_Meas_current_default;
     b2c:	8e 01       	movw	r16, r28
     b2e:	00 50       	subi	r16, 0x00	; 0
     b30:	1b 4f       	sbci	r17, 0xFB	; 251
     b32:	88 ec       	ldi	r24, 0xC8	; 200
     b34:	90 e0       	ldi	r25, 0x00	; 0
     b36:	f8 01       	movw	r30, r16
     b38:	91 83       	std	Z+1, r25	; 0x01
     b3a:	80 83       	st	Z, r24
	
	eeprom_write_word(&parameter1_eeprom[slot_nr-1], led_Source_Heat_Current_mA[slot_nr-1]);
     b3c:	64 ef       	ldi	r22, 0xF4	; 244
     b3e:	71 e0       	ldi	r23, 0x01	; 1
     b40:	ce 01       	movw	r24, r28
     b42:	84 5d       	subi	r24, 0xD4	; 212
     b44:	9f 4f       	sbci	r25, 0xFF	; 255
     b46:	0e 94 65 23 	call	0x46ca	; 0x46ca <eeprom_write_word>
	eeprom_write_word(&parameter2_eeprom[slot_nr-1], led_Source_Meas_Current_0mA1[slot_nr-1]);
     b4a:	f8 01       	movw	r30, r16
     b4c:	60 81       	ld	r22, Z
     b4e:	71 81       	ldd	r23, Z+1	; 0x01
     b50:	ce 01       	movw	r24, r28
     b52:	84 5e       	subi	r24, 0xE4	; 228
     b54:	9f 4f       	sbci	r25, 0xFF	; 255
     b56:	0e 94 65 23 	call	0x46ca	; 0x46ca <eeprom_write_word>
}
     b5a:	df 91       	pop	r29
     b5c:	cf 91       	pop	r28
     b5e:	1f 91       	pop	r17
     b60:	0f 91       	pop	r16
     b62:	08 95       	ret

00000b64 <LED_Source_Set_Heat_Current>:
//*******************************************************************
//						 Setting - FCTs
//*******************************************************************

void LED_Source_Set_Heat_Current(uint16_t current_mA, int slot_nr)
{
     b64:	1f 93       	push	r17
     b66:	cf 93       	push	r28
     b68:	df 93       	push	r29
     b6a:	1f 92       	push	r1
     b6c:	1f 92       	push	r1
     b6e:	cd b7       	in	r28, 0x3d	; 61
     b70:	de b7       	in	r29, 0x3e	; 62
     b72:	16 2f       	mov	r17, r22
	//Binär Wert berechnen
	volatile uint16_t binary_value = (((uint32_t) current_mA) * 0xffff) / 1500;
     b74:	9c 01       	movw	r18, r24
     b76:	af ef       	ldi	r26, 0xFF	; 255
     b78:	bf ef       	ldi	r27, 0xFF	; 255
     b7a:	0e 94 47 22 	call	0x448e	; 0x448e <__umulhisi3>
     b7e:	2c ed       	ldi	r18, 0xDC	; 220
     b80:	35 e0       	ldi	r19, 0x05	; 5
     b82:	40 e0       	ldi	r20, 0x00	; 0
     b84:	50 e0       	ldi	r21, 0x00	; 0
     b86:	0e 94 01 22 	call	0x4402	; 0x4402 <__udivmodsi4>
     b8a:	3a 83       	std	Y+2, r19	; 0x02
     b8c:	29 83       	std	Y+1, r18	; 0x01
	
	//Senden
	DAC_AD5752_Set(binary_value, &IO_PORT3, slot_nr-1, DAC_ADR_DAC_A);
     b8e:	89 81       	ldd	r24, Y+1	; 0x01
     b90:	9a 81       	ldd	r25, Y+2	; 0x02
     b92:	4f ef       	ldi	r20, 0xFF	; 255
     b94:	41 0f       	add	r20, r17
     b96:	20 e0       	ldi	r18, 0x00	; 0
     b98:	62 e2       	ldi	r22, 0x22	; 34
     b9a:	70 e0       	ldi	r23, 0x00	; 0
     b9c:	0e 94 5c 11 	call	0x22b8	; 0x22b8 <DAC_AD5752_Set>
	
}
     ba0:	0f 90       	pop	r0
     ba2:	0f 90       	pop	r0
     ba4:	df 91       	pop	r29
     ba6:	cf 91       	pop	r28
     ba8:	1f 91       	pop	r17
     baa:	08 95       	ret

00000bac <LED_Source_Set_Meas_Current>:

void LED_Source_Set_Meas_Current(uint16_t current_10th_mA, int slot_nr)
{
     bac:	cf 93       	push	r28
	
	//Binär Wert berechnen
	uint16_t binary_value = (((uint32_t) current_10th_mA) * 0xffff) / 250;
	
	//Senden
	DAC_AD5752_Set(binary_value, &IO_PORT3, slot_nr-1, DAC_ADR_DAC_B);
     bae:	cf ef       	ldi	r28, 0xFF	; 255
     bb0:	c6 0f       	add	r28, r22
     bb2:	9c 01       	movw	r18, r24
     bb4:	af ef       	ldi	r26, 0xFF	; 255
     bb6:	bf ef       	ldi	r27, 0xFF	; 255
     bb8:	0e 94 47 22 	call	0x448e	; 0x448e <__umulhisi3>
     bbc:	2a ef       	ldi	r18, 0xFA	; 250
     bbe:	30 e0       	ldi	r19, 0x00	; 0
     bc0:	40 e0       	ldi	r20, 0x00	; 0
     bc2:	50 e0       	ldi	r21, 0x00	; 0
     bc4:	0e 94 01 22 	call	0x4402	; 0x4402 <__udivmodsi4>
     bc8:	da 01       	movw	r26, r20
     bca:	c9 01       	movw	r24, r18
     bcc:	22 e0       	ldi	r18, 0x02	; 2
     bce:	4c 2f       	mov	r20, r28
     bd0:	62 e2       	ldi	r22, 0x22	; 34
     bd2:	70 e0       	ldi	r23, 0x00	; 0
     bd4:	0e 94 5c 11 	call	0x22b8	; 0x22b8 <DAC_AD5752_Set>
	
}
     bd8:	cf 91       	pop	r28
     bda:	08 95       	ret

00000bdc <LED_Source_Init>:
//*******************************************************************
//						 Init & EEPROM
//*******************************************************************

void LED_Source_Init(int slot_nr)
{
     bdc:	0f 93       	push	r16
     bde:	1f 93       	push	r17
     be0:	cf 93       	push	r28
     be2:	df 93       	push	r29
     be4:	8c 01       	movw	r16, r24
	//Set HP&MP to LOW, and all CS to HIGH
	_clear_bit(HP_Port, slot_nr - 1);
     be6:	e2 e0       	ldi	r30, 0x02	; 2
     be8:	f1 e0       	ldi	r31, 0x01	; 1
     bea:	20 81       	ld	r18, Z
     bec:	ec 01       	movw	r28, r24
     bee:	21 97       	sbiw	r28, 0x01	; 1
     bf0:	81 e0       	ldi	r24, 0x01	; 1
     bf2:	90 e0       	ldi	r25, 0x00	; 0
     bf4:	0c 2e       	mov	r0, r28
     bf6:	02 c0       	rjmp	.+4      	; 0xbfc <LED_Source_Init+0x20>
     bf8:	88 0f       	add	r24, r24
     bfa:	99 1f       	adc	r25, r25
     bfc:	0a 94       	dec	r0
     bfe:	e2 f7       	brpl	.-8      	; 0xbf8 <LED_Source_Init+0x1c>
     c00:	98 2f       	mov	r25, r24
     c02:	90 95       	com	r25
     c04:	29 23       	and	r18, r25
     c06:	20 83       	st	Z, r18
	_clear_bit(MP_Port, slot_nr - 1);
     c08:	e8 e0       	ldi	r30, 0x08	; 8
     c0a:	f1 e0       	ldi	r31, 0x01	; 1
     c0c:	20 81       	ld	r18, Z
     c0e:	92 23       	and	r25, r18
     c10:	90 83       	st	Z, r25
	_set_bit(IO_PORT3, slot_nr - 1);
     c12:	92 b1       	in	r25, 0x02	; 2
     c14:	98 2b       	or	r25, r24
     c16:	92 b9       	out	0x02, r25	; 2
	_set_bit(IO_PORT4, slot_nr - 1);
     c18:	e5 e0       	ldi	r30, 0x05	; 5
     c1a:	f1 e0       	ldi	r31, 0x01	; 1
     c1c:	90 81       	ld	r25, Z
     c1e:	98 2b       	or	r25, r24
     c20:	90 83       	st	Z, r25
	_set_bit(IO_PORT5, slot_nr - 1);
     c22:	9b b1       	in	r25, 0x0b	; 11
     c24:	98 2b       	or	r25, r24
     c26:	9b b9       	out	0x0b, r25	; 11
	_set_bit(IO_PORT6, slot_nr - 1);
     c28:	98 b1       	in	r25, 0x08	; 8
     c2a:	98 2b       	or	r25, r24
     c2c:	98 b9       	out	0x08, r25	; 8
	//Set all as Output
	_set_out(HP_Port, slot_nr - 1);
     c2e:	e1 e0       	ldi	r30, 0x01	; 1
     c30:	f1 e0       	ldi	r31, 0x01	; 1
     c32:	90 81       	ld	r25, Z
     c34:	98 2b       	or	r25, r24
     c36:	90 83       	st	Z, r25
	_set_out(MP_Port, slot_nr - 1);
     c38:	e7 e0       	ldi	r30, 0x07	; 7
     c3a:	f1 e0       	ldi	r31, 0x01	; 1
     c3c:	90 81       	ld	r25, Z
     c3e:	98 2b       	or	r25, r24
     c40:	90 83       	st	Z, r25
	_set_out(IO_PORT3, slot_nr - 1);
     c42:	91 b1       	in	r25, 0x01	; 1
     c44:	98 2b       	or	r25, r24
     c46:	91 b9       	out	0x01, r25	; 1
	_set_out(IO_PORT4, slot_nr - 1);
     c48:	e4 e0       	ldi	r30, 0x04	; 4
     c4a:	f1 e0       	ldi	r31, 0x01	; 1
     c4c:	90 81       	ld	r25, Z
     c4e:	98 2b       	or	r25, r24
     c50:	90 83       	st	Z, r25
	_set_out(IO_PORT5, slot_nr - 1);
     c52:	9a b1       	in	r25, 0x0a	; 10
     c54:	98 2b       	or	r25, r24
     c56:	9a b9       	out	0x0a, r25	; 10
	_set_out(IO_PORT6, slot_nr - 1);
     c58:	97 b1       	in	r25, 0x07	; 7
     c5a:	89 2b       	or	r24, r25
     c5c:	87 b9       	out	0x07, r24	; 7
	

	//ADC initialization
	//Range: +5V
	//Both Channels on
	DAC_AD5752_Range_and_PowerUp(Range_p5V, PowerUp_AB, &IO_PORT3, slot_nr-1);	
     c5e:	2f ef       	ldi	r18, 0xFF	; 255
     c60:	20 0f       	add	r18, r16
     c62:	42 e2       	ldi	r20, 0x22	; 34
     c64:	50 e0       	ldi	r21, 0x00	; 0
     c66:	65 e0       	ldi	r22, 0x05	; 5
     c68:	80 e0       	ldi	r24, 0x00	; 0
     c6a:	0e 94 31 11 	call	0x2262	; 0x2262 <DAC_AD5752_Range_and_PowerUp>
	
	//Set DAC output
	LED_Source_Set_Heat_Current(led_Source_Heat_Current_mA[slot_nr-1], slot_nr);		
     c6e:	cc 0f       	add	r28, r28
     c70:	dd 1f       	adc	r29, r29
     c72:	fe 01       	movw	r30, r28
     c74:	e0 5f       	subi	r30, 0xF0	; 240
     c76:	fa 4f       	sbci	r31, 0xFA	; 250
     c78:	b8 01       	movw	r22, r16
     c7a:	80 81       	ld	r24, Z
     c7c:	91 81       	ldd	r25, Z+1	; 0x01
     c7e:	72 df       	rcall	.-284    	; 0xb64 <LED_Source_Set_Heat_Current>
	LED_Source_Set_Meas_Current(led_Source_Meas_Current_0mA1[slot_nr-1], slot_nr);	
     c80:	c0 50       	subi	r28, 0x00	; 0
     c82:	db 4f       	sbci	r29, 0xFB	; 251
     c84:	b8 01       	movw	r22, r16
     c86:	88 81       	ld	r24, Y
     c88:	99 81       	ldd	r25, Y+1	; 0x01
     c8a:	90 df       	rcall	.-224    	; 0xbac <LED_Source_Set_Meas_Current>
}
     c8c:	df 91       	pop	r29
     c8e:	cf 91       	pop	r28
     c90:	1f 91       	pop	r17
     c92:	0f 91       	pop	r16
     c94:	08 95       	ret

00000c96 <Terminal_SET_LED_Source>:
//*******************************************************************
//							  Terminal
//*******************************************************************

void Terminal_SET_LED_Source(char *myMessage)
{
     c96:	ef 92       	push	r14
     c98:	ff 92       	push	r15
     c9a:	0f 93       	push	r16
     c9c:	1f 93       	push	r17
     c9e:	cf 93       	push	r28
     ca0:	df 93       	push	r29
     ca2:	1f 92       	push	r1
     ca4:	1f 92       	push	r1
     ca6:	cd b7       	in	r28, 0x3d	; 61
     ca8:	de b7       	in	r29, 0x3e	; 62
     caa:	fc 01       	movw	r30, r24
	//myMessage:	whole message
	//myCMD:		2 indicator Chars (Position 1 and 2)
	//mySlotNr:		Slot Number (Position 3)
	
	//Local variables
	uint16_t myCMD = _MK16(myMessage[1],myMessage[2]);
     cac:	22 81       	ldd	r18, Z+2	; 0x02
     cae:	30 e0       	ldi	r19, 0x00	; 0
     cb0:	32 2f       	mov	r19, r18
     cb2:	22 27       	eor	r18, r18
     cb4:	81 81       	ldd	r24, Z+1	; 0x01
     cb6:	28 2b       	or	r18, r24
	int8_t mySlotNr = myMessage[3] - '0';
     cb8:	03 81       	ldd	r16, Z+3	; 0x03
     cba:	00 53       	subi	r16, 0x30	; 48
	int16_t temp16 = 0;
     cbc:	1a 82       	std	Y+2, r1	; 0x02
     cbe:	19 82       	std	Y+1, r1	; 0x01

	//Dependent on indicator Chars --> Command
	switch(myCMD)
     cc0:	2d 34       	cpi	r18, 0x4D	; 77
     cc2:	83 e4       	ldi	r24, 0x43	; 67
     cc4:	38 07       	cpc	r19, r24
     cc6:	09 f4       	brne	.+2      	; 0xcca <Terminal_SET_LED_Source+0x34>
     cc8:	81 c0       	rjmp	.+258    	; 0xdcc <Terminal_SET_LED_Source+0x136>
     cca:	29 34       	cpi	r18, 0x49	; 73
     ccc:	8e e4       	ldi	r24, 0x4E	; 78
     cce:	38 07       	cpc	r19, r24
     cd0:	29 f0       	breq	.+10     	; 0xcdc <Terminal_SET_LED_Source+0x46>
     cd2:	28 34       	cpi	r18, 0x48	; 72
     cd4:	33 44       	sbci	r19, 0x43	; 67
     cd6:	09 f0       	breq	.+2      	; 0xcda <Terminal_SET_LED_Source+0x44>
     cd8:	c9 c0       	rjmp	.+402    	; 0xe6c <Terminal_SET_LED_Source+0x1d6>
     cda:	29 c0       	rjmp	.+82     	; 0xd2e <Terminal_SET_LED_Source+0x98>
	{
		//4.1 Initialization
		case _MK16('I','N'):
			if (myMessage[5] != '\n')
     cdc:	85 81       	ldd	r24, Z+5	; 0x05
     cde:	8a 30       	cpi	r24, 0x0A	; 10
     ce0:	29 f0       	breq	.+10     	; 0xcec <Terminal_SET_LED_Source+0x56>
			{
				//to many signs
				TransmitStringLn("FORMAT ERR");
     ce2:	87 e1       	ldi	r24, 0x17	; 23
     ce4:	92 e0       	ldi	r25, 0x02	; 2
     ce6:	0e 94 12 19 	call	0x3224	; 0x3224 <TransmitStringLn>
     cea:	c4 c0       	rjmp	.+392    	; 0xe74 <Terminal_SET_LED_Source+0x1de>
			}
			else
			{
				//Overwrite old settings
				card_Type[mySlotNr-1] = 'L';
     cec:	00 2e       	mov	r0, r16
     cee:	00 0c       	add	r0, r0
     cf0:	11 0b       	sbc	r17, r17
     cf2:	f8 01       	movw	r30, r16
     cf4:	e3 56       	subi	r30, 0x63	; 99
     cf6:	fa 4f       	sbci	r31, 0xFA	; 250
     cf8:	8c e4       	ldi	r24, 0x4C	; 76
     cfa:	80 83       	st	Z, r24
				eeprom_write_block(card_Type, &card_Type_register_eeprom, 8);
     cfc:	48 e0       	ldi	r20, 0x08	; 8
     cfe:	50 e0       	ldi	r21, 0x00	; 0
     d00:	6c e3       	ldi	r22, 0x3C	; 60
     d02:	70 e0       	ldi	r23, 0x00	; 0
     d04:	8e e9       	ldi	r24, 0x9E	; 158
     d06:	95 e0       	ldi	r25, 0x05	; 5
     d08:	0e 94 49 23 	call	0x4692	; 0x4692 <eeprom_write_block>
								
				//Take default values
				LED_Source_Default_Values(mySlotNr);
     d0c:	c8 01       	movw	r24, r16
     d0e:	ff de       	rcall	.-514    	; 0xb0e <LED_Source_Default_Values>
				//Init
				LED_Source_Init(mySlotNr);
     d10:	c8 01       	movw	r24, r16
     d12:	64 df       	rcall	.-312    	; 0xbdc <LED_Source_Init>
			
				//Answer
				TransmitString("SIN");
     d14:	82 e2       	ldi	r24, 0x22	; 34
     d16:	92 e0       	ldi	r25, 0x02	; 2
     d18:	0e 94 10 19 	call	0x3220	; 0x3220 <TransmitString>
				TransmitInt(mySlotNr, 1);
     d1c:	61 e0       	ldi	r22, 0x01	; 1
     d1e:	c8 01       	movw	r24, r16
     d20:	0e 94 14 19 	call	0x3228	; 0x3228 <TransmitInt>
				TransmitStringLn("L");
     d24:	85 e9       	ldi	r24, 0x95	; 149
     d26:	92 e0       	ldi	r25, 0x02	; 2
     d28:	0e 94 12 19 	call	0x3224	; 0x3224 <TransmitStringLn>
     d2c:	a3 c0       	rjmp	.+326    	; 0xe74 <Terminal_SET_LED_Source+0x1de>
			break;
		
		
		//4.2 Set Heat Current
		case _MK16('H','C'):
			if (!ParseIntLn(&myMessage[6],4,&temp16))
     d2e:	ae 01       	movw	r20, r28
     d30:	4f 5f       	subi	r20, 0xFF	; 255
     d32:	5f 4f       	sbci	r21, 0xFF	; 255
     d34:	64 e0       	ldi	r22, 0x04	; 4
     d36:	cf 01       	movw	r24, r30
     d38:	06 96       	adiw	r24, 0x06	; 6
     d3a:	0e 94 dd 17 	call	0x2fba	; 0x2fba <ParseIntLn>
     d3e:	81 11       	cpse	r24, r1
     d40:	05 c0       	rjmp	.+10     	; 0xd4c <Terminal_SET_LED_Source+0xb6>
			{
				//no number
				TransmitStringLn("FORMAT ERR");
     d42:	87 e1       	ldi	r24, 0x17	; 23
     d44:	92 e0       	ldi	r25, 0x02	; 2
     d46:	0e 94 12 19 	call	0x3224	; 0x3224 <TransmitStringLn>
     d4a:	94 c0       	rjmp	.+296    	; 0xe74 <Terminal_SET_LED_Source+0x1de>
			}
			else if (temp16 > 1500 || temp16 < 0)
     d4c:	89 81       	ldd	r24, Y+1	; 0x01
     d4e:	9a 81       	ldd	r25, Y+2	; 0x02
     d50:	8d 3d       	cpi	r24, 0xDD	; 221
     d52:	95 40       	sbci	r25, 0x05	; 5
     d54:	28 f0       	brcs	.+10     	; 0xd60 <Terminal_SET_LED_Source+0xca>
			{
				//new current limit not between 0 and 1.5A
				TransmitStringLn("NUMBER ERR");
     d56:	86 e2       	ldi	r24, 0x26	; 38
     d58:	92 e0       	ldi	r25, 0x02	; 2
     d5a:	0e 94 12 19 	call	0x3224	; 0x3224 <TransmitStringLn>
     d5e:	8a c0       	rjmp	.+276    	; 0xe74 <Terminal_SET_LED_Source+0x1de>
			}
			else
			{
				TransmitString("SHC");
     d60:	80 e7       	ldi	r24, 0x70	; 112
     d62:	92 e0       	ldi	r25, 0x02	; 2
     d64:	0e 94 10 19 	call	0x3220	; 0x3220 <TransmitString>
				TransmitInt(mySlotNr, 1);
     d68:	00 2e       	mov	r0, r16
     d6a:	00 0c       	add	r0, r0
     d6c:	11 0b       	sbc	r17, r17
     d6e:	61 e0       	ldi	r22, 0x01	; 1
     d70:	c8 01       	movw	r24, r16
     d72:	0e 94 14 19 	call	0x3228	; 0x3228 <TransmitInt>
				TransmitString("L=");
     d76:	84 e7       	ldi	r24, 0x74	; 116
     d78:	92 e0       	ldi	r25, 0x02	; 2
     d7a:	0e 94 10 19 	call	0x3220	; 0x3220 <TransmitString>
				TransmitInt(temp16, 1);
     d7e:	61 e0       	ldi	r22, 0x01	; 1
     d80:	89 81       	ldd	r24, Y+1	; 0x01
     d82:	9a 81       	ldd	r25, Y+2	; 0x02
     d84:	0e 94 14 19 	call	0x3228	; 0x3228 <TransmitInt>
				TransmitStringLn(" mA");
     d88:	87 e7       	ldi	r24, 0x77	; 119
     d8a:	92 e0       	ldi	r25, 0x02	; 2
     d8c:	0e 94 12 19 	call	0x3224	; 0x3224 <TransmitStringLn>

				if (led_Source_Heat_Current_mA[mySlotNr-1] != temp16)
     d90:	c8 01       	movw	r24, r16
     d92:	01 97       	sbiw	r24, 0x01	; 1
     d94:	69 81       	ldd	r22, Y+1	; 0x01
     d96:	7a 81       	ldd	r23, Y+2	; 0x02
     d98:	fc 01       	movw	r30, r24
     d9a:	ee 0f       	add	r30, r30
     d9c:	ff 1f       	adc	r31, r31
     d9e:	e0 5f       	subi	r30, 0xF0	; 240
     da0:	fa 4f       	sbci	r31, 0xFA	; 250
     da2:	20 81       	ld	r18, Z
     da4:	31 81       	ldd	r19, Z+1	; 0x01
     da6:	26 17       	cp	r18, r22
     da8:	37 07       	cpc	r19, r23
     daa:	09 f4       	brne	.+2      	; 0xdae <Terminal_SET_LED_Source+0x118>
     dac:	63 c0       	rjmp	.+198    	; 0xe74 <Terminal_SET_LED_Source+0x1de>
				{
					led_Source_Heat_Current_mA[mySlotNr-1] = temp16;
     dae:	88 0f       	add	r24, r24
     db0:	99 1f       	adc	r25, r25
     db2:	7f 01       	movw	r14, r30
     db4:	71 83       	std	Z+1, r23	; 0x01
     db6:	60 83       	st	Z, r22
					eeprom_write_word(&parameter1_eeprom[mySlotNr-1], temp16);
     db8:	84 5d       	subi	r24, 0xD4	; 212
     dba:	9f 4f       	sbci	r25, 0xFF	; 255
     dbc:	0e 94 65 23 	call	0x46ca	; 0x46ca <eeprom_write_word>
					LED_Source_Set_Heat_Current(led_Source_Heat_Current_mA[mySlotNr-1], mySlotNr);
     dc0:	b8 01       	movw	r22, r16
     dc2:	f7 01       	movw	r30, r14
     dc4:	80 81       	ld	r24, Z
     dc6:	91 81       	ldd	r25, Z+1	; 0x01
     dc8:	cd de       	rcall	.-614    	; 0xb64 <LED_Source_Set_Heat_Current>
     dca:	54 c0       	rjmp	.+168    	; 0xe74 <Terminal_SET_LED_Source+0x1de>
			}
			break;
		
		//4.3 Set Meas Current
		case _MK16('M','C'):
			if (!ParseIntLn(&myMessage[6],3,&temp16))
     dcc:	ae 01       	movw	r20, r28
     dce:	4f 5f       	subi	r20, 0xFF	; 255
     dd0:	5f 4f       	sbci	r21, 0xFF	; 255
     dd2:	63 e0       	ldi	r22, 0x03	; 3
     dd4:	cf 01       	movw	r24, r30
     dd6:	06 96       	adiw	r24, 0x06	; 6
     dd8:	0e 94 dd 17 	call	0x2fba	; 0x2fba <ParseIntLn>
     ddc:	81 11       	cpse	r24, r1
     dde:	05 c0       	rjmp	.+10     	; 0xdea <Terminal_SET_LED_Source+0x154>
			{
				//no number
				TransmitStringLn("FORMAT ERR");
     de0:	87 e1       	ldi	r24, 0x17	; 23
     de2:	92 e0       	ldi	r25, 0x02	; 2
     de4:	0e 94 12 19 	call	0x3224	; 0x3224 <TransmitStringLn>
     de8:	45 c0       	rjmp	.+138    	; 0xe74 <Terminal_SET_LED_Source+0x1de>
			}
			else if (temp16 > 250 || temp16 < 50)
     dea:	89 81       	ldd	r24, Y+1	; 0x01
     dec:	9a 81       	ldd	r25, Y+2	; 0x02
     dee:	c2 97       	sbiw	r24, 0x32	; 50
     df0:	89 3c       	cpi	r24, 0xC9	; 201
     df2:	91 05       	cpc	r25, r1
     df4:	28 f0       	brcs	.+10     	; 0xe00 <Terminal_SET_LED_Source+0x16a>
			{
				//new current limit not between 5 and 25mA
				TransmitStringLn("NUMBER ERR");
     df6:	86 e2       	ldi	r24, 0x26	; 38
     df8:	92 e0       	ldi	r25, 0x02	; 2
     dfa:	0e 94 12 19 	call	0x3224	; 0x3224 <TransmitStringLn>
     dfe:	3a c0       	rjmp	.+116    	; 0xe74 <Terminal_SET_LED_Source+0x1de>
			}
			else
			{
				TransmitString("SMC");
     e00:	8b e7       	ldi	r24, 0x7B	; 123
     e02:	92 e0       	ldi	r25, 0x02	; 2
     e04:	0e 94 10 19 	call	0x3220	; 0x3220 <TransmitString>
				TransmitInt(mySlotNr, 1);
     e08:	00 2e       	mov	r0, r16
     e0a:	00 0c       	add	r0, r0
     e0c:	11 0b       	sbc	r17, r17
     e0e:	61 e0       	ldi	r22, 0x01	; 1
     e10:	c8 01       	movw	r24, r16
     e12:	0e 94 14 19 	call	0x3228	; 0x3228 <TransmitInt>
				TransmitString("L=");
     e16:	84 e7       	ldi	r24, 0x74	; 116
     e18:	92 e0       	ldi	r25, 0x02	; 2
     e1a:	0e 94 10 19 	call	0x3220	; 0x3220 <TransmitString>
				TransmitFloat(temp16, 1, 1);
     e1e:	41 e0       	ldi	r20, 0x01	; 1
     e20:	61 e0       	ldi	r22, 0x01	; 1
     e22:	89 81       	ldd	r24, Y+1	; 0x01
     e24:	9a 81       	ldd	r25, Y+2	; 0x02
     e26:	0e 94 e2 19 	call	0x33c4	; 0x33c4 <TransmitFloat>
				TransmitStringLn(" mA");
     e2a:	87 e7       	ldi	r24, 0x77	; 119
     e2c:	92 e0       	ldi	r25, 0x02	; 2
     e2e:	0e 94 12 19 	call	0x3224	; 0x3224 <TransmitStringLn>

				if (led_Source_Meas_Current_0mA1[mySlotNr-1] != temp16)
     e32:	c8 01       	movw	r24, r16
     e34:	01 97       	sbiw	r24, 0x01	; 1
     e36:	69 81       	ldd	r22, Y+1	; 0x01
     e38:	7a 81       	ldd	r23, Y+2	; 0x02
     e3a:	fc 01       	movw	r30, r24
     e3c:	ee 0f       	add	r30, r30
     e3e:	ff 1f       	adc	r31, r31
     e40:	e0 50       	subi	r30, 0x00	; 0
     e42:	fb 4f       	sbci	r31, 0xFB	; 251
     e44:	20 81       	ld	r18, Z
     e46:	31 81       	ldd	r19, Z+1	; 0x01
     e48:	26 17       	cp	r18, r22
     e4a:	37 07       	cpc	r19, r23
     e4c:	99 f0       	breq	.+38     	; 0xe74 <Terminal_SET_LED_Source+0x1de>
				{
					led_Source_Meas_Current_0mA1[mySlotNr-1] = temp16;
     e4e:	88 0f       	add	r24, r24
     e50:	99 1f       	adc	r25, r25
     e52:	7f 01       	movw	r14, r30
     e54:	71 83       	std	Z+1, r23	; 0x01
     e56:	60 83       	st	Z, r22
					eeprom_write_word(&parameter2_eeprom[mySlotNr-1],temp16);
     e58:	84 5e       	subi	r24, 0xE4	; 228
     e5a:	9f 4f       	sbci	r25, 0xFF	; 255
     e5c:	0e 94 65 23 	call	0x46ca	; 0x46ca <eeprom_write_word>
					LED_Source_Set_Meas_Current(led_Source_Meas_Current_0mA1[mySlotNr-1], mySlotNr);
     e60:	b8 01       	movw	r22, r16
     e62:	f7 01       	movw	r30, r14
     e64:	80 81       	ld	r24, Z
     e66:	91 81       	ldd	r25, Z+1	; 0x01
     e68:	a1 de       	rcall	.-702    	; 0xbac <LED_Source_Set_Meas_Current>
     e6a:	04 c0       	rjmp	.+8      	; 0xe74 <Terminal_SET_LED_Source+0x1de>
			}
			break;
		
		//Default --> Fehler
		default:
			TransmitStringLn("COMMAND ERR");
     e6c:	89 e4       	ldi	r24, 0x49	; 73
     e6e:	92 e0       	ldi	r25, 0x02	; 2
     e70:	0e 94 12 19 	call	0x3224	; 0x3224 <TransmitStringLn>
			break;		
		
	}
}
     e74:	0f 90       	pop	r0
     e76:	0f 90       	pop	r0
     e78:	df 91       	pop	r29
     e7a:	cf 91       	pop	r28
     e7c:	1f 91       	pop	r17
     e7e:	0f 91       	pop	r16
     e80:	ff 90       	pop	r15
     e82:	ef 90       	pop	r14
     e84:	08 95       	ret

00000e86 <Terminal_GET_LED_Source>:

void Terminal_GET_LED_Source(char *myMessage)
{
     e86:	cf 93       	push	r28
     e88:	df 93       	push	r29
     e8a:	fc 01       	movw	r30, r24
	//myCMD:		2 indicator Chars (Position 1 and 2)
	//mySlotNr:		Slot Number (Position 3)
	
	//Local variables
	uint16_t myCMD = _MK16(myMessage[1],myMessage[2]);
	int8_t mySlotNr = myMessage[3] - '0';
     e8c:	c3 81       	ldd	r28, Z+3	; 0x03
     e8e:	c0 53       	subi	r28, 0x30	; 48


	switch(myCMD){
     e90:	22 81       	ldd	r18, Z+2	; 0x02
     e92:	30 e0       	ldi	r19, 0x00	; 0
     e94:	32 2f       	mov	r19, r18
     e96:	22 27       	eor	r18, r18
     e98:	81 81       	ldd	r24, Z+1	; 0x01
     e9a:	28 2b       	or	r18, r24
     e9c:	28 34       	cpi	r18, 0x48	; 72
     e9e:	83 e4       	ldi	r24, 0x43	; 67
     ea0:	38 07       	cpc	r19, r24
     ea2:	21 f0       	breq	.+8      	; 0xeac <Terminal_GET_LED_Source+0x26>
     ea4:	2d 34       	cpi	r18, 0x4D	; 77
     ea6:	33 44       	sbci	r19, 0x43	; 67
     ea8:	f1 f0       	breq	.+60     	; 0xee6 <Terminal_GET_LED_Source+0x60>
     eaa:	3b c0       	rjmp	.+118    	; 0xf22 <Terminal_GET_LED_Source+0x9c>
		//4.1.1 Init is not necessary
		
		//4.1.2 Set Heat Current
		case _MK16('H','C'):
			TransmitString("GHC");
     eac:	8f e7       	ldi	r24, 0x7F	; 127
     eae:	92 e0       	ldi	r25, 0x02	; 2
     eb0:	0e 94 10 19 	call	0x3220	; 0x3220 <TransmitString>
			TransmitInt(mySlotNr, 1);
     eb4:	0c 2e       	mov	r0, r28
     eb6:	00 0c       	add	r0, r0
     eb8:	dd 0b       	sbc	r29, r29
     eba:	61 e0       	ldi	r22, 0x01	; 1
     ebc:	ce 01       	movw	r24, r28
     ebe:	0e 94 14 19 	call	0x3228	; 0x3228 <TransmitInt>
			TransmitString("L=");
     ec2:	84 e7       	ldi	r24, 0x74	; 116
     ec4:	92 e0       	ldi	r25, 0x02	; 2
     ec6:	0e 94 10 19 	call	0x3220	; 0x3220 <TransmitString>
			TransmitInt(led_Source_Heat_Current_mA[mySlotNr-1], 1);
     eca:	cc 0f       	add	r28, r28
     ecc:	dd 1f       	adc	r29, r29
     ece:	c2 5f       	subi	r28, 0xF2	; 242
     ed0:	da 4f       	sbci	r29, 0xFA	; 250
     ed2:	61 e0       	ldi	r22, 0x01	; 1
     ed4:	88 81       	ld	r24, Y
     ed6:	99 81       	ldd	r25, Y+1	; 0x01
     ed8:	0e 94 14 19 	call	0x3228	; 0x3228 <TransmitInt>
			TransmitStringLn(" mA");
     edc:	87 e7       	ldi	r24, 0x77	; 119
     ede:	92 e0       	ldi	r25, 0x02	; 2
     ee0:	0e 94 12 19 	call	0x3224	; 0x3224 <TransmitStringLn>
			break;
     ee4:	22 c0       	rjmp	.+68     	; 0xf2a <Terminal_GET_LED_Source+0xa4>
								
		//4.1.3 Set Meas Current
		case _MK16('M','C'):
			TransmitString("GMC");
     ee6:	83 e8       	ldi	r24, 0x83	; 131
     ee8:	92 e0       	ldi	r25, 0x02	; 2
     eea:	0e 94 10 19 	call	0x3220	; 0x3220 <TransmitString>
			TransmitInt(mySlotNr, 1);
     eee:	0c 2e       	mov	r0, r28
     ef0:	00 0c       	add	r0, r0
     ef2:	dd 0b       	sbc	r29, r29
     ef4:	61 e0       	ldi	r22, 0x01	; 1
     ef6:	ce 01       	movw	r24, r28
     ef8:	0e 94 14 19 	call	0x3228	; 0x3228 <TransmitInt>
			TransmitString("L=");
     efc:	84 e7       	ldi	r24, 0x74	; 116
     efe:	92 e0       	ldi	r25, 0x02	; 2
     f00:	0e 94 10 19 	call	0x3220	; 0x3220 <TransmitString>
			TransmitFloat(led_Source_Meas_Current_0mA1[mySlotNr-1], 1, 1);
     f04:	cc 0f       	add	r28, r28
     f06:	dd 1f       	adc	r29, r29
     f08:	c2 50       	subi	r28, 0x02	; 2
     f0a:	db 4f       	sbci	r29, 0xFB	; 251
     f0c:	41 e0       	ldi	r20, 0x01	; 1
     f0e:	61 e0       	ldi	r22, 0x01	; 1
     f10:	88 81       	ld	r24, Y
     f12:	99 81       	ldd	r25, Y+1	; 0x01
     f14:	0e 94 e2 19 	call	0x33c4	; 0x33c4 <TransmitFloat>
			TransmitStringLn(" mA");
     f18:	87 e7       	ldi	r24, 0x77	; 119
     f1a:	92 e0       	ldi	r25, 0x02	; 2
     f1c:	0e 94 12 19 	call	0x3224	; 0x3224 <TransmitStringLn>
			break;
     f20:	04 c0       	rjmp	.+8      	; 0xf2a <Terminal_GET_LED_Source+0xa4>
								
		//Default --> Fehler
		default:
			TransmitStringLn("COMMAND ERR");
     f22:	89 e4       	ldi	r24, 0x49	; 73
     f24:	92 e0       	ldi	r25, 0x02	; 2
     f26:	0e 94 12 19 	call	0x3224	; 0x3224 <TransmitStringLn>
			break;		
	}		
     f2a:	df 91       	pop	r29
     f2c:	cf 91       	pop	r28
     f2e:	08 95       	ret

00000f30 <BreakDown_Variables_from_EEPROM>:
	//Set V_GS
	BreakDown_Set_V_GS_mV(breakDown_V_GS_mV[slot_nr-1], slot_nr-1);
}

void BreakDown_Variables_from_EEPROM(int slot_nr)
{
     f30:	cf 93       	push	r28
     f32:	df 93       	push	r29
	breakDown_V_GS_mV[slot_nr-1] = eeprom_read_word(&parameter1_eeprom[slot_nr-1]);
     f34:	01 97       	sbiw	r24, 0x01	; 1
     f36:	ec 01       	movw	r28, r24
     f38:	cc 0f       	add	r28, r28
     f3a:	dd 1f       	adc	r29, r29
     f3c:	ce 01       	movw	r24, r28
     f3e:	84 5d       	subi	r24, 0xD4	; 212
     f40:	9f 4f       	sbci	r25, 0xFF	; 255
     f42:	0e 94 44 23 	call	0x4688	; 0x4688 <eeprom_read_word>
     f46:	c0 5e       	subi	r28, 0xE0	; 224
     f48:	da 4f       	sbci	r29, 0xFA	; 250
     f4a:	99 83       	std	Y+1, r25	; 0x01
     f4c:	88 83       	st	Y, r24
}
     f4e:	df 91       	pop	r29
     f50:	cf 91       	pop	r28
     f52:	08 95       	ret

00000f54 <BreakDown_Default_Values>:

void BreakDown_Default_Values(int slot_nr)
{
	//Set default values (Local & EEPROM)
	breakDown_V_GS_mV[slot_nr-1] = breakDown_V_GS_mV_default;
     f54:	01 97       	sbiw	r24, 0x01	; 1
     f56:	88 0f       	add	r24, r24
     f58:	99 1f       	adc	r25, r25
     f5a:	fc 01       	movw	r30, r24
     f5c:	e0 5e       	subi	r30, 0xE0	; 224
     f5e:	fa 4f       	sbci	r31, 0xFA	; 250
     f60:	11 82       	std	Z+1, r1	; 0x01
     f62:	10 82       	st	Z, r1
	
	eeprom_write_word(&parameter1_eeprom[slot_nr-1], breakDown_V_GS_mV[slot_nr-1]);
     f64:	60 e0       	ldi	r22, 0x00	; 0
     f66:	70 e0       	ldi	r23, 0x00	; 0
     f68:	84 5d       	subi	r24, 0xD4	; 212
     f6a:	9f 4f       	sbci	r25, 0xFF	; 255
     f6c:	0c 94 65 23 	jmp	0x46ca	; 0x46ca <eeprom_write_word>
     f70:	08 95       	ret

00000f72 <B_Set_Relais_to_BreakDownTest>:
//*******************************************************************
//						 Relay - FCTs
//*******************************************************************

void B_Set_Relais_to_BreakDownTest(int slot_nr)
{
     f72:	cf 93       	push	r28
	//Switch of all relays
	IO_Expander_set_Register(register_OLAT, 0x00, &IO_PORT6, slot_nr-1);
     f74:	cf ef       	ldi	r28, 0xFF	; 255
     f76:	c8 0f       	add	r28, r24
     f78:	2c 2f       	mov	r18, r28
     f7a:	48 e2       	ldi	r20, 0x28	; 40
     f7c:	50 e0       	ldi	r21, 0x00	; 0
     f7e:	60 e0       	ldi	r22, 0x00	; 0
     f80:	8a e0       	ldi	r24, 0x0A	; 10
     f82:	0e 94 00 12 	call	0x2400	; 0x2400 <IO_Expander_set_Register>
	#else
		//round up by default
		__ticks_dc = (uint32_t)(ceil(fabs(__tmp)));
	#endif

	__builtin_avr_delay_cycles(__ticks_dc);
     f86:	2f ef       	ldi	r18, 0xFF	; 255
     f88:	81 ee       	ldi	r24, 0xE1	; 225
     f8a:	94 e0       	ldi	r25, 0x04	; 4
     f8c:	21 50       	subi	r18, 0x01	; 1
     f8e:	80 40       	sbci	r24, 0x00	; 0
     f90:	90 40       	sbci	r25, 0x00	; 0
     f92:	e1 f7       	brne	.-8      	; 0xf8c <B_Set_Relais_to_BreakDownTest+0x1a>
     f94:	00 c0       	rjmp	.+0      	; 0xf96 <B_Set_Relais_to_BreakDownTest+0x24>
     f96:	00 00       	nop
	//Wait to be save that switched of
	_delay_ms(100);
	
	//Switch on relay 2 & 5
	//GS-->GND & DS-->SMU
	IO_Expander_set_Register(register_OLAT, 0x24, &IO_PORT6, slot_nr-1); 
     f98:	2c 2f       	mov	r18, r28
     f9a:	48 e2       	ldi	r20, 0x28	; 40
     f9c:	50 e0       	ldi	r21, 0x00	; 0
     f9e:	64 e2       	ldi	r22, 0x24	; 36
     fa0:	8a e0       	ldi	r24, 0x0A	; 10
     fa2:	0e 94 00 12 	call	0x2400	; 0x2400 <IO_Expander_set_Register>
}
     fa6:	cf 91       	pop	r28
     fa8:	08 95       	ret

00000faa <B_Set_Relais_to_Leakage_GS>:

void B_Set_Relais_to_Leakage_GS(int slot_nr)
{
     faa:	cf 93       	push	r28
	//Switch of all relays
	IO_Expander_set_Register(register_OLAT, 0x00, &IO_PORT6, slot_nr-1);
     fac:	cf ef       	ldi	r28, 0xFF	; 255
     fae:	c8 0f       	add	r28, r24
     fb0:	2c 2f       	mov	r18, r28
     fb2:	48 e2       	ldi	r20, 0x28	; 40
     fb4:	50 e0       	ldi	r21, 0x00	; 0
     fb6:	60 e0       	ldi	r22, 0x00	; 0
     fb8:	8a e0       	ldi	r24, 0x0A	; 10
     fba:	0e 94 00 12 	call	0x2400	; 0x2400 <IO_Expander_set_Register>
     fbe:	2f ef       	ldi	r18, 0xFF	; 255
     fc0:	81 ee       	ldi	r24, 0xE1	; 225
     fc2:	94 e0       	ldi	r25, 0x04	; 4
     fc4:	21 50       	subi	r18, 0x01	; 1
     fc6:	80 40       	sbci	r24, 0x00	; 0
     fc8:	90 40       	sbci	r25, 0x00	; 0
     fca:	e1 f7       	brne	.-8      	; 0xfc4 <B_Set_Relais_to_Leakage_GS+0x1a>
     fcc:	00 c0       	rjmp	.+0      	; 0xfce <B_Set_Relais_to_Leakage_GS+0x24>
     fce:	00 00       	nop
	//Wait to be save that switched of
	_delay_ms(100);
	
	//Switch on relay 1 & 3
	//GS-->SMU & DS-->GND
	IO_Expander_set_Register(register_OLAT, 0x0A, &IO_PORT6, slot_nr-1); 
     fd0:	2c 2f       	mov	r18, r28
     fd2:	48 e2       	ldi	r20, 0x28	; 40
     fd4:	50 e0       	ldi	r21, 0x00	; 0
     fd6:	6a e0       	ldi	r22, 0x0A	; 10
     fd8:	8a e0       	ldi	r24, 0x0A	; 10
     fda:	0e 94 00 12 	call	0x2400	; 0x2400 <IO_Expander_set_Register>
}
     fde:	cf 91       	pop	r28
     fe0:	08 95       	ret

00000fe2 <B_Set_Relais_to_Characteristic_Curve>:

void B_Set_Relais_to_Characteristic_Curve(int slot_nr)
{
     fe2:	cf 93       	push	r28
	//Switch of all relays
	IO_Expander_set_Register(register_OLAT, 0x00, &IO_PORT6, slot_nr-1);
     fe4:	cf ef       	ldi	r28, 0xFF	; 255
     fe6:	c8 0f       	add	r28, r24
     fe8:	2c 2f       	mov	r18, r28
     fea:	48 e2       	ldi	r20, 0x28	; 40
     fec:	50 e0       	ldi	r21, 0x00	; 0
     fee:	60 e0       	ldi	r22, 0x00	; 0
     ff0:	8a e0       	ldi	r24, 0x0A	; 10
     ff2:	0e 94 00 12 	call	0x2400	; 0x2400 <IO_Expander_set_Register>
     ff6:	2f ef       	ldi	r18, 0xFF	; 255
     ff8:	81 ee       	ldi	r24, 0xE1	; 225
     ffa:	94 e0       	ldi	r25, 0x04	; 4
     ffc:	21 50       	subi	r18, 0x01	; 1
     ffe:	80 40       	sbci	r24, 0x00	; 0
    1000:	90 40       	sbci	r25, 0x00	; 0
    1002:	e1 f7       	brne	.-8      	; 0xffc <B_Set_Relais_to_Characteristic_Curve+0x1a>
    1004:	00 c0       	rjmp	.+0      	; 0x1006 <B_Set_Relais_to_Characteristic_Curve+0x24>
    1006:	00 00       	nop
	//Wait to be save that switched of
	_delay_ms(100);
	
	//Switch on relay 0 & 4
	//GS-->DAC & DS-->COM
	IO_Expander_set_Register(register_OLAT, 0x11, &IO_PORT6, slot_nr-1); 
    1008:	2c 2f       	mov	r18, r28
    100a:	48 e2       	ldi	r20, 0x28	; 40
    100c:	50 e0       	ldi	r21, 0x00	; 0
    100e:	61 e1       	ldi	r22, 0x11	; 17
    1010:	8a e0       	ldi	r24, 0x0A	; 10
    1012:	0e 94 00 12 	call	0x2400	; 0x2400 <IO_Expander_set_Register>
}
    1016:	cf 91       	pop	r28
    1018:	08 95       	ret

0000101a <B_Set_Relais_to_BodyDiode_Curve>:

void B_Set_Relais_to_BodyDiode_Curve(int slot_nr)
{
    101a:	cf 93       	push	r28
	//Switch of all relays
	IO_Expander_set_Register(register_OLAT, 0x00, &IO_PORT6, slot_nr-1);
    101c:	cf ef       	ldi	r28, 0xFF	; 255
    101e:	c8 0f       	add	r28, r24
    1020:	2c 2f       	mov	r18, r28
    1022:	48 e2       	ldi	r20, 0x28	; 40
    1024:	50 e0       	ldi	r21, 0x00	; 0
    1026:	60 e0       	ldi	r22, 0x00	; 0
    1028:	8a e0       	ldi	r24, 0x0A	; 10
    102a:	0e 94 00 12 	call	0x2400	; 0x2400 <IO_Expander_set_Register>
    102e:	2f ef       	ldi	r18, 0xFF	; 255
    1030:	81 ee       	ldi	r24, 0xE1	; 225
    1032:	94 e0       	ldi	r25, 0x04	; 4
    1034:	21 50       	subi	r18, 0x01	; 1
    1036:	80 40       	sbci	r24, 0x00	; 0
    1038:	90 40       	sbci	r25, 0x00	; 0
    103a:	e1 f7       	brne	.-8      	; 0x1034 <B_Set_Relais_to_BodyDiode_Curve+0x1a>
    103c:	00 c0       	rjmp	.+0      	; 0x103e <B_Set_Relais_to_BodyDiode_Curve+0x24>
    103e:	00 00       	nop
	//Wait to be save that switched of
	_delay_ms(100);
	
	//Switch on relay 2 & 4
	//GS-->DAC & DS-->SMU
	IO_Expander_set_Register(register_OLAT, 0x14, &IO_PORT6, slot_nr-1); 
    1040:	2c 2f       	mov	r18, r28
    1042:	48 e2       	ldi	r20, 0x28	; 40
    1044:	50 e0       	ldi	r21, 0x00	; 0
    1046:	64 e1       	ldi	r22, 0x14	; 20
    1048:	8a e0       	ldi	r24, 0x0A	; 10
    104a:	0e 94 00 12 	call	0x2400	; 0x2400 <IO_Expander_set_Register>
}
    104e:	cf 91       	pop	r28
    1050:	08 95       	ret

00001052 <B_Set_Relais_all_off>:

void B_Set_Relais_all_off(int slot_nr)
{
	//Switch of all relays
	IO_Expander_set_Register(register_OLAT, 0x00, &IO_PORT6, slot_nr-1);
    1052:	2f ef       	ldi	r18, 0xFF	; 255
    1054:	28 0f       	add	r18, r24
    1056:	48 e2       	ldi	r20, 0x28	; 40
    1058:	50 e0       	ldi	r21, 0x00	; 0
    105a:	60 e0       	ldi	r22, 0x00	; 0
    105c:	8a e0       	ldi	r24, 0x0A	; 10
    105e:	0e 94 00 12 	call	0x2400	; 0x2400 <IO_Expander_set_Register>
    1062:	2f ef       	ldi	r18, 0xFF	; 255
    1064:	81 ee       	ldi	r24, 0xE1	; 225
    1066:	94 e0       	ldi	r25, 0x04	; 4
    1068:	21 50       	subi	r18, 0x01	; 1
    106a:	80 40       	sbci	r24, 0x00	; 0
    106c:	90 40       	sbci	r25, 0x00	; 0
    106e:	e1 f7       	brne	.-8      	; 0x1068 <B_Set_Relais_all_off+0x16>
    1070:	00 c0       	rjmp	.+0      	; 0x1072 <B_Set_Relais_all_off+0x20>
    1072:	00 00       	nop
    1074:	08 95       	ret

00001076 <BreakDown_Set_V_GS_mV>:
//*******************************************************************
//						 Setting - FCTs
//*******************************************************************

void BreakDown_Set_V_GS_mV(int16_t V_GS_mV, int slot_nr)
{
    1076:	cf 93       	push	r28
	
	//Calculate binary value
	uint16_t binary_value = (((int32_t)V_GS_mV) * 0xffff) / 40000;
	V_GS_mV = binary_value;
	//Send
	DAC_AD5752_Set(binary_value, &IO_PORT3, slot_nr-1, DAC_ADR_DAC_A);		
    1078:	cf ef       	ldi	r28, 0xFF	; 255
    107a:	c6 0f       	add	r28, r22
    107c:	2f ef       	ldi	r18, 0xFF	; 255
    107e:	3f ef       	ldi	r19, 0xFF	; 255
    1080:	dc 01       	movw	r26, r24
    1082:	0e 94 56 22 	call	0x44ac	; 0x44ac <__usmulhisi3>
    1086:	20 e4       	ldi	r18, 0x40	; 64
    1088:	3c e9       	ldi	r19, 0x9C	; 156
    108a:	40 e0       	ldi	r20, 0x00	; 0
    108c:	50 e0       	ldi	r21, 0x00	; 0
    108e:	0e 94 23 22 	call	0x4446	; 0x4446 <__divmodsi4>
    1092:	da 01       	movw	r26, r20
    1094:	c9 01       	movw	r24, r18
    1096:	20 e0       	ldi	r18, 0x00	; 0
    1098:	4c 2f       	mov	r20, r28
    109a:	62 e2       	ldi	r22, 0x22	; 34
    109c:	70 e0       	ldi	r23, 0x00	; 0
    109e:	0e 94 5c 11 	call	0x22b8	; 0x22b8 <DAC_AD5752_Set>
}
    10a2:	cf 91       	pop	r28
    10a4:	08 95       	ret

000010a6 <BreakDown_Init>:
//*******************************************************************
//						 Init & EEPROM
//*******************************************************************

void BreakDown_Init(int slot_nr)
{
    10a6:	0f 93       	push	r16
    10a8:	1f 93       	push	r17
    10aa:	cf 93       	push	r28
	//Set HP&MP to LOW, and all CS to HIGH
	_clear_bit(HP_Port, slot_nr - 1);
    10ac:	e2 e0       	ldi	r30, 0x02	; 2
    10ae:	f1 e0       	ldi	r31, 0x01	; 1
    10b0:	20 81       	ld	r18, Z
    10b2:	8c 01       	movw	r16, r24
    10b4:	01 50       	subi	r16, 0x01	; 1
    10b6:	11 09       	sbc	r17, r1
    10b8:	41 e0       	ldi	r20, 0x01	; 1
    10ba:	50 e0       	ldi	r21, 0x00	; 0
    10bc:	00 2e       	mov	r0, r16
    10be:	02 c0       	rjmp	.+4      	; 0x10c4 <BreakDown_Init+0x1e>
    10c0:	44 0f       	add	r20, r20
    10c2:	55 1f       	adc	r21, r21
    10c4:	0a 94       	dec	r0
    10c6:	e2 f7       	brpl	.-8      	; 0x10c0 <BreakDown_Init+0x1a>
    10c8:	94 2f       	mov	r25, r20
    10ca:	90 95       	com	r25
    10cc:	29 23       	and	r18, r25
    10ce:	20 83       	st	Z, r18
	_clear_bit(MP_Port, slot_nr - 1);
    10d0:	e8 e0       	ldi	r30, 0x08	; 8
    10d2:	f1 e0       	ldi	r31, 0x01	; 1
    10d4:	20 81       	ld	r18, Z
    10d6:	92 23       	and	r25, r18
    10d8:	90 83       	st	Z, r25
	_set_bit(IO_PORT3, slot_nr - 1);
    10da:	92 b1       	in	r25, 0x02	; 2
    10dc:	94 2b       	or	r25, r20
    10de:	92 b9       	out	0x02, r25	; 2
	_set_bit(IO_PORT4, slot_nr - 1);
    10e0:	e5 e0       	ldi	r30, 0x05	; 5
    10e2:	f1 e0       	ldi	r31, 0x01	; 1
    10e4:	90 81       	ld	r25, Z
    10e6:	94 2b       	or	r25, r20
    10e8:	90 83       	st	Z, r25
	_set_bit(IO_PORT5, slot_nr - 1);
    10ea:	9b b1       	in	r25, 0x0b	; 11
    10ec:	94 2b       	or	r25, r20
    10ee:	9b b9       	out	0x0b, r25	; 11
	_set_bit(IO_PORT6, slot_nr - 1);
    10f0:	98 b1       	in	r25, 0x08	; 8
    10f2:	94 2b       	or	r25, r20
    10f4:	98 b9       	out	0x08, r25	; 8
	//Set all as Output
	_set_out(HP_Port, slot_nr - 1);
    10f6:	e1 e0       	ldi	r30, 0x01	; 1
    10f8:	f1 e0       	ldi	r31, 0x01	; 1
    10fa:	90 81       	ld	r25, Z
    10fc:	94 2b       	or	r25, r20
    10fe:	90 83       	st	Z, r25
	_set_out(MP_Port, slot_nr - 1);
    1100:	e7 e0       	ldi	r30, 0x07	; 7
    1102:	f1 e0       	ldi	r31, 0x01	; 1
    1104:	90 81       	ld	r25, Z
    1106:	94 2b       	or	r25, r20
    1108:	90 83       	st	Z, r25
	_set_out(IO_PORT3, slot_nr - 1);
    110a:	91 b1       	in	r25, 0x01	; 1
    110c:	94 2b       	or	r25, r20
    110e:	91 b9       	out	0x01, r25	; 1
	_set_out(IO_PORT4, slot_nr - 1);
    1110:	e4 e0       	ldi	r30, 0x04	; 4
    1112:	f1 e0       	ldi	r31, 0x01	; 1
    1114:	90 81       	ld	r25, Z
    1116:	94 2b       	or	r25, r20
    1118:	90 83       	st	Z, r25
	_set_out(IO_PORT5, slot_nr - 1);
    111a:	9a b1       	in	r25, 0x0a	; 10
    111c:	94 2b       	or	r25, r20
    111e:	9a b9       	out	0x0a, r25	; 10
	_set_out(IO_PORT6, slot_nr - 1);
    1120:	97 b1       	in	r25, 0x07	; 7
    1122:	49 2b       	or	r20, r25
    1124:	47 b9       	out	0x07, r20	; 7
	
	//ADC initialization
	//Range: +10V
	//Only Channel A
	//DAC_AD5752_Range_and_PowerUp(Range_p5V, PowerUp_A, &IO_Port3, slot_nr-1);
	DAC_AD5752_Range_and_PowerUp(Range_pm5V, PowerUp_A, &IO_PORT3, slot_nr-1);
    1126:	cf ef       	ldi	r28, 0xFF	; 255
    1128:	c8 0f       	add	r28, r24
    112a:	2c 2f       	mov	r18, r28
    112c:	42 e2       	ldi	r20, 0x22	; 34
    112e:	50 e0       	ldi	r21, 0x00	; 0
    1130:	61 e0       	ldi	r22, 0x01	; 1
    1132:	83 e0       	ldi	r24, 0x03	; 3
    1134:	0e 94 31 11 	call	0x2262	; 0x2262 <DAC_AD5752_Range_and_PowerUp>
	
	//Register in MCP23S08:
	//All as Outputs
	//0 means OUT, 1 means IN
	IO_Expander_set_Register(register_IODIR, 0x00, &IO_PORT6, slot_nr-1);
    1138:	2c 2f       	mov	r18, r28
    113a:	48 e2       	ldi	r20, 0x28	; 40
    113c:	50 e0       	ldi	r21, 0x00	; 0
    113e:	60 e0       	ldi	r22, 0x00	; 0
    1140:	80 e0       	ldi	r24, 0x00	; 0
    1142:	0e 94 00 12 	call	0x2400	; 0x2400 <IO_Expander_set_Register>

	//All to LOW (Relays off)
	IO_Expander_set_Register(register_OLAT, 0x00, &IO_PORT6, slot_nr-1);
    1146:	2c 2f       	mov	r18, r28
    1148:	48 e2       	ldi	r20, 0x28	; 40
    114a:	50 e0       	ldi	r21, 0x00	; 0
    114c:	60 e0       	ldi	r22, 0x00	; 0
    114e:	8a e0       	ldi	r24, 0x0A	; 10
    1150:	0e 94 00 12 	call	0x2400	; 0x2400 <IO_Expander_set_Register>
	
	//Set V_GS
	BreakDown_Set_V_GS_mV(breakDown_V_GS_mV[slot_nr-1], slot_nr-1);
    1154:	f8 01       	movw	r30, r16
    1156:	ee 0f       	add	r30, r30
    1158:	ff 1f       	adc	r31, r31
    115a:	e0 5e       	subi	r30, 0xE0	; 224
    115c:	fa 4f       	sbci	r31, 0xFA	; 250
    115e:	b8 01       	movw	r22, r16
    1160:	80 81       	ld	r24, Z
    1162:	91 81       	ldd	r25, Z+1	; 0x01
    1164:	88 df       	rcall	.-240    	; 0x1076 <BreakDown_Set_V_GS_mV>
}
    1166:	cf 91       	pop	r28
    1168:	1f 91       	pop	r17
    116a:	0f 91       	pop	r16
    116c:	08 95       	ret

0000116e <B_Get_V_DS_in_mV>:
//*******************************************************************

int B_Get_V_DS_in_mV(int slot_nr)
{
	//get binary value
	uint32_t temp = LTC1864_getBIT_OneShot(&IO_PORT4, slot_nr-1);
    116e:	6f ef       	ldi	r22, 0xFF	; 255
    1170:	68 0f       	add	r22, r24
    1172:	85 e0       	ldi	r24, 0x05	; 5
    1174:	91 e0       	ldi	r25, 0x01	; 1
    1176:	0e 94 81 11 	call	0x2302	; 0x2302 <LTC1864_getBIT_OneShot>
	
	//Convert (DAC Range: 0...2,5V / Pre-Divider: 16 --> Whole Range 0...40000mV)
	return (temp * 40000)>>16;
    117a:	9c 01       	movw	r18, r24
    117c:	a0 e4       	ldi	r26, 0x40	; 64
    117e:	bc e9       	ldi	r27, 0x9C	; 156
    1180:	0c 94 47 22 	jmp	0x448e	; 0x448e <__umulhisi3>
}
    1184:	08 95       	ret

00001186 <B_Get_I_DS_in_mA>:

int B_Get_I_DS_in_mA(int slot_nr)
{
	//get binary value
	uint32_t temp = LTC1864_getBIT_OneShot(&IO_PORT5, slot_nr-1);
    1186:	6f ef       	ldi	r22, 0xFF	; 255
    1188:	68 0f       	add	r22, r24
    118a:	8b e2       	ldi	r24, 0x2B	; 43
    118c:	90 e0       	ldi	r25, 0x00	; 0
    118e:	0e 94 81 11 	call	0x2302	; 0x2302 <LTC1864_getBIT_OneShot>
	
	//Convert (DAC Range: 0...2,5V / R=50mOhm, Gain = 25 --> 0...2A)
	return (temp * 2000)>>16;
    1192:	9c 01       	movw	r18, r24
    1194:	a0 ed       	ldi	r26, 0xD0	; 208
    1196:	b7 e0       	ldi	r27, 0x07	; 7
    1198:	0c 94 47 22 	jmp	0x448e	; 0x448e <__umulhisi3>
}
    119c:	08 95       	ret

0000119e <Terminal_SET_BreakDown>:
//*******************************************************************
//							  Terminal
//*******************************************************************

void Terminal_SET_BreakDown(char *myMessage)
{
    119e:	ef 92       	push	r14
    11a0:	ff 92       	push	r15
    11a2:	0f 93       	push	r16
    11a4:	1f 93       	push	r17
    11a6:	cf 93       	push	r28
    11a8:	df 93       	push	r29
    11aa:	1f 92       	push	r1
    11ac:	1f 92       	push	r1
    11ae:	cd b7       	in	r28, 0x3d	; 61
    11b0:	de b7       	in	r29, 0x3e	; 62
    11b2:	fc 01       	movw	r30, r24
	//myMessage:	whole message
	//myCMD:		2 indicator Chars (Position 1 and 2)
	//mySlotNr:		Slot Number (Position 3)
	
	//Local variables
	uint16_t myCMD = _MK16(myMessage[1],myMessage[2]);
    11b4:	22 81       	ldd	r18, Z+2	; 0x02
    11b6:	30 e0       	ldi	r19, 0x00	; 0
    11b8:	32 2f       	mov	r19, r18
    11ba:	22 27       	eor	r18, r18
    11bc:	81 81       	ldd	r24, Z+1	; 0x01
    11be:	28 2b       	or	r18, r24
	int8_t mySlotNr = myMessage[3] - '0';
    11c0:	03 81       	ldd	r16, Z+3	; 0x03
    11c2:	00 53       	subi	r16, 0x30	; 48
	int16_t temp16 = 0;
    11c4:	1a 82       	std	Y+2, r1	; 0x02
    11c6:	19 82       	std	Y+1, r1	; 0x01
	
	//Dependent on indicator Chars --> Command
	switch(myCMD)
    11c8:	22 35       	cpi	r18, 0x52	; 82
    11ca:	84 e4       	ldi	r24, 0x44	; 68
    11cc:	38 07       	cpc	r19, r24
    11ce:	09 f4       	brne	.+2      	; 0x11d2 <Terminal_SET_BreakDown+0x34>
    11d0:	dd c0       	rjmp	.+442    	; 0x138c <Terminal_SET_BreakDown+0x1ee>
    11d2:	48 f4       	brcc	.+18     	; 0x11e6 <Terminal_SET_BreakDown+0x48>
    11d4:	22 35       	cpi	r18, 0x52	; 82
    11d6:	82 e4       	ldi	r24, 0x42	; 66
    11d8:	38 07       	cpc	r19, r24
    11da:	e1 f1       	breq	.+120    	; 0x1254 <Terminal_SET_BreakDown+0xb6>
    11dc:	22 35       	cpi	r18, 0x52	; 82
    11de:	33 44       	sbci	r19, 0x43	; 67
    11e0:	09 f4       	brne	.+2      	; 0x11e4 <Terminal_SET_BreakDown+0x46>
    11e2:	a0 c0       	rjmp	.+320    	; 0x1324 <Terminal_SET_BreakDown+0x186>
    11e4:	58 c1       	rjmp	.+688    	; 0x1496 <Terminal_SET_BreakDown+0x2f8>
    11e6:	22 35       	cpi	r18, 0x52	; 82
    11e8:	8c e4       	ldi	r24, 0x4C	; 76
    11ea:	38 07       	cpc	r19, r24
    11ec:	09 f4       	brne	.+2      	; 0x11f0 <Terminal_SET_BreakDown+0x52>
    11ee:	66 c0       	rjmp	.+204    	; 0x12bc <Terminal_SET_BreakDown+0x11e>
    11f0:	29 34       	cpi	r18, 0x49	; 73
    11f2:	8e e4       	ldi	r24, 0x4E	; 78
    11f4:	38 07       	cpc	r19, r24
    11f6:	29 f0       	breq	.+10     	; 0x1202 <Terminal_SET_BreakDown+0x64>
    11f8:	26 35       	cpi	r18, 0x56	; 86
    11fa:	37 44       	sbci	r19, 0x47	; 71
    11fc:	09 f0       	breq	.+2      	; 0x1200 <Terminal_SET_BreakDown+0x62>
    11fe:	4b c1       	rjmp	.+662    	; 0x1496 <Terminal_SET_BreakDown+0x2f8>
    1200:	f9 c0       	rjmp	.+498    	; 0x13f4 <Terminal_SET_BreakDown+0x256>
	{
		//1. Initialization
		case _MK16('I','N'):
			if (myMessage[5] != '\n')
    1202:	95 81       	ldd	r25, Z+5	; 0x05
    1204:	9a 30       	cpi	r25, 0x0A	; 10
    1206:	29 f0       	breq	.+10     	; 0x1212 <Terminal_SET_BreakDown+0x74>
			{
				//to many signs
				TransmitStringLn("FORMAT ERR");
    1208:	87 e1       	ldi	r24, 0x17	; 23
    120a:	92 e0       	ldi	r25, 0x02	; 2
    120c:	0e 94 12 19 	call	0x3224	; 0x3224 <TransmitStringLn>
    1210:	46 c1       	rjmp	.+652    	; 0x149e <Terminal_SET_BreakDown+0x300>
			}
			else
			{
				//Overwrite old settings
				card_Type[mySlotNr-1] = 'B';
    1212:	00 2e       	mov	r0, r16
    1214:	00 0c       	add	r0, r0
    1216:	11 0b       	sbc	r17, r17
    1218:	f8 01       	movw	r30, r16
    121a:	e3 56       	subi	r30, 0x63	; 99
    121c:	fa 4f       	sbci	r31, 0xFA	; 250
    121e:	82 e4       	ldi	r24, 0x42	; 66
    1220:	80 83       	st	Z, r24
				eeprom_write_block(card_Type, &card_Type_register_eeprom, 8);
    1222:	48 e0       	ldi	r20, 0x08	; 8
    1224:	50 e0       	ldi	r21, 0x00	; 0
    1226:	6c e3       	ldi	r22, 0x3C	; 60
    1228:	70 e0       	ldi	r23, 0x00	; 0
    122a:	8e e9       	ldi	r24, 0x9E	; 158
    122c:	95 e0       	ldi	r25, 0x05	; 5
    122e:	0e 94 49 23 	call	0x4692	; 0x4692 <eeprom_write_block>
								
				//Take default values
				BreakDown_Default_Values(mySlotNr);
    1232:	c8 01       	movw	r24, r16
    1234:	8f de       	rcall	.-738    	; 0xf54 <BreakDown_Default_Values>
				//Init
				BreakDown_Init(mySlotNr);
    1236:	c8 01       	movw	r24, r16
    1238:	36 df       	rcall	.-404    	; 0x10a6 <BreakDown_Init>
			
				//Answer
				TransmitString("SIN");
    123a:	82 e2       	ldi	r24, 0x22	; 34
    123c:	92 e0       	ldi	r25, 0x02	; 2
    123e:	0e 94 10 19 	call	0x3220	; 0x3220 <TransmitString>
				TransmitInt(mySlotNr, 1);
    1242:	61 e0       	ldi	r22, 0x01	; 1
    1244:	c8 01       	movw	r24, r16
    1246:	0e 94 14 19 	call	0x3228	; 0x3228 <TransmitInt>
				TransmitStringLn("B");
    124a:	89 e8       	ldi	r24, 0x89	; 137
    124c:	92 e0       	ldi	r25, 0x02	; 2
    124e:	0e 94 12 19 	call	0x3224	; 0x3224 <TransmitStringLn>
    1252:	25 c1       	rjmp	.+586    	; 0x149e <Terminal_SET_BreakDown+0x300>
			}
			break;
		
		//2. Relays for Breakdown
		case _MK16('R','B'):
			if (myMessage[6] == '1' && myMessage[7] == '\n')
    1254:	96 81       	ldd	r25, Z+6	; 0x06
    1256:	91 33       	cpi	r25, 0x31	; 49
    1258:	a9 f4       	brne	.+42     	; 0x1284 <Terminal_SET_BreakDown+0xe6>
    125a:	87 81       	ldd	r24, Z+7	; 0x07
    125c:	8a 30       	cpi	r24, 0x0A	; 10
    125e:	49 f5       	brne	.+82     	; 0x12b2 <Terminal_SET_BreakDown+0x114>
			{
				//Switch Relays
				B_Set_Relais_to_BreakDownTest(mySlotNr);
    1260:	00 2e       	mov	r0, r16
    1262:	00 0c       	add	r0, r0
    1264:	11 0b       	sbc	r17, r17
    1266:	c8 01       	movw	r24, r16
    1268:	84 de       	rcall	.-760    	; 0xf72 <B_Set_Relais_to_BreakDownTest>

				//Answer
				TransmitString("SRB");
    126a:	87 e8       	ldi	r24, 0x87	; 135
    126c:	92 e0       	ldi	r25, 0x02	; 2
    126e:	0e 94 10 19 	call	0x3220	; 0x3220 <TransmitString>
				TransmitInt(mySlotNr, 1);
    1272:	61 e0       	ldi	r22, 0x01	; 1
    1274:	c8 01       	movw	r24, r16
    1276:	0e 94 14 19 	call	0x3228	; 0x3228 <TransmitInt>
				TransmitStringLn("B=1");
    127a:	8b e8       	ldi	r24, 0x8B	; 139
    127c:	92 e0       	ldi	r25, 0x02	; 2
    127e:	0e 94 12 19 	call	0x3224	; 0x3224 <TransmitStringLn>
    1282:	0d c1       	rjmp	.+538    	; 0x149e <Terminal_SET_BreakDown+0x300>
			}
			else if (myMessage[6] == '0' && myMessage[7] == '\n')
    1284:	90 33       	cpi	r25, 0x30	; 48
    1286:	a9 f4       	brne	.+42     	; 0x12b2 <Terminal_SET_BreakDown+0x114>
    1288:	87 81       	ldd	r24, Z+7	; 0x07
    128a:	8a 30       	cpi	r24, 0x0A	; 10
    128c:	91 f4       	brne	.+36     	; 0x12b2 <Terminal_SET_BreakDown+0x114>
			{
				//Switch Relays
				B_Set_Relais_all_off(mySlotNr);
    128e:	00 2e       	mov	r0, r16
    1290:	00 0c       	add	r0, r0
    1292:	11 0b       	sbc	r17, r17
    1294:	c8 01       	movw	r24, r16
    1296:	dd de       	rcall	.-582    	; 0x1052 <B_Set_Relais_all_off>

				//Answer
				TransmitString("SRB");
    1298:	87 e8       	ldi	r24, 0x87	; 135
    129a:	92 e0       	ldi	r25, 0x02	; 2
    129c:	0e 94 10 19 	call	0x3220	; 0x3220 <TransmitString>
				TransmitInt(mySlotNr, 1);
    12a0:	61 e0       	ldi	r22, 0x01	; 1
    12a2:	c8 01       	movw	r24, r16
    12a4:	0e 94 14 19 	call	0x3228	; 0x3228 <TransmitInt>
				TransmitStringLn("B=0");
    12a8:	8f e8       	ldi	r24, 0x8F	; 143
    12aa:	92 e0       	ldi	r25, 0x02	; 2
    12ac:	0e 94 12 19 	call	0x3224	; 0x3224 <TransmitStringLn>
    12b0:	f6 c0       	rjmp	.+492    	; 0x149e <Terminal_SET_BreakDown+0x300>
			}
			else
			{
				//no number
				TransmitStringLn("FORMAT ERR");
    12b2:	87 e1       	ldi	r24, 0x17	; 23
    12b4:	92 e0       	ldi	r25, 0x02	; 2
    12b6:	0e 94 12 19 	call	0x3224	; 0x3224 <TransmitStringLn>
    12ba:	f1 c0       	rjmp	.+482    	; 0x149e <Terminal_SET_BreakDown+0x300>
			}
			break;
		
		//3. Relays for Leakage
		case _MK16('R','L'):
			if (myMessage[6] == '1' && myMessage[7] == '\n')
    12bc:	96 81       	ldd	r25, Z+6	; 0x06
    12be:	91 33       	cpi	r25, 0x31	; 49
    12c0:	a9 f4       	brne	.+42     	; 0x12ec <Terminal_SET_BreakDown+0x14e>
    12c2:	87 81       	ldd	r24, Z+7	; 0x07
    12c4:	8a 30       	cpi	r24, 0x0A	; 10
    12c6:	49 f5       	brne	.+82     	; 0x131a <Terminal_SET_BreakDown+0x17c>
			{
				//Switch Relays
				B_Set_Relais_to_Leakage_GS(mySlotNr);
    12c8:	00 2e       	mov	r0, r16
    12ca:	00 0c       	add	r0, r0
    12cc:	11 0b       	sbc	r17, r17
    12ce:	c8 01       	movw	r24, r16
    12d0:	6c de       	rcall	.-808    	; 0xfaa <B_Set_Relais_to_Leakage_GS>

				//Answer
				TransmitString("SRL");
    12d2:	83 e9       	ldi	r24, 0x93	; 147
    12d4:	92 e0       	ldi	r25, 0x02	; 2
    12d6:	0e 94 10 19 	call	0x3220	; 0x3220 <TransmitString>
				TransmitInt(mySlotNr, 1);
    12da:	61 e0       	ldi	r22, 0x01	; 1
    12dc:	c8 01       	movw	r24, r16
    12de:	0e 94 14 19 	call	0x3228	; 0x3228 <TransmitInt>
				TransmitStringLn("B=1");
    12e2:	8b e8       	ldi	r24, 0x8B	; 139
    12e4:	92 e0       	ldi	r25, 0x02	; 2
    12e6:	0e 94 12 19 	call	0x3224	; 0x3224 <TransmitStringLn>
    12ea:	d9 c0       	rjmp	.+434    	; 0x149e <Terminal_SET_BreakDown+0x300>
			}
			else if (myMessage[6] == '0' && myMessage[7] == '\n')
    12ec:	90 33       	cpi	r25, 0x30	; 48
    12ee:	a9 f4       	brne	.+42     	; 0x131a <Terminal_SET_BreakDown+0x17c>
    12f0:	87 81       	ldd	r24, Z+7	; 0x07
    12f2:	8a 30       	cpi	r24, 0x0A	; 10
			{
				//Switch Relays off
				B_Set_Relais_all_off(mySlotNr);
    12f4:	91 f4       	brne	.+36     	; 0x131a <Terminal_SET_BreakDown+0x17c>
    12f6:	00 2e       	mov	r0, r16
    12f8:	00 0c       	add	r0, r0
    12fa:	11 0b       	sbc	r17, r17
    12fc:	c8 01       	movw	r24, r16
    12fe:	a9 de       	rcall	.-686    	; 0x1052 <B_Set_Relais_all_off>

				//Answer
				TransmitString("SRL");
    1300:	83 e9       	ldi	r24, 0x93	; 147
    1302:	92 e0       	ldi	r25, 0x02	; 2
    1304:	0e 94 10 19 	call	0x3220	; 0x3220 <TransmitString>
				TransmitInt(mySlotNr, 1);
    1308:	61 e0       	ldi	r22, 0x01	; 1
    130a:	c8 01       	movw	r24, r16
    130c:	0e 94 14 19 	call	0x3228	; 0x3228 <TransmitInt>
				TransmitStringLn("B=0");
    1310:	8f e8       	ldi	r24, 0x8F	; 143
    1312:	92 e0       	ldi	r25, 0x02	; 2
    1314:	0e 94 12 19 	call	0x3224	; 0x3224 <TransmitStringLn>
    1318:	c2 c0       	rjmp	.+388    	; 0x149e <Terminal_SET_BreakDown+0x300>
			}
			else
			{
				//no number
				TransmitStringLn("FORMAT ERR");
    131a:	87 e1       	ldi	r24, 0x17	; 23
    131c:	92 e0       	ldi	r25, 0x02	; 2
    131e:	0e 94 12 19 	call	0x3224	; 0x3224 <TransmitStringLn>
    1322:	bd c0       	rjmp	.+378    	; 0x149e <Terminal_SET_BreakDown+0x300>
			}
			break;
		
		//4. Relays for Characteristic Curve
		case _MK16('R','C'):
			if (myMessage[6] == '1' && myMessage[7] == '\n')
    1324:	96 81       	ldd	r25, Z+6	; 0x06
    1326:	91 33       	cpi	r25, 0x31	; 49
    1328:	a9 f4       	brne	.+42     	; 0x1354 <Terminal_SET_BreakDown+0x1b6>
    132a:	87 81       	ldd	r24, Z+7	; 0x07
    132c:	8a 30       	cpi	r24, 0x0A	; 10
			{
				//Switch Relays
				B_Set_Relais_to_Characteristic_Curve(mySlotNr);
    132e:	49 f5       	brne	.+82     	; 0x1382 <Terminal_SET_BreakDown+0x1e4>
    1330:	00 2e       	mov	r0, r16
    1332:	00 0c       	add	r0, r0
    1334:	11 0b       	sbc	r17, r17
    1336:	c8 01       	movw	r24, r16
    1338:	54 de       	rcall	.-856    	; 0xfe2 <B_Set_Relais_to_Characteristic_Curve>

				//Answer
				TransmitString("SRC");
    133a:	87 e9       	ldi	r24, 0x97	; 151
    133c:	92 e0       	ldi	r25, 0x02	; 2
    133e:	0e 94 10 19 	call	0x3220	; 0x3220 <TransmitString>
				TransmitInt(mySlotNr, 1);
    1342:	61 e0       	ldi	r22, 0x01	; 1
    1344:	c8 01       	movw	r24, r16
    1346:	0e 94 14 19 	call	0x3228	; 0x3228 <TransmitInt>
				TransmitStringLn("B=1");
    134a:	8b e8       	ldi	r24, 0x8B	; 139
    134c:	92 e0       	ldi	r25, 0x02	; 2
    134e:	0e 94 12 19 	call	0x3224	; 0x3224 <TransmitStringLn>
    1352:	a5 c0       	rjmp	.+330    	; 0x149e <Terminal_SET_BreakDown+0x300>
			}
			else if (myMessage[6] == '0' && myMessage[7] == '\n')
    1354:	90 33       	cpi	r25, 0x30	; 48
    1356:	a9 f4       	brne	.+42     	; 0x1382 <Terminal_SET_BreakDown+0x1e4>
    1358:	87 81       	ldd	r24, Z+7	; 0x07
    135a:	8a 30       	cpi	r24, 0x0A	; 10
			{
				//Switch Relays off
				B_Set_Relais_all_off(mySlotNr);
    135c:	91 f4       	brne	.+36     	; 0x1382 <Terminal_SET_BreakDown+0x1e4>
    135e:	00 2e       	mov	r0, r16
    1360:	00 0c       	add	r0, r0
    1362:	11 0b       	sbc	r17, r17
    1364:	c8 01       	movw	r24, r16
    1366:	75 de       	rcall	.-790    	; 0x1052 <B_Set_Relais_all_off>

				//Answer
				TransmitString("SRC");
    1368:	87 e9       	ldi	r24, 0x97	; 151
    136a:	92 e0       	ldi	r25, 0x02	; 2
    136c:	0e 94 10 19 	call	0x3220	; 0x3220 <TransmitString>
				TransmitInt(mySlotNr, 1);
    1370:	61 e0       	ldi	r22, 0x01	; 1
    1372:	c8 01       	movw	r24, r16
    1374:	0e 94 14 19 	call	0x3228	; 0x3228 <TransmitInt>
				TransmitStringLn("B=0");
    1378:	8f e8       	ldi	r24, 0x8F	; 143
    137a:	92 e0       	ldi	r25, 0x02	; 2
    137c:	0e 94 12 19 	call	0x3224	; 0x3224 <TransmitStringLn>
    1380:	8e c0       	rjmp	.+284    	; 0x149e <Terminal_SET_BreakDown+0x300>
			}
			else
			{
				//no number
				TransmitStringLn("FORMAT ERR");
    1382:	87 e1       	ldi	r24, 0x17	; 23
    1384:	92 e0       	ldi	r25, 0x02	; 2
    1386:	0e 94 12 19 	call	0x3224	; 0x3224 <TransmitStringLn>
    138a:	89 c0       	rjmp	.+274    	; 0x149e <Terminal_SET_BreakDown+0x300>
			}
			break;
		
		//5. Relays for BodyDiode
		case _MK16('R','D'):
			if (myMessage[6] == '1' && myMessage[7] == '\n')
    138c:	96 81       	ldd	r25, Z+6	; 0x06
    138e:	91 33       	cpi	r25, 0x31	; 49
    1390:	a9 f4       	brne	.+42     	; 0x13bc <Terminal_SET_BreakDown+0x21e>
    1392:	87 81       	ldd	r24, Z+7	; 0x07
    1394:	8a 30       	cpi	r24, 0x0A	; 10
			{
				//Switch Relays
				B_Set_Relais_to_BodyDiode_Curve(mySlotNr);
    1396:	49 f5       	brne	.+82     	; 0x13ea <Terminal_SET_BreakDown+0x24c>
    1398:	00 2e       	mov	r0, r16
    139a:	00 0c       	add	r0, r0
    139c:	11 0b       	sbc	r17, r17
    139e:	c8 01       	movw	r24, r16
    13a0:	3c de       	rcall	.-904    	; 0x101a <B_Set_Relais_to_BodyDiode_Curve>

				//Answer
				TransmitString("SRD");
    13a2:	8b e9       	ldi	r24, 0x9B	; 155
    13a4:	92 e0       	ldi	r25, 0x02	; 2
    13a6:	0e 94 10 19 	call	0x3220	; 0x3220 <TransmitString>
				TransmitInt(mySlotNr, 1);
    13aa:	61 e0       	ldi	r22, 0x01	; 1
    13ac:	c8 01       	movw	r24, r16
    13ae:	0e 94 14 19 	call	0x3228	; 0x3228 <TransmitInt>
				TransmitStringLn("B=1");
    13b2:	8b e8       	ldi	r24, 0x8B	; 139
    13b4:	92 e0       	ldi	r25, 0x02	; 2
    13b6:	0e 94 12 19 	call	0x3224	; 0x3224 <TransmitStringLn>
    13ba:	71 c0       	rjmp	.+226    	; 0x149e <Terminal_SET_BreakDown+0x300>
			}
			else if (myMessage[6] == '0' && myMessage[7] == '\n')
    13bc:	90 33       	cpi	r25, 0x30	; 48
    13be:	a9 f4       	brne	.+42     	; 0x13ea <Terminal_SET_BreakDown+0x24c>
    13c0:	87 81       	ldd	r24, Z+7	; 0x07
    13c2:	8a 30       	cpi	r24, 0x0A	; 10
			{
				//Switch Relays off
				B_Set_Relais_all_off(mySlotNr);
    13c4:	91 f4       	brne	.+36     	; 0x13ea <Terminal_SET_BreakDown+0x24c>
    13c6:	00 2e       	mov	r0, r16
    13c8:	00 0c       	add	r0, r0
    13ca:	11 0b       	sbc	r17, r17
    13cc:	c8 01       	movw	r24, r16
    13ce:	41 de       	rcall	.-894    	; 0x1052 <B_Set_Relais_all_off>

				//Answer
				TransmitString("SRD");
    13d0:	8b e9       	ldi	r24, 0x9B	; 155
    13d2:	92 e0       	ldi	r25, 0x02	; 2
    13d4:	0e 94 10 19 	call	0x3220	; 0x3220 <TransmitString>
				TransmitInt(mySlotNr, 1);
    13d8:	61 e0       	ldi	r22, 0x01	; 1
    13da:	c8 01       	movw	r24, r16
    13dc:	0e 94 14 19 	call	0x3228	; 0x3228 <TransmitInt>
				TransmitStringLn("B=0");
    13e0:	8f e8       	ldi	r24, 0x8F	; 143
    13e2:	92 e0       	ldi	r25, 0x02	; 2
    13e4:	0e 94 12 19 	call	0x3224	; 0x3224 <TransmitStringLn>
    13e8:	5a c0       	rjmp	.+180    	; 0x149e <Terminal_SET_BreakDown+0x300>
			}
			else
			{
				//no number
				TransmitStringLn("FORMAT ERR");
    13ea:	87 e1       	ldi	r24, 0x17	; 23
    13ec:	92 e0       	ldi	r25, 0x02	; 2
    13ee:	0e 94 12 19 	call	0x3224	; 0x3224 <TransmitStringLn>
    13f2:	55 c0       	rjmp	.+170    	; 0x149e <Terminal_SET_BreakDown+0x300>
			}
			break;
			
		//6. Set V_GS voltage
		case _MK16('V', 'G'):
			if (!ParseIntLn(&myMessage[6],5,&temp16))
    13f4:	ae 01       	movw	r20, r28
    13f6:	4f 5f       	subi	r20, 0xFF	; 255
    13f8:	5f 4f       	sbci	r21, 0xFF	; 255
    13fa:	65 e0       	ldi	r22, 0x05	; 5
    13fc:	cf 01       	movw	r24, r30
    13fe:	06 96       	adiw	r24, 0x06	; 6
    1400:	0e 94 dd 17 	call	0x2fba	; 0x2fba <ParseIntLn>
    1404:	81 11       	cpse	r24, r1
    1406:	05 c0       	rjmp	.+10     	; 0x1412 <Terminal_SET_BreakDown+0x274>
			{
				//no number
				TransmitStringLn("FORMAT ERR");
    1408:	87 e1       	ldi	r24, 0x17	; 23
    140a:	92 e0       	ldi	r25, 0x02	; 2
    140c:	0e 94 12 19 	call	0x3224	; 0x3224 <TransmitStringLn>
    1410:	46 c0       	rjmp	.+140    	; 0x149e <Terminal_SET_BreakDown+0x300>
			}
			else if (temp16 > 20000 || temp16 < -20000)
    1412:	29 81       	ldd	r18, Y+1	; 0x01
    1414:	3a 81       	ldd	r19, Y+2	; 0x02
    1416:	20 5e       	subi	r18, 0xE0	; 224
    1418:	31 4b       	sbci	r19, 0xB1	; 177
    141a:	21 34       	cpi	r18, 0x41	; 65
    141c:	3c 49       	sbci	r19, 0x9C	; 156
    141e:	28 f0       	brcs	.+10     	; 0x142a <Terminal_SET_BreakDown+0x28c>
			{
				//0 bis 10 V
				TransmitStringLn("NUMBER ERR");
    1420:	86 e2       	ldi	r24, 0x26	; 38
    1422:	92 e0       	ldi	r25, 0x02	; 2
    1424:	0e 94 12 19 	call	0x3224	; 0x3224 <TransmitStringLn>
    1428:	3a c0       	rjmp	.+116    	; 0x149e <Terminal_SET_BreakDown+0x300>
			}
			else
			{
				TransmitString("SVG");
    142a:	8f e9       	ldi	r24, 0x9F	; 159
    142c:	92 e0       	ldi	r25, 0x02	; 2
    142e:	0e 94 10 19 	call	0x3220	; 0x3220 <TransmitString>
				TransmitInt(mySlotNr, 1);
    1432:	00 2e       	mov	r0, r16
    1434:	00 0c       	add	r0, r0
    1436:	11 0b       	sbc	r17, r17
    1438:	61 e0       	ldi	r22, 0x01	; 1
    143a:	c8 01       	movw	r24, r16
    143c:	0e 94 14 19 	call	0x3228	; 0x3228 <TransmitInt>
				TransmitString("B=");
    1440:	83 ea       	ldi	r24, 0xA3	; 163
    1442:	92 e0       	ldi	r25, 0x02	; 2
    1444:	0e 94 10 19 	call	0x3220	; 0x3220 <TransmitString>
				TransmitFloat(temp16,1, 3);
    1448:	43 e0       	ldi	r20, 0x03	; 3
    144a:	61 e0       	ldi	r22, 0x01	; 1
    144c:	89 81       	ldd	r24, Y+1	; 0x01
    144e:	9a 81       	ldd	r25, Y+2	; 0x02
    1450:	0e 94 e2 19 	call	0x33c4	; 0x33c4 <TransmitFloat>
				TransmitStringLn(" V");
    1454:	88 e3       	ldi	r24, 0x38	; 56
    1456:	92 e0       	ldi	r25, 0x02	; 2
    1458:	0e 94 12 19 	call	0x3224	; 0x3224 <TransmitStringLn>

				if (breakDown_V_GS_mV[mySlotNr-1] != temp16)
    145c:	c8 01       	movw	r24, r16
    145e:	01 97       	sbiw	r24, 0x01	; 1
    1460:	69 81       	ldd	r22, Y+1	; 0x01
    1462:	7a 81       	ldd	r23, Y+2	; 0x02
    1464:	fc 01       	movw	r30, r24
    1466:	ee 0f       	add	r30, r30
    1468:	ff 1f       	adc	r31, r31
    146a:	e0 5e       	subi	r30, 0xE0	; 224
    146c:	fa 4f       	sbci	r31, 0xFA	; 250
    146e:	20 81       	ld	r18, Z
    1470:	31 81       	ldd	r19, Z+1	; 0x01
    1472:	26 17       	cp	r18, r22
    1474:	37 07       	cpc	r19, r23
    1476:	99 f0       	breq	.+38     	; 0x149e <Terminal_SET_BreakDown+0x300>
				{
					breakDown_V_GS_mV[mySlotNr-1] = temp16;
    1478:	88 0f       	add	r24, r24
    147a:	99 1f       	adc	r25, r25
    147c:	7f 01       	movw	r14, r30
    147e:	71 83       	std	Z+1, r23	; 0x01
					eeprom_write_word(&parameter1_eeprom[mySlotNr-1], temp16);
    1480:	60 83       	st	Z, r22
    1482:	84 5d       	subi	r24, 0xD4	; 212
    1484:	9f 4f       	sbci	r25, 0xFF	; 255
    1486:	0e 94 65 23 	call	0x46ca	; 0x46ca <eeprom_write_word>
					BreakDown_Set_V_GS_mV(breakDown_V_GS_mV[mySlotNr-1], mySlotNr);
    148a:	b8 01       	movw	r22, r16
    148c:	f7 01       	movw	r30, r14
    148e:	80 81       	ld	r24, Z
    1490:	91 81       	ldd	r25, Z+1	; 0x01
    1492:	f1 dd       	rcall	.-1054   	; 0x1076 <BreakDown_Set_V_GS_mV>
    1494:	04 c0       	rjmp	.+8      	; 0x149e <Terminal_SET_BreakDown+0x300>
				}
			}
			break;
			
		default:
			TransmitStringLn("COMMAND ERR");
    1496:	89 e4       	ldi	r24, 0x49	; 73
    1498:	92 e0       	ldi	r25, 0x02	; 2
    149a:	0e 94 12 19 	call	0x3224	; 0x3224 <TransmitStringLn>
			break;
		
	}
}
    149e:	0f 90       	pop	r0
    14a0:	0f 90       	pop	r0
    14a2:	df 91       	pop	r29
    14a4:	cf 91       	pop	r28
    14a6:	1f 91       	pop	r17
    14a8:	0f 91       	pop	r16
    14aa:	ff 90       	pop	r15
    14ac:	ef 90       	pop	r14
    14ae:	08 95       	ret

000014b0 <Terminal_GET_BreakDown>:

void Terminal_GET_BreakDown(char *myMessage)
{
    14b0:	cf 93       	push	r28
    14b2:	df 93       	push	r29
    14b4:	fc 01       	movw	r30, r24
	//myCMD:		2 indicator Chars (Position 1 and 2)
	//mySlotNr:		Slot Number (Position 3)
		
	//Local variables
	uint16_t myCMD = _MK16(myMessage[1],myMessage[2]);
	int8_t mySlotNr = myMessage[3] - '0';
    14b6:	c3 81       	ldd	r28, Z+3	; 0x03
    14b8:	c0 53       	subi	r28, 0x30	; 48
	
	switch(myCMD){
    14ba:	22 81       	ldd	r18, Z+2	; 0x02
    14bc:	30 e0       	ldi	r19, 0x00	; 0
    14be:	32 2f       	mov	r19, r18
    14c0:	22 27       	eor	r18, r18
    14c2:	81 81       	ldd	r24, Z+1	; 0x01
    14c4:	28 2b       	or	r18, r24
    14c6:	26 35       	cpi	r18, 0x56	; 86
    14c8:	84 e4       	ldi	r24, 0x44	; 68
    14ca:	38 07       	cpc	r19, r24
    14cc:	31 f1       	breq	.+76     	; 0x151a <Terminal_GET_BreakDown+0x6a>
    14ce:	26 35       	cpi	r18, 0x56	; 86
    14d0:	87 e4       	ldi	r24, 0x47	; 71
    14d2:	38 07       	cpc	r19, r24
    14d4:	29 f0       	breq	.+10     	; 0x14e0 <Terminal_GET_BreakDown+0x30>
    14d6:	23 34       	cpi	r18, 0x43	; 67
    14d8:	34 44       	sbci	r19, 0x44	; 68
    14da:	09 f0       	breq	.+2      	; 0x14de <Terminal_GET_BreakDown+0x2e>
    14dc:	50 c0       	rjmp	.+160    	; 0x157e <Terminal_GET_BreakDown+0xce>
    14de:	36 c0       	rjmp	.+108    	; 0x154c <Terminal_GET_BreakDown+0x9c>
							
		//1. Voltage GS (set)
		case _MK16('V','G'):
			TransmitString("GVG");
    14e0:	86 ea       	ldi	r24, 0xA6	; 166
    14e2:	92 e0       	ldi	r25, 0x02	; 2
    14e4:	0e 94 10 19 	call	0x3220	; 0x3220 <TransmitString>
			TransmitInt(mySlotNr, 1);
    14e8:	0c 2e       	mov	r0, r28
    14ea:	00 0c       	add	r0, r0
    14ec:	dd 0b       	sbc	r29, r29
    14ee:	61 e0       	ldi	r22, 0x01	; 1
    14f0:	ce 01       	movw	r24, r28
    14f2:	0e 94 14 19 	call	0x3228	; 0x3228 <TransmitInt>
			TransmitString("B=");
    14f6:	83 ea       	ldi	r24, 0xA3	; 163
    14f8:	92 e0       	ldi	r25, 0x02	; 2
    14fa:	0e 94 10 19 	call	0x3220	; 0x3220 <TransmitString>
			TransmitInt(breakDown_V_GS_mV[mySlotNr-1], 1);
    14fe:	cc 0f       	add	r28, r28
    1500:	dd 1f       	adc	r29, r29
    1502:	c2 5e       	subi	r28, 0xE2	; 226
    1504:	da 4f       	sbci	r29, 0xFA	; 250
    1506:	61 e0       	ldi	r22, 0x01	; 1
    1508:	88 81       	ld	r24, Y
    150a:	99 81       	ldd	r25, Y+1	; 0x01
    150c:	0e 94 14 19 	call	0x3228	; 0x3228 <TransmitInt>
			TransmitStringLn(" V");
    1510:	88 e3       	ldi	r24, 0x38	; 56
    1512:	92 e0       	ldi	r25, 0x02	; 2
    1514:	0e 94 12 19 	call	0x3224	; 0x3224 <TransmitStringLn>
			break;
    1518:	36 c0       	rjmp	.+108    	; 0x1586 <Terminal_GET_BreakDown+0xd6>
			
		//2. Voltage DS (measured)
		case _MK16('V','D'):
			TransmitString("GVD");
    151a:	8a ea       	ldi	r24, 0xAA	; 170
    151c:	92 e0       	ldi	r25, 0x02	; 2
    151e:	0e 94 10 19 	call	0x3220	; 0x3220 <TransmitString>
			TransmitInt(mySlotNr, 1);
    1522:	0c 2e       	mov	r0, r28
    1524:	00 0c       	add	r0, r0
    1526:	dd 0b       	sbc	r29, r29
    1528:	61 e0       	ldi	r22, 0x01	; 1
    152a:	ce 01       	movw	r24, r28
    152c:	0e 94 14 19 	call	0x3228	; 0x3228 <TransmitInt>
			TransmitString("B=");
    1530:	83 ea       	ldi	r24, 0xA3	; 163
    1532:	92 e0       	ldi	r25, 0x02	; 2
    1534:	0e 94 10 19 	call	0x3220	; 0x3220 <TransmitString>
			TransmitInt(B_Get_V_DS_in_mV(mySlotNr), 1);
    1538:	ce 01       	movw	r24, r28
    153a:	19 de       	rcall	.-974    	; 0x116e <B_Get_V_DS_in_mV>
    153c:	61 e0       	ldi	r22, 0x01	; 1
    153e:	0e 94 14 19 	call	0x3228	; 0x3228 <TransmitInt>
			TransmitStringLn(" mV");
    1542:	8c e6       	ldi	r24, 0x6C	; 108
    1544:	92 e0       	ldi	r25, 0x02	; 2
    1546:	0e 94 12 19 	call	0x3224	; 0x3224 <TransmitStringLn>
			break;			
    154a:	1d c0       	rjmp	.+58     	; 0x1586 <Terminal_GET_BreakDown+0xd6>

		//3. Current DS (measured)
		case _MK16('C','D'):
		TransmitString("GCD");
    154c:	8e ea       	ldi	r24, 0xAE	; 174
    154e:	92 e0       	ldi	r25, 0x02	; 2
    1550:	0e 94 10 19 	call	0x3220	; 0x3220 <TransmitString>
		TransmitInt(mySlotNr, 1);
    1554:	0c 2e       	mov	r0, r28
    1556:	00 0c       	add	r0, r0
    1558:	dd 0b       	sbc	r29, r29
    155a:	61 e0       	ldi	r22, 0x01	; 1
    155c:	ce 01       	movw	r24, r28
    155e:	0e 94 14 19 	call	0x3228	; 0x3228 <TransmitInt>
		TransmitString("B=");
    1562:	83 ea       	ldi	r24, 0xA3	; 163
    1564:	92 e0       	ldi	r25, 0x02	; 2
    1566:	0e 94 10 19 	call	0x3220	; 0x3220 <TransmitString>
		TransmitInt(B_Get_I_DS_in_mA(mySlotNr), 1);
    156a:	ce 01       	movw	r24, r28
    156c:	0c de       	rcall	.-1000   	; 0x1186 <B_Get_I_DS_in_mA>
    156e:	61 e0       	ldi	r22, 0x01	; 1
    1570:	0e 94 14 19 	call	0x3228	; 0x3228 <TransmitInt>
		TransmitStringLn(" mA");
    1574:	87 e7       	ldi	r24, 0x77	; 119
    1576:	92 e0       	ldi	r25, 0x02	; 2
    1578:	0e 94 12 19 	call	0x3224	; 0x3224 <TransmitStringLn>
		break;
    157c:	04 c0       	rjmp	.+8      	; 0x1586 <Terminal_GET_BreakDown+0xd6>
												
		//Default --> Fehler
		default:
			TransmitStringLn("COMMAND ERR");
    157e:	89 e4       	ldi	r24, 0x49	; 73
    1580:	92 e0       	ldi	r25, 0x02	; 2
    1582:	0e 94 12 19 	call	0x3224	; 0x3224 <TransmitStringLn>
			break;							
	}

    1586:	df 91       	pop	r29
    1588:	cf 91       	pop	r28
    158a:	08 95       	ret

0000158c <MOSFET_Source_Variables_from_EEPROM>:
	MOSFET_Source_Set_Meas_Current(mosfet_Source_Meas_Current_0mA1[slot_nr-1], slot_nr);
	MOSFET_Source_Set_Meas_Voltage(mosfet_Source_Meas_Voltage_10mV[slot_nr-1], slot_nr);
}

void MOSFET_Source_Variables_from_EEPROM(int slot_nr)
{
    158c:	cf 93       	push	r28
    158e:	df 93       	push	r29
	mosfet_Source_Heat_Current_mA[slot_nr-1] = eeprom_read_word(&parameter1_eeprom[slot_nr-1]);
    1590:	01 97       	sbiw	r24, 0x01	; 1
    1592:	ec 01       	movw	r28, r24
    1594:	cc 0f       	add	r28, r28
    1596:	dd 1f       	adc	r29, r29
    1598:	ce 01       	movw	r24, r28
    159a:	84 5d       	subi	r24, 0xD4	; 212
    159c:	9f 4f       	sbci	r25, 0xFF	; 255
    159e:	0e 94 44 23 	call	0x4688	; 0x4688 <eeprom_read_word>
    15a2:	fe 01       	movw	r30, r28
    15a4:	e0 5c       	subi	r30, 0xC0	; 192
    15a6:	fa 4f       	sbci	r31, 0xFA	; 250
    15a8:	91 83       	std	Z+1, r25	; 0x01
    15aa:	80 83       	st	Z, r24
	mosfet_Source_Meas_Current_0mA1[slot_nr-1] = eeprom_read_word(&parameter2_eeprom[slot_nr-1]);
    15ac:	ce 01       	movw	r24, r28
    15ae:	84 5e       	subi	r24, 0xE4	; 228
    15b0:	9f 4f       	sbci	r25, 0xFF	; 255
    15b2:	0e 94 44 23 	call	0x4688	; 0x4688 <eeprom_read_word>
    15b6:	fe 01       	movw	r30, r28
    15b8:	e0 5d       	subi	r30, 0xD0	; 208
    15ba:	fa 4f       	sbci	r31, 0xFA	; 250
    15bc:	91 83       	std	Z+1, r25	; 0x01
    15be:	80 83       	st	Z, r24
	mosfet_Source_Meas_Voltage_10mV[slot_nr-1] = eeprom_read_word(&parameter3_eeprom[slot_nr-1]);
    15c0:	ce 01       	movw	r24, r28
    15c2:	84 5f       	subi	r24, 0xF4	; 244
    15c4:	9f 4f       	sbci	r25, 0xFF	; 255
    15c6:	0e 94 44 23 	call	0x4688	; 0x4688 <eeprom_read_word>
    15ca:	c0 5b       	subi	r28, 0xB0	; 176
    15cc:	da 4f       	sbci	r29, 0xFA	; 250
    15ce:	99 83       	std	Y+1, r25	; 0x01
    15d0:	88 83       	st	Y, r24
}
    15d2:	df 91       	pop	r29
    15d4:	cf 91       	pop	r28
    15d6:	08 95       	ret

000015d8 <MOSFET_Source_Default_Values>:

void MOSFET_Source_Default_Values(int slot_nr)
{
    15d8:	ef 92       	push	r14
    15da:	ff 92       	push	r15
    15dc:	0f 93       	push	r16
    15de:	1f 93       	push	r17
    15e0:	cf 93       	push	r28
    15e2:	df 93       	push	r29
	//Set default values (Local & EEPROM)
	mosfet_Source_Heat_Current_mA[slot_nr-1] = mosfet_source_Heat_current_default;
    15e4:	01 97       	sbiw	r24, 0x01	; 1
    15e6:	ec 01       	movw	r28, r24
    15e8:	cc 0f       	add	r28, r28
    15ea:	dd 1f       	adc	r29, r29
    15ec:	fe 01       	movw	r30, r28
    15ee:	e0 5c       	subi	r30, 0xC0	; 192
    15f0:	fa 4f       	sbci	r31, 0xFA	; 250
    15f2:	84 ef       	ldi	r24, 0xF4	; 244
    15f4:	91 e0       	ldi	r25, 0x01	; 1
    15f6:	91 83       	std	Z+1, r25	; 0x01
    15f8:	80 83       	st	Z, r24
	mosfet_Source_Meas_Current_0mA1[slot_nr-1] = mosfet_source_Meas_current_default;
    15fa:	ce 01       	movw	r24, r28
    15fc:	80 5d       	subi	r24, 0xD0	; 208
    15fe:	9a 4f       	sbci	r25, 0xFA	; 250
    1600:	7c 01       	movw	r14, r24
    1602:	88 ec       	ldi	r24, 0xC8	; 200
    1604:	90 e0       	ldi	r25, 0x00	; 0
    1606:	f7 01       	movw	r30, r14
    1608:	91 83       	std	Z+1, r25	; 0x01
    160a:	80 83       	st	Z, r24
	mosfet_Source_Meas_Voltage_10mV[slot_nr-1] = mosfet_source_Meas_voltage_default;
    160c:	8e 01       	movw	r16, r28
    160e:	00 5b       	subi	r16, 0xB0	; 176
    1610:	1a 4f       	sbci	r17, 0xFA	; 250
    1612:	88 ee       	ldi	r24, 0xE8	; 232
    1614:	93 e0       	ldi	r25, 0x03	; 3
    1616:	f8 01       	movw	r30, r16
    1618:	91 83       	std	Z+1, r25	; 0x01
    161a:	80 83       	st	Z, r24
	
	eeprom_write_word(&parameter1_eeprom[slot_nr-1], mosfet_Source_Heat_Current_mA[slot_nr-1]);
    161c:	64 ef       	ldi	r22, 0xF4	; 244
    161e:	71 e0       	ldi	r23, 0x01	; 1
    1620:	ce 01       	movw	r24, r28
    1622:	84 5d       	subi	r24, 0xD4	; 212
    1624:	9f 4f       	sbci	r25, 0xFF	; 255
    1626:	0e 94 65 23 	call	0x46ca	; 0x46ca <eeprom_write_word>
	eeprom_write_word(&parameter2_eeprom[slot_nr-1], mosfet_Source_Meas_Current_0mA1[slot_nr-1]);
    162a:	f7 01       	movw	r30, r14
    162c:	60 81       	ld	r22, Z
    162e:	71 81       	ldd	r23, Z+1	; 0x01
    1630:	ce 01       	movw	r24, r28
    1632:	84 5e       	subi	r24, 0xE4	; 228
    1634:	9f 4f       	sbci	r25, 0xFF	; 255
    1636:	0e 94 65 23 	call	0x46ca	; 0x46ca <eeprom_write_word>
	eeprom_write_word(&parameter3_eeprom[slot_nr-1], mosfet_Source_Meas_Voltage_10mV[slot_nr-1]);
    163a:	f8 01       	movw	r30, r16
    163c:	60 81       	ld	r22, Z
    163e:	71 81       	ldd	r23, Z+1	; 0x01
    1640:	ce 01       	movw	r24, r28
    1642:	84 5f       	subi	r24, 0xF4	; 244
    1644:	9f 4f       	sbci	r25, 0xFF	; 255
    1646:	0e 94 65 23 	call	0x46ca	; 0x46ca <eeprom_write_word>
}
    164a:	df 91       	pop	r29
    164c:	cf 91       	pop	r28
    164e:	1f 91       	pop	r17
    1650:	0f 91       	pop	r16
    1652:	ff 90       	pop	r15
    1654:	ef 90       	pop	r14
    1656:	08 95       	ret

00001658 <MOSFET_Source_Set_Heat_Current>:
//*******************************************************************
//						 Setting - FCTs
//*******************************************************************

void MOSFET_Source_Set_Heat_Current(uint16_t current_mA, int slot_nr)
{
    1658:	cf 93       	push	r28
	
	//Binär Wert berechnen
	uint16_t binary_value = (((uint32_t) current_mA) * 0xffff) / 5000;
		
	//Senden
	DAC_AD5752_Set(binary_value, &IO_PORT3, slot_nr-1, DAC_ADR_DAC_A);
    165a:	cf ef       	ldi	r28, 0xFF	; 255
    165c:	c6 0f       	add	r28, r22
    165e:	9c 01       	movw	r18, r24
    1660:	af ef       	ldi	r26, 0xFF	; 255
    1662:	bf ef       	ldi	r27, 0xFF	; 255
    1664:	0e 94 47 22 	call	0x448e	; 0x448e <__umulhisi3>
    1668:	28 e8       	ldi	r18, 0x88	; 136
    166a:	33 e1       	ldi	r19, 0x13	; 19
    166c:	40 e0       	ldi	r20, 0x00	; 0
    166e:	50 e0       	ldi	r21, 0x00	; 0
    1670:	0e 94 01 22 	call	0x4402	; 0x4402 <__udivmodsi4>
    1674:	da 01       	movw	r26, r20
    1676:	c9 01       	movw	r24, r18
    1678:	20 e0       	ldi	r18, 0x00	; 0
    167a:	4c 2f       	mov	r20, r28
    167c:	62 e2       	ldi	r22, 0x22	; 34
    167e:	70 e0       	ldi	r23, 0x00	; 0
    1680:	1b d6       	rcall	.+3126   	; 0x22b8 <DAC_AD5752_Set>
}
    1682:	cf 91       	pop	r28
    1684:	08 95       	ret

00001686 <MOSFET_Source_Set_Meas_Current>:

void MOSFET_Source_Set_Meas_Current(uint16_t current_10th_mA, int slot_nr)
{
    1686:	cf 93       	push	r28
	
	//Binär Wert berechnen
	uint16_t binary_value = (((uint32_t) current_10th_mA) * 0xffff) / 250;
	
	//Senden
	DAC_AD5752_Set(binary_value, &IO_PORT3, slot_nr-1, DAC_ADR_DAC_B);	
    1688:	cf ef       	ldi	r28, 0xFF	; 255
    168a:	c6 0f       	add	r28, r22
    168c:	9c 01       	movw	r18, r24
    168e:	af ef       	ldi	r26, 0xFF	; 255
    1690:	bf ef       	ldi	r27, 0xFF	; 255
    1692:	0e 94 47 22 	call	0x448e	; 0x448e <__umulhisi3>
    1696:	2a ef       	ldi	r18, 0xFA	; 250
    1698:	30 e0       	ldi	r19, 0x00	; 0
    169a:	40 e0       	ldi	r20, 0x00	; 0
    169c:	50 e0       	ldi	r21, 0x00	; 0
    169e:	0e 94 01 22 	call	0x4402	; 0x4402 <__udivmodsi4>
    16a2:	da 01       	movw	r26, r20
    16a4:	c9 01       	movw	r24, r18
    16a6:	22 e0       	ldi	r18, 0x02	; 2
    16a8:	4c 2f       	mov	r20, r28
    16aa:	62 e2       	ldi	r22, 0x22	; 34
    16ac:	70 e0       	ldi	r23, 0x00	; 0
    16ae:	04 d6       	rcall	.+3080   	; 0x22b8 <DAC_AD5752_Set>

}
    16b0:	cf 91       	pop	r28
    16b2:	08 95       	ret

000016b4 <MOSFET_Source_Set_Meas_Voltage>:

void MOSFET_Source_Set_Meas_Voltage(uint16_t voltage_10mV, int slot_nr)
{
    16b4:	8f 92       	push	r8
    16b6:	9f 92       	push	r9
    16b8:	af 92       	push	r10
    16ba:	bf 92       	push	r11
    16bc:	cf 92       	push	r12
    16be:	df 92       	push	r13
    16c0:	ef 92       	push	r14
    16c2:	ff 92       	push	r15
    16c4:	0f 93       	push	r16
    16c6:	1f 93       	push	r17
    16c8:	cf 93       	push	r28
    16ca:	df 93       	push	r29
    16cc:	1f 92       	push	r1
    16ce:	1f 92       	push	r1
    16d0:	cd b7       	in	r28, 0x3d	; 61
    16d2:	de b7       	in	r29, 0x3e	; 62
    16d4:	16 2f       	mov	r17, r22
	-Heizquelle immer an ChipSelect2 [channel] & Kanal B
	-U_max = 20V
	*/
	
	//Binär Wert berechnen (URef = 0,33 * U_A- 1,61V)
	volatile uint16_t binary_value = ((((uint32_t)voltage_10mV * 10) / 3 - 1610) * 0xffff) / 5000;
    16d6:	a0 e0       	ldi	r26, 0x00	; 0
    16d8:	b0 e0       	ldi	r27, 0x00	; 0
    16da:	88 0f       	add	r24, r24
    16dc:	99 1f       	adc	r25, r25
    16de:	aa 1f       	adc	r26, r26
    16e0:	bb 1f       	adc	r27, r27
    16e2:	ac 01       	movw	r20, r24
    16e4:	bd 01       	movw	r22, r26
    16e6:	44 0f       	add	r20, r20
    16e8:	55 1f       	adc	r21, r21
    16ea:	66 1f       	adc	r22, r22
    16ec:	77 1f       	adc	r23, r23
    16ee:	44 0f       	add	r20, r20
    16f0:	55 1f       	adc	r21, r21
    16f2:	66 1f       	adc	r22, r22
    16f4:	77 1f       	adc	r23, r23
    16f6:	6c 01       	movw	r12, r24
    16f8:	7d 01       	movw	r14, r26
    16fa:	c4 0e       	add	r12, r20
    16fc:	d5 1e       	adc	r13, r21
    16fe:	e6 1e       	adc	r14, r22
    1700:	f7 1e       	adc	r15, r23
    1702:	c7 01       	movw	r24, r14
    1704:	b6 01       	movw	r22, r12
    1706:	2b ea       	ldi	r18, 0xAB	; 171
    1708:	3a ea       	ldi	r19, 0xAA	; 170
    170a:	4a ea       	ldi	r20, 0xAA	; 170
    170c:	5a ea       	ldi	r21, 0xAA	; 170
    170e:	0e 94 66 22 	call	0x44cc	; 0x44cc <__umulsidi3>
    1712:	00 e2       	ldi	r16, 0x20	; 32
    1714:	0e 94 8f 22 	call	0x451e	; 0x451e <__lshrdi3>
    1718:	82 2e       	mov	r8, r18
    171a:	93 2e       	mov	r9, r19
    171c:	a4 2e       	mov	r10, r20
    171e:	b5 2e       	mov	r11, r21
    1720:	a5 01       	movw	r20, r10
    1722:	94 01       	movw	r18, r8
    1724:	56 95       	lsr	r21
    1726:	47 95       	ror	r20
    1728:	37 95       	ror	r19
    172a:	27 95       	ror	r18
    172c:	af ef       	ldi	r26, 0xFF	; 255
    172e:	bf ef       	ldi	r27, 0xFF	; 255
    1730:	0e 94 5c 22 	call	0x44b8	; 0x44b8 <__muluhisi3>
    1734:	66 5b       	subi	r22, 0xB6	; 182
    1736:	79 4f       	sbci	r23, 0xF9	; 249
    1738:	89 44       	sbci	r24, 0x49	; 73
    173a:	96 40       	sbci	r25, 0x06	; 6
    173c:	28 e8       	ldi	r18, 0x88	; 136
    173e:	33 e1       	ldi	r19, 0x13	; 19
    1740:	40 e0       	ldi	r20, 0x00	; 0
    1742:	50 e0       	ldi	r21, 0x00	; 0
    1744:	0e 94 01 22 	call	0x4402	; 0x4402 <__udivmodsi4>
    1748:	3a 83       	std	Y+2, r19	; 0x02
    174a:	29 83       	std	Y+1, r18	; 0x01
		
	//Senden
	DAC_AD5752_Set(binary_value, &IO_PORT4, slot_nr-1, DAC_ADR_DAC_A);
    174c:	89 81       	ldd	r24, Y+1	; 0x01
    174e:	9a 81       	ldd	r25, Y+2	; 0x02
    1750:	4f ef       	ldi	r20, 0xFF	; 255
    1752:	41 0f       	add	r20, r17
    1754:	20 e0       	ldi	r18, 0x00	; 0
    1756:	65 e0       	ldi	r22, 0x05	; 5
    1758:	71 e0       	ldi	r23, 0x01	; 1
    175a:	ae d5       	rcall	.+2908   	; 0x22b8 <DAC_AD5752_Set>
}
    175c:	0f 90       	pop	r0
    175e:	0f 90       	pop	r0
    1760:	df 91       	pop	r29
    1762:	cf 91       	pop	r28
    1764:	1f 91       	pop	r17
    1766:	0f 91       	pop	r16
    1768:	ff 90       	pop	r15
    176a:	ef 90       	pop	r14
    176c:	df 90       	pop	r13
    176e:	cf 90       	pop	r12
    1770:	bf 90       	pop	r11
    1772:	af 90       	pop	r10
    1774:	9f 90       	pop	r9
    1776:	8f 90       	pop	r8
    1778:	08 95       	ret

0000177a <MOSFET_Source_Init>:
//*******************************************************************
//						 Init & EEPROM
//*******************************************************************

void MOSFET_Source_Init(int slot_nr)
{
    177a:	ff 92       	push	r15
    177c:	0f 93       	push	r16
    177e:	1f 93       	push	r17
    1780:	cf 93       	push	r28
    1782:	df 93       	push	r29
    1784:	8c 01       	movw	r16, r24
	//Set HP&MP to LOW, and all CS to HIGH
	_clear_bit(HP_Port, slot_nr - 1);
    1786:	e2 e0       	ldi	r30, 0x02	; 2
    1788:	f1 e0       	ldi	r31, 0x01	; 1
    178a:	20 81       	ld	r18, Z
    178c:	ec 01       	movw	r28, r24
    178e:	21 97       	sbiw	r28, 0x01	; 1
    1790:	81 e0       	ldi	r24, 0x01	; 1
    1792:	90 e0       	ldi	r25, 0x00	; 0
    1794:	0c 2e       	mov	r0, r28
    1796:	02 c0       	rjmp	.+4      	; 0x179c <MOSFET_Source_Init+0x22>
    1798:	88 0f       	add	r24, r24
    179a:	99 1f       	adc	r25, r25
    179c:	0a 94       	dec	r0
    179e:	e2 f7       	brpl	.-8      	; 0x1798 <MOSFET_Source_Init+0x1e>
    17a0:	98 2f       	mov	r25, r24
    17a2:	90 95       	com	r25
    17a4:	29 23       	and	r18, r25
    17a6:	20 83       	st	Z, r18
	_clear_bit(MP_Port, slot_nr - 1);
    17a8:	e8 e0       	ldi	r30, 0x08	; 8
    17aa:	f1 e0       	ldi	r31, 0x01	; 1
    17ac:	20 81       	ld	r18, Z
    17ae:	92 23       	and	r25, r18
    17b0:	90 83       	st	Z, r25
	_set_bit(IO_PORT3, slot_nr - 1);
    17b2:	92 b1       	in	r25, 0x02	; 2
    17b4:	98 2b       	or	r25, r24
    17b6:	92 b9       	out	0x02, r25	; 2
	_set_bit(IO_PORT4, slot_nr - 1);
    17b8:	e5 e0       	ldi	r30, 0x05	; 5
    17ba:	f1 e0       	ldi	r31, 0x01	; 1
    17bc:	90 81       	ld	r25, Z
    17be:	98 2b       	or	r25, r24
    17c0:	90 83       	st	Z, r25
	_set_bit(IO_PORT5, slot_nr - 1);
    17c2:	9b b1       	in	r25, 0x0b	; 11
    17c4:	98 2b       	or	r25, r24
    17c6:	9b b9       	out	0x0b, r25	; 11
	_set_bit(IO_PORT6, slot_nr - 1);
    17c8:	98 b1       	in	r25, 0x08	; 8
    17ca:	98 2b       	or	r25, r24
    17cc:	98 b9       	out	0x08, r25	; 8
	//Set all as Output
	_set_out(HP_Port, slot_nr - 1);
    17ce:	e1 e0       	ldi	r30, 0x01	; 1
    17d0:	f1 e0       	ldi	r31, 0x01	; 1
    17d2:	90 81       	ld	r25, Z
    17d4:	98 2b       	or	r25, r24
    17d6:	90 83       	st	Z, r25
	_set_out(MP_Port, slot_nr - 1);
    17d8:	e7 e0       	ldi	r30, 0x07	; 7
    17da:	f1 e0       	ldi	r31, 0x01	; 1
    17dc:	90 81       	ld	r25, Z
    17de:	98 2b       	or	r25, r24
    17e0:	90 83       	st	Z, r25
	_set_out(IO_PORT3, slot_nr - 1);
    17e2:	91 b1       	in	r25, 0x01	; 1
    17e4:	98 2b       	or	r25, r24
    17e6:	91 b9       	out	0x01, r25	; 1
	_set_out(IO_PORT4, slot_nr - 1);
    17e8:	e4 e0       	ldi	r30, 0x04	; 4
    17ea:	f1 e0       	ldi	r31, 0x01	; 1
    17ec:	90 81       	ld	r25, Z
    17ee:	98 2b       	or	r25, r24
    17f0:	90 83       	st	Z, r25
	_set_out(IO_PORT5, slot_nr - 1);
    17f2:	9a b1       	in	r25, 0x0a	; 10
    17f4:	98 2b       	or	r25, r24
    17f6:	9a b9       	out	0x0a, r25	; 10
	_set_out(IO_PORT6, slot_nr - 1);
    17f8:	97 b1       	in	r25, 0x07	; 7
    17fa:	89 2b       	or	r24, r25
    17fc:	87 b9       	out	0x07, r24	; 7
	

	//ADC initialization
	//Range: +5V
	//Both Channels on
	DAC_AD5752_Range_and_PowerUp(Range_p5V, PowerUp_AB, &IO_PORT3, slot_nr-1);
    17fe:	ff 24       	eor	r15, r15
    1800:	fa 94       	dec	r15
    1802:	f0 0e       	add	r15, r16
    1804:	2f 2d       	mov	r18, r15
    1806:	42 e2       	ldi	r20, 0x22	; 34
    1808:	50 e0       	ldi	r21, 0x00	; 0
    180a:	65 e0       	ldi	r22, 0x05	; 5
    180c:	80 e0       	ldi	r24, 0x00	; 0
    180e:	29 d5       	rcall	.+2642   	; 0x2262 <DAC_AD5752_Range_and_PowerUp>
	DAC_AD5752_Range_and_PowerUp(Range_p5V, PowerUp_AB, &IO_PORT4, slot_nr-1);
    1810:	2f 2d       	mov	r18, r15
    1812:	45 e0       	ldi	r20, 0x05	; 5
    1814:	51 e0       	ldi	r21, 0x01	; 1
    1816:	65 e0       	ldi	r22, 0x05	; 5
    1818:	80 e0       	ldi	r24, 0x00	; 0
    181a:	23 d5       	rcall	.+2630   	; 0x2262 <DAC_AD5752_Range_and_PowerUp>
	
	//Set DAC output
	MOSFET_Source_Set_Heat_Current(mosfet_Source_Heat_Current_mA[slot_nr-1], slot_nr);
    181c:	cc 0f       	add	r28, r28
    181e:	dd 1f       	adc	r29, r29
    1820:	fe 01       	movw	r30, r28
    1822:	e0 5c       	subi	r30, 0xC0	; 192
    1824:	fa 4f       	sbci	r31, 0xFA	; 250
    1826:	b8 01       	movw	r22, r16
    1828:	80 81       	ld	r24, Z
    182a:	91 81       	ldd	r25, Z+1	; 0x01
    182c:	15 df       	rcall	.-470    	; 0x1658 <MOSFET_Source_Set_Heat_Current>
	MOSFET_Source_Set_Meas_Current(mosfet_Source_Meas_Current_0mA1[slot_nr-1], slot_nr);
    182e:	fe 01       	movw	r30, r28
    1830:	e0 5d       	subi	r30, 0xD0	; 208
    1832:	fa 4f       	sbci	r31, 0xFA	; 250
    1834:	b8 01       	movw	r22, r16
    1836:	80 81       	ld	r24, Z
    1838:	91 81       	ldd	r25, Z+1	; 0x01
    183a:	25 df       	rcall	.-438    	; 0x1686 <MOSFET_Source_Set_Meas_Current>
	MOSFET_Source_Set_Meas_Voltage(mosfet_Source_Meas_Voltage_10mV[slot_nr-1], slot_nr);
    183c:	c0 5b       	subi	r28, 0xB0	; 176
    183e:	da 4f       	sbci	r29, 0xFA	; 250
    1840:	b8 01       	movw	r22, r16
    1842:	88 81       	ld	r24, Y
    1844:	99 81       	ldd	r25, Y+1	; 0x01
    1846:	36 df       	rcall	.-404    	; 0x16b4 <MOSFET_Source_Set_Meas_Voltage>
}
    1848:	df 91       	pop	r29
    184a:	cf 91       	pop	r28
    184c:	1f 91       	pop	r17
    184e:	0f 91       	pop	r16
    1850:	ff 90       	pop	r15
    1852:	08 95       	ret

00001854 <MOSFET_Source_Get_measured_Heat_Voltage_in_mV>:
//*******************************************************************

int MOSFET_Source_Get_measured_Heat_Voltage_in_mV(int slot_nr)
{
	//V_in_ADC_max = 2.5V; TP = 1:11
	return (((uint32_t) measured_binary_heat[slot_nr-1]) * 2500 * 11) / 0xffff;
    1854:	88 0f       	add	r24, r24
    1856:	99 1f       	adc	r25, r25
    1858:	fc 01       	movw	r30, r24
    185a:	e4 57       	subi	r30, 0x74	; 116
    185c:	fa 4f       	sbci	r31, 0xFA	; 250
    185e:	20 81       	ld	r18, Z
    1860:	31 81       	ldd	r19, Z+1	; 0x01
    1862:	ac e6       	ldi	r26, 0x6C	; 108
    1864:	bb e6       	ldi	r27, 0x6B	; 107
    1866:	0e 94 47 22 	call	0x448e	; 0x448e <__umulhisi3>
    186a:	2f ef       	ldi	r18, 0xFF	; 255
    186c:	3f ef       	ldi	r19, 0xFF	; 255
    186e:	40 e0       	ldi	r20, 0x00	; 0
    1870:	50 e0       	ldi	r21, 0x00	; 0
    1872:	0e 94 01 22 	call	0x4402	; 0x4402 <__udivmodsi4>
}
    1876:	c9 01       	movw	r24, r18
    1878:	08 95       	ret

0000187a <MOSFET_Source_Get_measured_Meas_Voltage_in_mV>:

int MOSFET_Source_Get_measured_Meas_Voltage_in_mV(int slot_nr)
{
	//V_in_ADC_max = 2.5V; TP = 1:11
	return (((uint32_t) measured_binary_meas[slot_nr-1]) * 2500 * 11) / 0xffff;
    187a:	88 0f       	add	r24, r24
    187c:	99 1f       	adc	r25, r25
    187e:	fc 01       	movw	r30, r24
    1880:	ea 58       	subi	r30, 0x8A	; 138
    1882:	fa 4f       	sbci	r31, 0xFA	; 250
    1884:	20 81       	ld	r18, Z
    1886:	31 81       	ldd	r19, Z+1	; 0x01
    1888:	ac e6       	ldi	r26, 0x6C	; 108
    188a:	bb e6       	ldi	r27, 0x6B	; 107
    188c:	0e 94 47 22 	call	0x448e	; 0x448e <__umulhisi3>
    1890:	2f ef       	ldi	r18, 0xFF	; 255
    1892:	3f ef       	ldi	r19, 0xFF	; 255
    1894:	40 e0       	ldi	r20, 0x00	; 0
    1896:	50 e0       	ldi	r21, 0x00	; 0
    1898:	0e 94 01 22 	call	0x4402	; 0x4402 <__udivmodsi4>
}
    189c:	c9 01       	movw	r24, r18
    189e:	08 95       	ret

000018a0 <MOSFET_Source_sample_Heat>:
//*******************************************************************

void MOSFET_Source_sample_Heat(int slot_nr)
{
	//Samples the ADC but not collects the data
	LTC1864_getBIT_LastSample_and_NewShot(&IO_PORT5, slot_nr-1);
    18a0:	6f ef       	ldi	r22, 0xFF	; 255
    18a2:	68 0f       	add	r22, r24
    18a4:	8b e2       	ldi	r24, 0x2B	; 43
    18a6:	90 e0       	ldi	r25, 0x00	; 0
    18a8:	78 c5       	rjmp	.+2800   	; 0x239a <LTC1864_getBIT_LastSample_and_NewShot>
    18aa:	08 95       	ret

000018ac <MOSFET_Source_sample_Meas_receive_Heat>:
}

uint16_t MOSFET_Source_sample_Meas_receive_Heat(int slot_nr)
{
	//Samples the ADC but not collects the data
	return LTC1864_getBIT_LastSample_and_NewShot(&IO_PORT5, slot_nr-1);
    18ac:	6f ef       	ldi	r22, 0xFF	; 255
    18ae:	68 0f       	add	r22, r24
    18b0:	8b e2       	ldi	r24, 0x2B	; 43
    18b2:	90 e0       	ldi	r25, 0x00	; 0
    18b4:	72 c5       	rjmp	.+2788   	; 0x239a <LTC1864_getBIT_LastSample_and_NewShot>
}
    18b6:	08 95       	ret

000018b8 <MOSFET_Source_receive_Meas>:

uint16_t MOSFET_Source_receive_Meas(int slot_nr)
{
	//Samples the ADC but not collects the data
	return LTC1864_getBIT_LastSample_and_NewShot(&IO_PORT5, slot_nr-1);
    18b8:	6f ef       	ldi	r22, 0xFF	; 255
    18ba:	68 0f       	add	r22, r24
    18bc:	8b e2       	ldi	r24, 0x2B	; 43
    18be:	90 e0       	ldi	r25, 0x00	; 0
    18c0:	6c c5       	rjmp	.+2776   	; 0x239a <LTC1864_getBIT_LastSample_and_NewShot>
}
    18c2:	08 95       	ret

000018c4 <Terminal_SET_MOSFET_Source>:
//*******************************************************************
//							  Terminal
//*******************************************************************

void Terminal_SET_MOSFET_Source(char *myMessage)
{
    18c4:	ef 92       	push	r14
    18c6:	ff 92       	push	r15
    18c8:	0f 93       	push	r16
    18ca:	1f 93       	push	r17
    18cc:	cf 93       	push	r28
    18ce:	df 93       	push	r29
    18d0:	1f 92       	push	r1
    18d2:	1f 92       	push	r1
    18d4:	cd b7       	in	r28, 0x3d	; 61
    18d6:	de b7       	in	r29, 0x3e	; 62
    18d8:	fc 01       	movw	r30, r24
	//myMessage:	whole message
	//myCMD:		2 indicator Chars (Position 1 and 2)
	//mySlotNr:		Slot Number (Position 3)
	
	//Local variables
	uint16_t myCMD = _MK16(myMessage[1],myMessage[2]);
    18da:	22 81       	ldd	r18, Z+2	; 0x02
    18dc:	30 e0       	ldi	r19, 0x00	; 0
    18de:	32 2f       	mov	r19, r18
    18e0:	22 27       	eor	r18, r18
    18e2:	81 81       	ldd	r24, Z+1	; 0x01
    18e4:	28 2b       	or	r18, r24
	int8_t mySlotNr = myMessage[3] - '0';
    18e6:	03 81       	ldd	r16, Z+3	; 0x03
    18e8:	00 53       	subi	r16, 0x30	; 48
	int16_t temp16 = 0;
    18ea:	1a 82       	std	Y+2, r1	; 0x02
    18ec:	19 82       	std	Y+1, r1	; 0x01

	//Dependent on indicator Chars --> Command
	switch(myCMD)
    18ee:	2d 34       	cpi	r18, 0x4D	; 77
    18f0:	83 e4       	ldi	r24, 0x43	; 67
    18f2:	38 07       	cpc	r19, r24
    18f4:	09 f4       	brne	.+2      	; 0x18f8 <Terminal_SET_MOSFET_Source+0x34>
    18f6:	7e c0       	rjmp	.+252    	; 0x19f4 <Terminal_SET_MOSFET_Source+0x130>
    18f8:	20 f4       	brcc	.+8      	; 0x1902 <Terminal_SET_MOSFET_Source+0x3e>
    18fa:	28 34       	cpi	r18, 0x48	; 72
    18fc:	33 44       	sbci	r19, 0x43	; 67
    18fe:	99 f1       	breq	.+102    	; 0x1966 <Terminal_SET_MOSFET_Source+0xa2>
    1900:	0b c1       	rjmp	.+534    	; 0x1b18 <Terminal_SET_MOSFET_Source+0x254>
    1902:	29 34       	cpi	r18, 0x49	; 73
    1904:	8e e4       	ldi	r24, 0x4E	; 78
    1906:	38 07       	cpc	r19, r24
    1908:	29 f0       	breq	.+10     	; 0x1914 <Terminal_SET_MOSFET_Source+0x50>
    190a:	2d 34       	cpi	r18, 0x4D	; 77
    190c:	36 45       	sbci	r19, 0x56	; 86
    190e:	09 f4       	brne	.+2      	; 0x1912 <Terminal_SET_MOSFET_Source+0x4e>
    1910:	ba c0       	rjmp	.+372    	; 0x1a86 <Terminal_SET_MOSFET_Source+0x1c2>
    1912:	02 c1       	rjmp	.+516    	; 0x1b18 <Terminal_SET_MOSFET_Source+0x254>
	{
		//4.2.1 Initialization
		case _MK16('I','N'):
			if (myMessage[5] != '\n')
    1914:	85 81       	ldd	r24, Z+5	; 0x05
    1916:	8a 30       	cpi	r24, 0x0A	; 10
    1918:	29 f0       	breq	.+10     	; 0x1924 <Terminal_SET_MOSFET_Source+0x60>
			{
				//to many signs
				TransmitStringLn("FORMAT ERR");
    191a:	87 e1       	ldi	r24, 0x17	; 23
    191c:	92 e0       	ldi	r25, 0x02	; 2
    191e:	0e 94 12 19 	call	0x3224	; 0x3224 <TransmitStringLn>
    1922:	fe c0       	rjmp	.+508    	; 0x1b20 <Terminal_SET_MOSFET_Source+0x25c>
			}
			else
			{
				//Overwrite old settings
				card_Type[mySlotNr-1] = 'M';
    1924:	00 2e       	mov	r0, r16
    1926:	00 0c       	add	r0, r0
    1928:	11 0b       	sbc	r17, r17
    192a:	f8 01       	movw	r30, r16
    192c:	e3 56       	subi	r30, 0x63	; 99
    192e:	fa 4f       	sbci	r31, 0xFA	; 250
    1930:	8d e4       	ldi	r24, 0x4D	; 77
    1932:	80 83       	st	Z, r24
				eeprom_write_block(card_Type, &card_Type_register_eeprom, 8);
    1934:	48 e0       	ldi	r20, 0x08	; 8
    1936:	50 e0       	ldi	r21, 0x00	; 0
    1938:	6c e3       	ldi	r22, 0x3C	; 60
    193a:	70 e0       	ldi	r23, 0x00	; 0
    193c:	8e e9       	ldi	r24, 0x9E	; 158
    193e:	95 e0       	ldi	r25, 0x05	; 5
    1940:	0e 94 49 23 	call	0x4692	; 0x4692 <eeprom_write_block>
				
				//Take default values
				MOSFET_Source_Default_Values(mySlotNr);
    1944:	c8 01       	movw	r24, r16
    1946:	48 de       	rcall	.-880    	; 0x15d8 <MOSFET_Source_Default_Values>
				//Init
				MOSFET_Source_Init(mySlotNr);
    1948:	c8 01       	movw	r24, r16
    194a:	17 df       	rcall	.-466    	; 0x177a <MOSFET_Source_Init>
					
				//Answer
				TransmitString("SIN");
    194c:	82 e2       	ldi	r24, 0x22	; 34
    194e:	92 e0       	ldi	r25, 0x02	; 2
    1950:	0e 94 10 19 	call	0x3220	; 0x3220 <TransmitString>
				TransmitInt(mySlotNr, 1);
    1954:	61 e0       	ldi	r22, 0x01	; 1
    1956:	c8 01       	movw	r24, r16
    1958:	0e 94 14 19 	call	0x3228	; 0x3228 <TransmitInt>
				TransmitStringLn("M");
    195c:	8f ed       	ldi	r24, 0xDF	; 223
    195e:	92 e0       	ldi	r25, 0x02	; 2
    1960:	0e 94 12 19 	call	0x3224	; 0x3224 <TransmitStringLn>
    1964:	dd c0       	rjmp	.+442    	; 0x1b20 <Terminal_SET_MOSFET_Source+0x25c>
			}
			break;
	
		//4.2.2 Set Heat Current
		case _MK16('H','C'):
			if (!ParseIntLn(&myMessage[6],4,&temp16))
    1966:	ae 01       	movw	r20, r28
    1968:	4f 5f       	subi	r20, 0xFF	; 255
    196a:	5f 4f       	sbci	r21, 0xFF	; 255
    196c:	64 e0       	ldi	r22, 0x04	; 4
    196e:	cf 01       	movw	r24, r30
    1970:	06 96       	adiw	r24, 0x06	; 6
    1972:	0e 94 dd 17 	call	0x2fba	; 0x2fba <ParseIntLn>
    1976:	81 11       	cpse	r24, r1
    1978:	05 c0       	rjmp	.+10     	; 0x1984 <Terminal_SET_MOSFET_Source+0xc0>
			{
				//no number
				TransmitStringLn("FORMAT ERR");
    197a:	87 e1       	ldi	r24, 0x17	; 23
    197c:	92 e0       	ldi	r25, 0x02	; 2
    197e:	0e 94 12 19 	call	0x3224	; 0x3224 <TransmitStringLn>
    1982:	ce c0       	rjmp	.+412    	; 0x1b20 <Terminal_SET_MOSFET_Source+0x25c>
			}
			else if (temp16 > 5000 || temp16 < 0)
    1984:	89 81       	ldd	r24, Y+1	; 0x01
    1986:	9a 81       	ldd	r25, Y+2	; 0x02
    1988:	89 38       	cpi	r24, 0x89	; 137
    198a:	93 41       	sbci	r25, 0x13	; 19
    198c:	28 f0       	brcs	.+10     	; 0x1998 <Terminal_SET_MOSFET_Source+0xd4>
			{
				//new current limit not between 0 and 1.5A
				TransmitStringLn("NUMBER ERR");
    198e:	86 e2       	ldi	r24, 0x26	; 38
    1990:	92 e0       	ldi	r25, 0x02	; 2
    1992:	0e 94 12 19 	call	0x3224	; 0x3224 <TransmitStringLn>
    1996:	c4 c0       	rjmp	.+392    	; 0x1b20 <Terminal_SET_MOSFET_Source+0x25c>
			}
			else
			{
				TransmitString("SHC MOSFET=");
    1998:	82 eb       	ldi	r24, 0xB2	; 178
    199a:	92 e0       	ldi	r25, 0x02	; 2
    199c:	0e 94 10 19 	call	0x3220	; 0x3220 <TransmitString>
				TransmitInt(temp16, 1);
    19a0:	61 e0       	ldi	r22, 0x01	; 1
    19a2:	89 81       	ldd	r24, Y+1	; 0x01
    19a4:	9a 81       	ldd	r25, Y+2	; 0x02
    19a6:	0e 94 14 19 	call	0x3228	; 0x3228 <TransmitInt>
				TransmitStringLn(" mA");
    19aa:	87 e7       	ldi	r24, 0x77	; 119
    19ac:	92 e0       	ldi	r25, 0x02	; 2
    19ae:	0e 94 12 19 	call	0x3224	; 0x3224 <TransmitStringLn>

				if (mosfet_Source_Heat_Current_mA[mySlotNr-1] != temp16)
    19b2:	00 2e       	mov	r0, r16
    19b4:	00 0c       	add	r0, r0
    19b6:	11 0b       	sbc	r17, r17
    19b8:	c8 01       	movw	r24, r16
    19ba:	01 97       	sbiw	r24, 0x01	; 1
    19bc:	69 81       	ldd	r22, Y+1	; 0x01
    19be:	7a 81       	ldd	r23, Y+2	; 0x02
    19c0:	fc 01       	movw	r30, r24
    19c2:	ee 0f       	add	r30, r30
    19c4:	ff 1f       	adc	r31, r31
    19c6:	e0 5c       	subi	r30, 0xC0	; 192
    19c8:	fa 4f       	sbci	r31, 0xFA	; 250
    19ca:	20 81       	ld	r18, Z
    19cc:	31 81       	ldd	r19, Z+1	; 0x01
    19ce:	26 17       	cp	r18, r22
    19d0:	37 07       	cpc	r19, r23
    19d2:	09 f4       	brne	.+2      	; 0x19d6 <Terminal_SET_MOSFET_Source+0x112>
    19d4:	a5 c0       	rjmp	.+330    	; 0x1b20 <Terminal_SET_MOSFET_Source+0x25c>
				{
					mosfet_Source_Heat_Current_mA[mySlotNr-1] = temp16;
    19d6:	88 0f       	add	r24, r24
    19d8:	99 1f       	adc	r25, r25
    19da:	7f 01       	movw	r14, r30
    19dc:	71 83       	std	Z+1, r23	; 0x01
    19de:	60 83       	st	Z, r22
					eeprom_write_word(&parameter1_eeprom[mySlotNr-1],temp16);
    19e0:	84 5d       	subi	r24, 0xD4	; 212
    19e2:	9f 4f       	sbci	r25, 0xFF	; 255
    19e4:	0e 94 65 23 	call	0x46ca	; 0x46ca <eeprom_write_word>

					MOSFET_Source_Set_Heat_Current(mosfet_Source_Heat_Current_mA[mySlotNr-1], mySlotNr);
    19e8:	b8 01       	movw	r22, r16
    19ea:	f7 01       	movw	r30, r14
    19ec:	80 81       	ld	r24, Z
    19ee:	91 81       	ldd	r25, Z+1	; 0x01
    19f0:	33 de       	rcall	.-922    	; 0x1658 <MOSFET_Source_Set_Heat_Current>
    19f2:	96 c0       	rjmp	.+300    	; 0x1b20 <Terminal_SET_MOSFET_Source+0x25c>
			}
			break;
	
		//4.2.3 Set Meas Current
		case _MK16('M','C'):
			if (!ParseIntLn(&myMessage[6],3,&temp16))
    19f4:	ae 01       	movw	r20, r28
    19f6:	4f 5f       	subi	r20, 0xFF	; 255
    19f8:	5f 4f       	sbci	r21, 0xFF	; 255
    19fa:	63 e0       	ldi	r22, 0x03	; 3
    19fc:	cf 01       	movw	r24, r30
    19fe:	06 96       	adiw	r24, 0x06	; 6
    1a00:	0e 94 dd 17 	call	0x2fba	; 0x2fba <ParseIntLn>
    1a04:	81 11       	cpse	r24, r1
    1a06:	05 c0       	rjmp	.+10     	; 0x1a12 <Terminal_SET_MOSFET_Source+0x14e>
			{
				//no number
				TransmitStringLn("FORMAT ERR");
    1a08:	87 e1       	ldi	r24, 0x17	; 23
    1a0a:	92 e0       	ldi	r25, 0x02	; 2
    1a0c:	0e 94 12 19 	call	0x3224	; 0x3224 <TransmitStringLn>
    1a10:	87 c0       	rjmp	.+270    	; 0x1b20 <Terminal_SET_MOSFET_Source+0x25c>
			}
			else if (temp16 > 250 || temp16 < 50)
    1a12:	89 81       	ldd	r24, Y+1	; 0x01
    1a14:	9a 81       	ldd	r25, Y+2	; 0x02
    1a16:	c2 97       	sbiw	r24, 0x32	; 50
    1a18:	89 3c       	cpi	r24, 0xC9	; 201
    1a1a:	91 05       	cpc	r25, r1
    1a1c:	28 f0       	brcs	.+10     	; 0x1a28 <Terminal_SET_MOSFET_Source+0x164>
			{
				//new current limit not between 5 and 25mA
				TransmitStringLn("NUMBER ERR");
    1a1e:	86 e2       	ldi	r24, 0x26	; 38
    1a20:	92 e0       	ldi	r25, 0x02	; 2
    1a22:	0e 94 12 19 	call	0x3224	; 0x3224 <TransmitStringLn>
    1a26:	7c c0       	rjmp	.+248    	; 0x1b20 <Terminal_SET_MOSFET_Source+0x25c>
			}
			else
			{
				TransmitString("SMC MOSFET=");
    1a28:	8e eb       	ldi	r24, 0xBE	; 190
    1a2a:	92 e0       	ldi	r25, 0x02	; 2
    1a2c:	0e 94 10 19 	call	0x3220	; 0x3220 <TransmitString>
				TransmitFloat(temp16, 1, 1);
    1a30:	41 e0       	ldi	r20, 0x01	; 1
    1a32:	61 e0       	ldi	r22, 0x01	; 1
    1a34:	89 81       	ldd	r24, Y+1	; 0x01
    1a36:	9a 81       	ldd	r25, Y+2	; 0x02
    1a38:	0e 94 e2 19 	call	0x33c4	; 0x33c4 <TransmitFloat>
				TransmitStringLn(" mA");
    1a3c:	87 e7       	ldi	r24, 0x77	; 119
    1a3e:	92 e0       	ldi	r25, 0x02	; 2
    1a40:	0e 94 12 19 	call	0x3224	; 0x3224 <TransmitStringLn>

				if (mosfet_Source_Meas_Current_0mA1[mySlotNr-1] != temp16)
    1a44:	00 2e       	mov	r0, r16
    1a46:	00 0c       	add	r0, r0
    1a48:	11 0b       	sbc	r17, r17
    1a4a:	c8 01       	movw	r24, r16
    1a4c:	01 97       	sbiw	r24, 0x01	; 1
    1a4e:	69 81       	ldd	r22, Y+1	; 0x01
    1a50:	7a 81       	ldd	r23, Y+2	; 0x02
    1a52:	fc 01       	movw	r30, r24
    1a54:	ee 0f       	add	r30, r30
    1a56:	ff 1f       	adc	r31, r31
    1a58:	e0 5d       	subi	r30, 0xD0	; 208
    1a5a:	fa 4f       	sbci	r31, 0xFA	; 250
    1a5c:	20 81       	ld	r18, Z
    1a5e:	31 81       	ldd	r19, Z+1	; 0x01
    1a60:	26 17       	cp	r18, r22
    1a62:	37 07       	cpc	r19, r23
    1a64:	09 f4       	brne	.+2      	; 0x1a68 <Terminal_SET_MOSFET_Source+0x1a4>
    1a66:	5c c0       	rjmp	.+184    	; 0x1b20 <Terminal_SET_MOSFET_Source+0x25c>
				{
					mosfet_Source_Meas_Current_0mA1[mySlotNr-1] = temp16;
    1a68:	88 0f       	add	r24, r24
    1a6a:	99 1f       	adc	r25, r25
    1a6c:	7f 01       	movw	r14, r30
    1a6e:	71 83       	std	Z+1, r23	; 0x01
    1a70:	60 83       	st	Z, r22
					eeprom_write_word(&parameter2_eeprom[mySlotNr-1],temp16);
    1a72:	84 5e       	subi	r24, 0xE4	; 228
    1a74:	9f 4f       	sbci	r25, 0xFF	; 255
    1a76:	0e 94 65 23 	call	0x46ca	; 0x46ca <eeprom_write_word>
			
					MOSFET_Source_Set_Meas_Current(mosfet_Source_Meas_Current_0mA1[mySlotNr-1], mySlotNr);
    1a7a:	b8 01       	movw	r22, r16
    1a7c:	f7 01       	movw	r30, r14
    1a7e:	80 81       	ld	r24, Z
    1a80:	91 81       	ldd	r25, Z+1	; 0x01
    1a82:	01 de       	rcall	.-1022   	; 0x1686 <MOSFET_Source_Set_Meas_Current>
    1a84:	4d c0       	rjmp	.+154    	; 0x1b20 <Terminal_SET_MOSFET_Source+0x25c>
	
			break;
	
		//4.2.4 Set Meas Voltage
		case _MK16('M','V'):
			if (!ParseIntLn(&myMessage[6],4,&temp16))
    1a86:	ae 01       	movw	r20, r28
    1a88:	4f 5f       	subi	r20, 0xFF	; 255
    1a8a:	5f 4f       	sbci	r21, 0xFF	; 255
    1a8c:	64 e0       	ldi	r22, 0x04	; 4
    1a8e:	cf 01       	movw	r24, r30
    1a90:	06 96       	adiw	r24, 0x06	; 6
    1a92:	0e 94 dd 17 	call	0x2fba	; 0x2fba <ParseIntLn>
    1a96:	81 11       	cpse	r24, r1
    1a98:	05 c0       	rjmp	.+10     	; 0x1aa4 <Terminal_SET_MOSFET_Source+0x1e0>
			{
				//no number
				TransmitStringLn("FORMAT ERR");
    1a9a:	87 e1       	ldi	r24, 0x17	; 23
    1a9c:	92 e0       	ldi	r25, 0x02	; 2
    1a9e:	0e 94 12 19 	call	0x3224	; 0x3224 <TransmitStringLn>
    1aa2:	3e c0       	rjmp	.+124    	; 0x1b20 <Terminal_SET_MOSFET_Source+0x25c>
			}
			else if (temp16 > 2000 || temp16 < 100)
    1aa4:	89 81       	ldd	r24, Y+1	; 0x01
    1aa6:	9a 81       	ldd	r25, Y+2	; 0x02
    1aa8:	84 56       	subi	r24, 0x64	; 100
    1aaa:	91 09       	sbc	r25, r1
    1aac:	8d 36       	cpi	r24, 0x6D	; 109
    1aae:	97 40       	sbci	r25, 0x07	; 7
    1ab0:	28 f0       	brcs	.+10     	; 0x1abc <Terminal_SET_MOSFET_Source+0x1f8>
			{
				//new current limit not between 5 and 25mA
				TransmitStringLn("NUMBER ERR");
    1ab2:	86 e2       	ldi	r24, 0x26	; 38
    1ab4:	92 e0       	ldi	r25, 0x02	; 2
    1ab6:	0e 94 12 19 	call	0x3224	; 0x3224 <TransmitStringLn>
    1aba:	32 c0       	rjmp	.+100    	; 0x1b20 <Terminal_SET_MOSFET_Source+0x25c>
			}
			else
			{
				TransmitString("SMV MOSFET=");
    1abc:	8a ec       	ldi	r24, 0xCA	; 202
    1abe:	92 e0       	ldi	r25, 0x02	; 2
    1ac0:	0e 94 10 19 	call	0x3220	; 0x3220 <TransmitString>
				TransmitFloat(temp16, 1, 2);
    1ac4:	42 e0       	ldi	r20, 0x02	; 2
    1ac6:	61 e0       	ldi	r22, 0x01	; 1
    1ac8:	89 81       	ldd	r24, Y+1	; 0x01
    1aca:	9a 81       	ldd	r25, Y+2	; 0x02
    1acc:	0e 94 e2 19 	call	0x33c4	; 0x33c4 <TransmitFloat>
				TransmitStringLn(" V");
    1ad0:	88 e3       	ldi	r24, 0x38	; 56
    1ad2:	92 e0       	ldi	r25, 0x02	; 2
    1ad4:	0e 94 12 19 	call	0x3224	; 0x3224 <TransmitStringLn>

				if (mosfet_Source_Meas_Voltage_10mV[mySlotNr-1] != temp16)
    1ad8:	00 2e       	mov	r0, r16
    1ada:	00 0c       	add	r0, r0
    1adc:	11 0b       	sbc	r17, r17
    1ade:	c8 01       	movw	r24, r16
    1ae0:	01 97       	sbiw	r24, 0x01	; 1
    1ae2:	69 81       	ldd	r22, Y+1	; 0x01
    1ae4:	7a 81       	ldd	r23, Y+2	; 0x02
    1ae6:	fc 01       	movw	r30, r24
    1ae8:	ee 0f       	add	r30, r30
    1aea:	ff 1f       	adc	r31, r31
    1aec:	e0 5b       	subi	r30, 0xB0	; 176
    1aee:	fa 4f       	sbci	r31, 0xFA	; 250
    1af0:	20 81       	ld	r18, Z
    1af2:	31 81       	ldd	r19, Z+1	; 0x01
    1af4:	26 17       	cp	r18, r22
    1af6:	37 07       	cpc	r19, r23
    1af8:	99 f0       	breq	.+38     	; 0x1b20 <Terminal_SET_MOSFET_Source+0x25c>
				{
					mosfet_Source_Meas_Voltage_10mV[mySlotNr-1] = temp16;
    1afa:	88 0f       	add	r24, r24
    1afc:	99 1f       	adc	r25, r25
    1afe:	7f 01       	movw	r14, r30
    1b00:	71 83       	std	Z+1, r23	; 0x01
    1b02:	60 83       	st	Z, r22
					eeprom_write_word(&parameter3_eeprom[mySlotNr-1],temp16);
    1b04:	84 5f       	subi	r24, 0xF4	; 244
    1b06:	9f 4f       	sbci	r25, 0xFF	; 255
    1b08:	0e 94 65 23 	call	0x46ca	; 0x46ca <eeprom_write_word>
			
			
					MOSFET_Source_Set_Meas_Voltage(mosfet_Source_Meas_Voltage_10mV[mySlotNr-1], mySlotNr);
    1b0c:	b8 01       	movw	r22, r16
    1b0e:	f7 01       	movw	r30, r14
    1b10:	80 81       	ld	r24, Z
    1b12:	91 81       	ldd	r25, Z+1	; 0x01
    1b14:	cf dd       	rcall	.-1122   	; 0x16b4 <MOSFET_Source_Set_Meas_Voltage>
    1b16:	04 c0       	rjmp	.+8      	; 0x1b20 <Terminal_SET_MOSFET_Source+0x25c>
	
			break;

		//Default --> Fehler
		default:
			TransmitStringLn("COMMAND ERR");
    1b18:	89 e4       	ldi	r24, 0x49	; 73
    1b1a:	92 e0       	ldi	r25, 0x02	; 2
    1b1c:	0e 94 12 19 	call	0x3224	; 0x3224 <TransmitStringLn>
			break;
	
	}


}
    1b20:	0f 90       	pop	r0
    1b22:	0f 90       	pop	r0
    1b24:	df 91       	pop	r29
    1b26:	cf 91       	pop	r28
    1b28:	1f 91       	pop	r17
    1b2a:	0f 91       	pop	r16
    1b2c:	ff 90       	pop	r15
    1b2e:	ef 90       	pop	r14
    1b30:	08 95       	ret

00001b32 <Terminal_GET_MOSFET_Source>:

void Terminal_GET_MOSFET_Source(char *myMessage)
{
    1b32:	cf 93       	push	r28
    1b34:	df 93       	push	r29
    1b36:	fc 01       	movw	r30, r24
	//myCMD:		2 indicator Chars (Position 1 and 2)
	//mySlotNr:		Slot Number (Position 3)
	
	//Local variables
	uint16_t myCMD = _MK16(myMessage[1],myMessage[2]);
	int8_t mySlotNr = myMessage[3] - '0';
    1b38:	c3 81       	ldd	r28, Z+3	; 0x03
    1b3a:	c0 53       	subi	r28, 0x30	; 48

	switch(myCMD){
    1b3c:	22 81       	ldd	r18, Z+2	; 0x02
    1b3e:	30 e0       	ldi	r19, 0x00	; 0
    1b40:	32 2f       	mov	r19, r18
    1b42:	22 27       	eor	r18, r18
    1b44:	81 81       	ldd	r24, Z+1	; 0x01
    1b46:	28 2b       	or	r18, r24
    1b48:	28 34       	cpi	r18, 0x48	; 72
    1b4a:	8d e4       	ldi	r24, 0x4D	; 77
    1b4c:	38 07       	cpc	r19, r24
    1b4e:	09 f4       	brne	.+2      	; 0x1b52 <Terminal_GET_MOSFET_Source+0x20>
    1b50:	6b c0       	rjmp	.+214    	; 0x1c28 <Terminal_GET_MOSFET_Source+0xf6>
    1b52:	40 f4       	brcc	.+16     	; 0x1b64 <Terminal_GET_MOSFET_Source+0x32>
    1b54:	28 34       	cpi	r18, 0x48	; 72
    1b56:	83 e4       	ldi	r24, 0x43	; 67
    1b58:	38 07       	cpc	r19, r24
    1b5a:	69 f0       	breq	.+26     	; 0x1b76 <Terminal_GET_MOSFET_Source+0x44>
    1b5c:	2d 34       	cpi	r18, 0x4D	; 77
    1b5e:	33 44       	sbci	r19, 0x43	; 67
    1b60:	39 f1       	breq	.+78     	; 0x1bb0 <Terminal_GET_MOSFET_Source+0x7e>
    1b62:	96 c0       	rjmp	.+300    	; 0x1c90 <Terminal_GET_MOSFET_Source+0x15e>
    1b64:	2d 34       	cpi	r18, 0x4D	; 77
    1b66:	8d e4       	ldi	r24, 0x4D	; 77
    1b68:	38 07       	cpc	r19, r24
    1b6a:	09 f4       	brne	.+2      	; 0x1b6e <Terminal_GET_MOSFET_Source+0x3c>
    1b6c:	77 c0       	rjmp	.+238    	; 0x1c5c <Terminal_GET_MOSFET_Source+0x12a>
    1b6e:	2d 34       	cpi	r18, 0x4D	; 77
    1b70:	36 45       	sbci	r19, 0x56	; 86
    1b72:	e1 f1       	breq	.+120    	; 0x1bec <Terminal_GET_MOSFET_Source+0xba>
    1b74:	8d c0       	rjmp	.+282    	; 0x1c90 <Terminal_GET_MOSFET_Source+0x15e>
						
		//4.2.2 Get adjusted Heat Current
		case _MK16('H','C'):
			TransmitString("GHC");
    1b76:	8f e7       	ldi	r24, 0x7F	; 127
    1b78:	92 e0       	ldi	r25, 0x02	; 2
    1b7a:	0e 94 10 19 	call	0x3220	; 0x3220 <TransmitString>
			TransmitInt(mySlotNr, 1);
    1b7e:	0c 2e       	mov	r0, r28
    1b80:	00 0c       	add	r0, r0
    1b82:	dd 0b       	sbc	r29, r29
    1b84:	61 e0       	ldi	r22, 0x01	; 1
    1b86:	ce 01       	movw	r24, r28
    1b88:	0e 94 14 19 	call	0x3228	; 0x3228 <TransmitInt>
			TransmitString("M=");
    1b8c:	86 ed       	ldi	r24, 0xD6	; 214
    1b8e:	92 e0       	ldi	r25, 0x02	; 2
    1b90:	0e 94 10 19 	call	0x3220	; 0x3220 <TransmitString>
			TransmitInt(mosfet_Source_Heat_Current_mA[mySlotNr-1], 1);
    1b94:	cc 0f       	add	r28, r28
    1b96:	dd 1f       	adc	r29, r29
    1b98:	c2 5c       	subi	r28, 0xC2	; 194
    1b9a:	da 4f       	sbci	r29, 0xFA	; 250
    1b9c:	61 e0       	ldi	r22, 0x01	; 1
    1b9e:	88 81       	ld	r24, Y
    1ba0:	99 81       	ldd	r25, Y+1	; 0x01
    1ba2:	0e 94 14 19 	call	0x3228	; 0x3228 <TransmitInt>
			TransmitStringLn(" mA");
    1ba6:	87 e7       	ldi	r24, 0x77	; 119
    1ba8:	92 e0       	ldi	r25, 0x02	; 2
    1baa:	0e 94 12 19 	call	0x3224	; 0x3224 <TransmitStringLn>
			break;
    1bae:	74 c0       	rjmp	.+232    	; 0x1c98 <Terminal_GET_MOSFET_Source+0x166>
						
		//4.2.3 Get adjusted Meas Current
		case _MK16('M','C'):
			TransmitString("GMC");
    1bb0:	83 e8       	ldi	r24, 0x83	; 131
    1bb2:	92 e0       	ldi	r25, 0x02	; 2
    1bb4:	0e 94 10 19 	call	0x3220	; 0x3220 <TransmitString>
			TransmitInt(mySlotNr, 1);
    1bb8:	0c 2e       	mov	r0, r28
    1bba:	00 0c       	add	r0, r0
    1bbc:	dd 0b       	sbc	r29, r29
    1bbe:	61 e0       	ldi	r22, 0x01	; 1
    1bc0:	ce 01       	movw	r24, r28
    1bc2:	0e 94 14 19 	call	0x3228	; 0x3228 <TransmitInt>
			TransmitString("M=");
    1bc6:	86 ed       	ldi	r24, 0xD6	; 214
    1bc8:	92 e0       	ldi	r25, 0x02	; 2
    1bca:	0e 94 10 19 	call	0x3220	; 0x3220 <TransmitString>
			TransmitFloat(mosfet_Source_Meas_Current_0mA1[mySlotNr-1], 1, 1);
    1bce:	cc 0f       	add	r28, r28
    1bd0:	dd 1f       	adc	r29, r29
    1bd2:	c2 5d       	subi	r28, 0xD2	; 210
    1bd4:	da 4f       	sbci	r29, 0xFA	; 250
    1bd6:	41 e0       	ldi	r20, 0x01	; 1
    1bd8:	61 e0       	ldi	r22, 0x01	; 1
    1bda:	88 81       	ld	r24, Y
    1bdc:	99 81       	ldd	r25, Y+1	; 0x01
    1bde:	0e 94 e2 19 	call	0x33c4	; 0x33c4 <TransmitFloat>
			TransmitStringLn(" mA");
    1be2:	87 e7       	ldi	r24, 0x77	; 119
    1be4:	92 e0       	ldi	r25, 0x02	; 2
    1be6:	0e 94 12 19 	call	0x3224	; 0x3224 <TransmitStringLn>
			break;
    1bea:	56 c0       	rjmp	.+172    	; 0x1c98 <Terminal_GET_MOSFET_Source+0x166>
			
		//4.2.4 Get adjusted Meas Voltage
		case _MK16('M','V'):
			TransmitString("GMV");
    1bec:	89 ed       	ldi	r24, 0xD9	; 217
    1bee:	92 e0       	ldi	r25, 0x02	; 2
    1bf0:	0e 94 10 19 	call	0x3220	; 0x3220 <TransmitString>
			TransmitInt(mySlotNr, 1);
    1bf4:	0c 2e       	mov	r0, r28
    1bf6:	00 0c       	add	r0, r0
    1bf8:	dd 0b       	sbc	r29, r29
    1bfa:	61 e0       	ldi	r22, 0x01	; 1
    1bfc:	ce 01       	movw	r24, r28
    1bfe:	0e 94 14 19 	call	0x3228	; 0x3228 <TransmitInt>
			TransmitString("M=");
    1c02:	86 ed       	ldi	r24, 0xD6	; 214
    1c04:	92 e0       	ldi	r25, 0x02	; 2
    1c06:	0e 94 10 19 	call	0x3220	; 0x3220 <TransmitString>
			TransmitFloat(mosfet_Source_Meas_Voltage_10mV[mySlotNr-1], 2, 2);
    1c0a:	cc 0f       	add	r28, r28
    1c0c:	dd 1f       	adc	r29, r29
    1c0e:	c2 5b       	subi	r28, 0xB2	; 178
    1c10:	da 4f       	sbci	r29, 0xFA	; 250
    1c12:	42 e0       	ldi	r20, 0x02	; 2
    1c14:	62 e0       	ldi	r22, 0x02	; 2
    1c16:	88 81       	ld	r24, Y
    1c18:	99 81       	ldd	r25, Y+1	; 0x01
    1c1a:	0e 94 e2 19 	call	0x33c4	; 0x33c4 <TransmitFloat>
			TransmitStringLn(" V");
    1c1e:	88 e3       	ldi	r24, 0x38	; 56
    1c20:	92 e0       	ldi	r25, 0x02	; 2
    1c22:	0e 94 12 19 	call	0x3224	; 0x3224 <TransmitStringLn>
			break;
    1c26:	38 c0       	rjmp	.+112    	; 0x1c98 <Terminal_GET_MOSFET_Source+0x166>
			
		//4.2.5 Get measured Heat Voltage
		case _MK16('H','M'):
			TransmitString("GHM");
    1c28:	8d ed       	ldi	r24, 0xDD	; 221
    1c2a:	92 e0       	ldi	r25, 0x02	; 2
    1c2c:	0e 94 10 19 	call	0x3220	; 0x3220 <TransmitString>
			TransmitInt(mySlotNr, 1);
    1c30:	0c 2e       	mov	r0, r28
    1c32:	00 0c       	add	r0, r0
    1c34:	dd 0b       	sbc	r29, r29
    1c36:	61 e0       	ldi	r22, 0x01	; 1
    1c38:	ce 01       	movw	r24, r28
    1c3a:	0e 94 14 19 	call	0x3228	; 0x3228 <TransmitInt>
			TransmitString("M=");
    1c3e:	86 ed       	ldi	r24, 0xD6	; 214
    1c40:	92 e0       	ldi	r25, 0x02	; 2
    1c42:	0e 94 10 19 	call	0x3220	; 0x3220 <TransmitString>
			TransmitFloat(MOSFET_Source_Get_measured_Heat_Voltage_in_mV(mySlotNr), 3, 3);
    1c46:	ce 01       	movw	r24, r28
    1c48:	05 de       	rcall	.-1014   	; 0x1854 <MOSFET_Source_Get_measured_Heat_Voltage_in_mV>
    1c4a:	43 e0       	ldi	r20, 0x03	; 3
    1c4c:	63 e0       	ldi	r22, 0x03	; 3
    1c4e:	0e 94 e2 19 	call	0x33c4	; 0x33c4 <TransmitFloat>
			TransmitStringLn(" V");
    1c52:	88 e3       	ldi	r24, 0x38	; 56
    1c54:	92 e0       	ldi	r25, 0x02	; 2
    1c56:	0e 94 12 19 	call	0x3224	; 0x3224 <TransmitStringLn>
			break;
    1c5a:	1e c0       	rjmp	.+60     	; 0x1c98 <Terminal_GET_MOSFET_Source+0x166>
			
		//4.2.6 Get measured Meas Voltage
		case _MK16('M','M'):
			TransmitString("GMM");
    1c5c:	81 ee       	ldi	r24, 0xE1	; 225
    1c5e:	92 e0       	ldi	r25, 0x02	; 2
    1c60:	0e 94 10 19 	call	0x3220	; 0x3220 <TransmitString>
			TransmitInt(mySlotNr, 1);
    1c64:	0c 2e       	mov	r0, r28
    1c66:	00 0c       	add	r0, r0
    1c68:	dd 0b       	sbc	r29, r29
    1c6a:	61 e0       	ldi	r22, 0x01	; 1
    1c6c:	ce 01       	movw	r24, r28
    1c6e:	0e 94 14 19 	call	0x3228	; 0x3228 <TransmitInt>
			TransmitString("M=");
    1c72:	86 ed       	ldi	r24, 0xD6	; 214
    1c74:	92 e0       	ldi	r25, 0x02	; 2
    1c76:	0e 94 10 19 	call	0x3220	; 0x3220 <TransmitString>
			TransmitFloat(MOSFET_Source_Get_measured_Meas_Voltage_in_mV(mySlotNr), 3, 3);
    1c7a:	ce 01       	movw	r24, r28
    1c7c:	fe dd       	rcall	.-1028   	; 0x187a <MOSFET_Source_Get_measured_Meas_Voltage_in_mV>
    1c7e:	43 e0       	ldi	r20, 0x03	; 3
    1c80:	63 e0       	ldi	r22, 0x03	; 3
    1c82:	0e 94 e2 19 	call	0x33c4	; 0x33c4 <TransmitFloat>
			TransmitStringLn(" V");
    1c86:	88 e3       	ldi	r24, 0x38	; 56
    1c88:	92 e0       	ldi	r25, 0x02	; 2
    1c8a:	0e 94 12 19 	call	0x3224	; 0x3224 <TransmitStringLn>
			break;
    1c8e:	04 c0       	rjmp	.+8      	; 0x1c98 <Terminal_GET_MOSFET_Source+0x166>
						
		//Default --> Fehler
		default:
			TransmitStringLn("COMMAND ERR");
    1c90:	89 e4       	ldi	r24, 0x49	; 73
    1c92:	92 e0       	ldi	r25, 0x02	; 2
    1c94:	0e 94 12 19 	call	0x3224	; 0x3224 <TransmitStringLn>
			break;
						
	}

    1c98:	df 91       	pop	r29
    1c9a:	cf 91       	pop	r28
    1c9c:	08 95       	ret

00001c9e <Slot_Tester_Variables_from_EEPROM>:
	_delay_ms(1);
	Slot_Tester_set_7Segment(slot_nr, slot_Tester_Display_number[slot_nr-1]);
}

void Slot_Tester_Variables_from_EEPROM(int slot_nr)
{
    1c9e:	cf 93       	push	r28
    1ca0:	df 93       	push	r29
	slot_Tester_Display_number[slot_nr-1] = eeprom_read_word(&parameter1_eeprom[slot_nr-1]);
    1ca2:	01 97       	sbiw	r24, 0x01	; 1
    1ca4:	ec 01       	movw	r28, r24
    1ca6:	cc 0f       	add	r28, r28
    1ca8:	dd 1f       	adc	r29, r29
    1caa:	ce 01       	movw	r24, r28
    1cac:	84 5d       	subi	r24, 0xD4	; 212
    1cae:	9f 4f       	sbci	r25, 0xFF	; 255
    1cb0:	0e 94 44 23 	call	0x4688	; 0x4688 <eeprom_read_word>
    1cb4:	c0 5a       	subi	r28, 0xA0	; 160
    1cb6:	da 4f       	sbci	r29, 0xFA	; 250
    1cb8:	99 83       	std	Y+1, r25	; 0x01
    1cba:	88 83       	st	Y, r24
}
    1cbc:	df 91       	pop	r29
    1cbe:	cf 91       	pop	r28
    1cc0:	08 95       	ret

00001cc2 <Slot_Tester_Default_Values>:

void Slot_Tester_Default_Values(int slot_nr)
{
	//Set default values (Local & EEPROM)
	slot_Tester_Display_number[slot_nr-1] = slot_nr;
    1cc2:	9c 01       	movw	r18, r24
    1cc4:	21 50       	subi	r18, 0x01	; 1
    1cc6:	31 09       	sbc	r19, r1
    1cc8:	22 0f       	add	r18, r18
    1cca:	33 1f       	adc	r19, r19
    1ccc:	f9 01       	movw	r30, r18
    1cce:	e0 5a       	subi	r30, 0xA0	; 160
    1cd0:	fa 4f       	sbci	r31, 0xFA	; 250
    1cd2:	91 83       	std	Z+1, r25	; 0x01
    1cd4:	80 83       	st	Z, r24
		
	eeprom_write_word(&parameter1_eeprom[slot_nr-1], slot_Tester_Display_number[slot_nr-1]);
    1cd6:	bc 01       	movw	r22, r24
    1cd8:	c9 01       	movw	r24, r18
    1cda:	84 5d       	subi	r24, 0xD4	; 212
    1cdc:	9f 4f       	sbci	r25, 0xFF	; 255
    1cde:	0c 94 65 23 	jmp	0x46ca	; 0x46ca <eeprom_write_word>
    1ce2:	08 95       	ret

00001ce4 <Slot_Tester_set_7Segment>:
	Slot_Tester_set_7Segment(slot_nr, old_number);
		
}
	
void Slot_Tester_set_7Segment(int slot_nr, int number)
{
    1ce4:	cf 93       	push	r28
    1ce6:	df 93       	push	r29
    1ce8:	9c 01       	movw	r18, r24
	//CS wieder auf 1, (sonst auf 0) und kurz warten
	_set_bit(IO_PORT6, slot_nr - 1);
    1cea:	88 b1       	in	r24, 0x08	; 8
    1cec:	a9 01       	movw	r20, r18
    1cee:	41 50       	subi	r20, 0x01	; 1
    1cf0:	51 09       	sbc	r21, r1
    1cf2:	c1 e0       	ldi	r28, 0x01	; 1
    1cf4:	d0 e0       	ldi	r29, 0x00	; 0
    1cf6:	02 c0       	rjmp	.+4      	; 0x1cfc <Slot_Tester_set_7Segment+0x18>
    1cf8:	cc 0f       	add	r28, r28
    1cfa:	dd 1f       	adc	r29, r29
    1cfc:	4a 95       	dec	r20
    1cfe:	e2 f7       	brpl	.-8      	; 0x1cf8 <Slot_Tester_set_7Segment+0x14>
    1d00:	8c 2b       	or	r24, r28
    1d02:	88 b9       	out	0x08, r24	; 8
    1d04:	8f e9       	ldi	r24, 0x9F	; 159
    1d06:	9f e0       	ldi	r25, 0x0F	; 15
    1d08:	01 97       	sbiw	r24, 0x01	; 1
    1d0a:	f1 f7       	brne	.-4      	; 0x1d08 <Slot_Tester_set_7Segment+0x24>
    1d0c:	00 c0       	rjmp	.+0      	; 0x1d0e <Slot_Tester_set_7Segment+0x2a>
    1d0e:	00 00       	nop
	_delay_ms(1);
	
	//nr. in 7-Segment
	uint8_t value = 0xFF;
	switch (number)
    1d10:	6a 30       	cpi	r22, 0x0A	; 10
    1d12:	71 05       	cpc	r23, r1
    1d14:	c8 f4       	brcc	.+50     	; 0x1d48 <Slot_Tester_set_7Segment+0x64>
    1d16:	fb 01       	movw	r30, r22
    1d18:	88 27       	eor	r24, r24
    1d1a:	ee 58       	subi	r30, 0x8E	; 142
    1d1c:	ff 4f       	sbci	r31, 0xFF	; 255
    1d1e:	8f 4f       	sbci	r24, 0xFF	; 255
    1d20:	0c 94 3f 22 	jmp	0x447e	; 0x447e <__tablejump2__>
	{
		case 0:
			value = Segment_0;
			break;
		case 1:
			value = Segment_1;
    1d24:	6f ec       	ldi	r22, 0xCF	; 207
    1d26:	13 c0       	rjmp	.+38     	; 0x1d4e <Slot_Tester_set_7Segment+0x6a>
			break;
		case 2:
			value = Segment_2;
    1d28:	65 e2       	ldi	r22, 0x25	; 37
			break;
    1d2a:	11 c0       	rjmp	.+34     	; 0x1d4e <Slot_Tester_set_7Segment+0x6a>
		case 3:
			value = Segment_3;
    1d2c:	65 e8       	ldi	r22, 0x85	; 133
			break;
    1d2e:	0f c0       	rjmp	.+30     	; 0x1d4e <Slot_Tester_set_7Segment+0x6a>
		case 4:
			value = Segment_4;
    1d30:	69 ec       	ldi	r22, 0xC9	; 201
			break;
    1d32:	0d c0       	rjmp	.+26     	; 0x1d4e <Slot_Tester_set_7Segment+0x6a>
		case 5:
			value = Segment_5;
    1d34:	61 e9       	ldi	r22, 0x91	; 145
			break;
    1d36:	0b c0       	rjmp	.+22     	; 0x1d4e <Slot_Tester_set_7Segment+0x6a>
		case 6:
			value = Segment_6;
    1d38:	61 e1       	ldi	r22, 0x11	; 17
			break;
    1d3a:	09 c0       	rjmp	.+18     	; 0x1d4e <Slot_Tester_set_7Segment+0x6a>
		case 7:
		value = Segment_7;
    1d3c:	67 ec       	ldi	r22, 0xC7	; 199
		break;
    1d3e:	07 c0       	rjmp	.+14     	; 0x1d4e <Slot_Tester_set_7Segment+0x6a>
		case 8:
			value = Segment_8;
    1d40:	61 e0       	ldi	r22, 0x01	; 1
			break;
    1d42:	05 c0       	rjmp	.+10     	; 0x1d4e <Slot_Tester_set_7Segment+0x6a>
		case 9:
			value = Segment_9;
    1d44:	61 e8       	ldi	r22, 0x81	; 129
			break;
    1d46:	03 c0       	rjmp	.+6      	; 0x1d4e <Slot_Tester_set_7Segment+0x6a>
		default:
			value = 0xFF;
    1d48:	6f ef       	ldi	r22, 0xFF	; 255
			break;		
    1d4a:	01 c0       	rjmp	.+2      	; 0x1d4e <Slot_Tester_set_7Segment+0x6a>
	//nr. in 7-Segment
	uint8_t value = 0xFF;
	switch (number)
	{
		case 0:
			value = Segment_0;
    1d4c:	63 e0       	ldi	r22, 0x03	; 3
			value = 0xFF;
			break;		
	}
		
	//Switch LEDs according to number (0 is ON)
	IO_Expander_set_Register(register_OLAT, value, &IO_PORT6, slot_nr - 1);
    1d4e:	df ef       	ldi	r29, 0xFF	; 255
    1d50:	d2 0f       	add	r29, r18
    1d52:	2d 2f       	mov	r18, r29
    1d54:	48 e2       	ldi	r20, 0x28	; 40
    1d56:	50 e0       	ldi	r21, 0x00	; 0
    1d58:	8a e0       	ldi	r24, 0x0A	; 10
    1d5a:	52 d3       	rcall	.+1700   	; 0x2400 <IO_Expander_set_Register>
    1d5c:	8f e9       	ldi	r24, 0x9F	; 159
    1d5e:	9f e0       	ldi	r25, 0x0F	; 15
    1d60:	01 97       	sbiw	r24, 0x01	; 1
    1d62:	f1 f7       	brne	.-4      	; 0x1d60 <Slot_Tester_set_7Segment+0x7c>
    1d64:	00 c0       	rjmp	.+0      	; 0x1d66 <Slot_Tester_set_7Segment+0x82>
    1d66:	00 00       	nop
	
	//CS wieder auf 0
	_delay_ms(1);
	IO_Expander_set_Register(register_IODIR, 0x00, &IO_PORT6, slot_nr - 1);
    1d68:	2d 2f       	mov	r18, r29
    1d6a:	48 e2       	ldi	r20, 0x28	; 40
    1d6c:	50 e0       	ldi	r21, 0x00	; 0
    1d6e:	60 e0       	ldi	r22, 0x00	; 0
    1d70:	80 e0       	ldi	r24, 0x00	; 0
    1d72:	46 d3       	rcall	.+1676   	; 0x2400 <IO_Expander_set_Register>
    1d74:	8f e9       	ldi	r24, 0x9F	; 159
    1d76:	9f e0       	ldi	r25, 0x0F	; 15
    1d78:	01 97       	sbiw	r24, 0x01	; 1
    1d7a:	f1 f7       	brne	.-4      	; 0x1d78 <Slot_Tester_set_7Segment+0x94>
    1d7c:	00 c0       	rjmp	.+0      	; 0x1d7e <Slot_Tester_set_7Segment+0x9a>
    1d7e:	00 00       	nop
	_delay_ms(1);
	_clear_bit(IO_PORT6, slot_nr - 1);
    1d80:	88 b1       	in	r24, 0x08	; 8
    1d82:	c0 95       	com	r28
    1d84:	c8 23       	and	r28, r24
    1d86:	c8 b9       	out	0x08, r28	; 8
	
}
    1d88:	df 91       	pop	r29
    1d8a:	cf 91       	pop	r28
    1d8c:	08 95       	ret

00001d8e <Slot_Tester_Init>:
//*******************************************************************
//						 Init & EEPROM
//*******************************************************************

void Slot_Tester_Init(int slot_nr)
{
    1d8e:	ef 92       	push	r14
    1d90:	ff 92       	push	r15
    1d92:	0f 93       	push	r16
    1d94:	1f 93       	push	r17
    1d96:	cf 93       	push	r28
    1d98:	df 93       	push	r29
    1d9a:	7c 01       	movw	r14, r24
	//Set all to 0
	_clear_bit(HP_Port, slot_nr - 1);
    1d9c:	e2 e0       	ldi	r30, 0x02	; 2
    1d9e:	f1 e0       	ldi	r31, 0x01	; 1
    1da0:	20 81       	ld	r18, Z
    1da2:	8c 01       	movw	r16, r24
    1da4:	01 50       	subi	r16, 0x01	; 1
    1da6:	11 09       	sbc	r17, r1
    1da8:	81 e0       	ldi	r24, 0x01	; 1
    1daa:	90 e0       	ldi	r25, 0x00	; 0
    1dac:	00 2e       	mov	r0, r16
    1dae:	02 c0       	rjmp	.+4      	; 0x1db4 <Slot_Tester_Init+0x26>
    1db0:	88 0f       	add	r24, r24
    1db2:	99 1f       	adc	r25, r25
    1db4:	0a 94       	dec	r0
    1db6:	e2 f7       	brpl	.-8      	; 0x1db0 <Slot_Tester_Init+0x22>
    1db8:	c8 2f       	mov	r28, r24
    1dba:	c0 95       	com	r28
    1dbc:	92 2f       	mov	r25, r18
    1dbe:	9c 23       	and	r25, r28
    1dc0:	90 83       	st	Z, r25
	_clear_bit(MP_Port, slot_nr - 1);
    1dc2:	e8 e0       	ldi	r30, 0x08	; 8
    1dc4:	f1 e0       	ldi	r31, 0x01	; 1
    1dc6:	90 81       	ld	r25, Z
    1dc8:	9c 23       	and	r25, r28
    1dca:	90 83       	st	Z, r25
	_clear_bit(IO_PORT3, slot_nr - 1);
    1dcc:	92 b1       	in	r25, 0x02	; 2
    1dce:	9c 23       	and	r25, r28
    1dd0:	92 b9       	out	0x02, r25	; 2
	_clear_bit(IO_PORT4, slot_nr - 1);
    1dd2:	e5 e0       	ldi	r30, 0x05	; 5
    1dd4:	f1 e0       	ldi	r31, 0x01	; 1
    1dd6:	90 81       	ld	r25, Z
    1dd8:	9c 23       	and	r25, r28
    1dda:	90 83       	st	Z, r25
	_clear_bit(IO_PORT5, slot_nr - 1);
    1ddc:	9b b1       	in	r25, 0x0b	; 11
    1dde:	9c 23       	and	r25, r28
    1de0:	9b b9       	out	0x0b, r25	; 11
	_clear_bit(IO_PORT6, slot_nr - 1);
    1de2:	98 b1       	in	r25, 0x08	; 8
    1de4:	9c 23       	and	r25, r28
    1de6:	98 b9       	out	0x08, r25	; 8
	//Set all as Output
	_set_out(HP_Port, slot_nr - 1);
    1de8:	e1 e0       	ldi	r30, 0x01	; 1
    1dea:	f1 e0       	ldi	r31, 0x01	; 1
    1dec:	90 81       	ld	r25, Z
    1dee:	98 2b       	or	r25, r24
    1df0:	90 83       	st	Z, r25
	_set_out(MP_Port, slot_nr - 1);
    1df2:	e7 e0       	ldi	r30, 0x07	; 7
    1df4:	f1 e0       	ldi	r31, 0x01	; 1
    1df6:	90 81       	ld	r25, Z
    1df8:	98 2b       	or	r25, r24
    1dfa:	90 83       	st	Z, r25
	_set_out(IO_PORT3, slot_nr - 1);
    1dfc:	91 b1       	in	r25, 0x01	; 1
    1dfe:	98 2b       	or	r25, r24
    1e00:	91 b9       	out	0x01, r25	; 1
	_set_out(IO_PORT4, slot_nr - 1);
    1e02:	e4 e0       	ldi	r30, 0x04	; 4
    1e04:	f1 e0       	ldi	r31, 0x01	; 1
    1e06:	90 81       	ld	r25, Z
    1e08:	98 2b       	or	r25, r24
    1e0a:	90 83       	st	Z, r25
	_set_out(IO_PORT5, slot_nr - 1);
    1e0c:	9a b1       	in	r25, 0x0a	; 10
    1e0e:	98 2b       	or	r25, r24
    1e10:	9a b9       	out	0x0a, r25	; 10
	_set_out(IO_PORT6, slot_nr - 1);
    1e12:	97 b1       	in	r25, 0x07	; 7
    1e14:	98 2b       	or	r25, r24
    1e16:	97 b9       	out	0x07, r25	; 7
	
	//Register in MCP23S08:
	//CS wieder auf 1, (sonst auf 0) und kurz warten
	_set_bit(IO_PORT6, slot_nr - 1);
    1e18:	98 b1       	in	r25, 0x08	; 8
    1e1a:	89 2b       	or	r24, r25
    1e1c:	88 b9       	out	0x08, r24	; 8
    1e1e:	8f e9       	ldi	r24, 0x9F	; 159
    1e20:	9f e0       	ldi	r25, 0x0F	; 15
    1e22:	01 97       	sbiw	r24, 0x01	; 1
    1e24:	f1 f7       	brne	.-4      	; 0x1e22 <Slot_Tester_Init+0x94>
    1e26:	00 c0       	rjmp	.+0      	; 0x1e28 <Slot_Tester_Init+0x9a>
    1e28:	00 00       	nop
	_delay_ms(1);
	//All as Outputs 
	IO_Expander_set_Register(register_IODIR, 0x00, &IO_PORT6, slot_nr-1);
    1e2a:	df ef       	ldi	r29, 0xFF	; 255
    1e2c:	de 0d       	add	r29, r14
    1e2e:	2d 2f       	mov	r18, r29
    1e30:	48 e2       	ldi	r20, 0x28	; 40
    1e32:	50 e0       	ldi	r21, 0x00	; 0
    1e34:	60 e0       	ldi	r22, 0x00	; 0
    1e36:	80 e0       	ldi	r24, 0x00	; 0
    1e38:	e3 d2       	rcall	.+1478   	; 0x2400 <IO_Expander_set_Register>

	//All to high (LEDs off)
	IO_Expander_set_Register(register_OLAT, 0xFF, &IO_PORT6, slot_nr-1);
    1e3a:	2d 2f       	mov	r18, r29
    1e3c:	48 e2       	ldi	r20, 0x28	; 40
    1e3e:	50 e0       	ldi	r21, 0x00	; 0
    1e40:	6f ef       	ldi	r22, 0xFF	; 255
    1e42:	8a e0       	ldi	r24, 0x0A	; 10
    1e44:	dd d2       	rcall	.+1466   	; 0x2400 <IO_Expander_set_Register>
	//CS wieder auf 0
	_clear_bit(IO_PORT6, slot_nr - 1);
    1e46:	88 b1       	in	r24, 0x08	; 8
    1e48:	c8 23       	and	r28, r24
    1e4a:	c8 b9       	out	0x08, r28	; 8
    1e4c:	8f e9       	ldi	r24, 0x9F	; 159
    1e4e:	9f e0       	ldi	r25, 0x0F	; 15
    1e50:	01 97       	sbiw	r24, 0x01	; 1
    1e52:	f1 f7       	brne	.-4      	; 0x1e50 <Slot_Tester_Init+0xc2>
    1e54:	00 c0       	rjmp	.+0      	; 0x1e56 <Slot_Tester_Init+0xc8>
    1e56:	00 00       	nop
	
	//Display setzen
	_delay_ms(1);
	Slot_Tester_set_7Segment(slot_nr, slot_Tester_Display_number[slot_nr-1]);
    1e58:	00 0f       	add	r16, r16
    1e5a:	11 1f       	adc	r17, r17
    1e5c:	f8 01       	movw	r30, r16
    1e5e:	e0 5a       	subi	r30, 0xA0	; 160
    1e60:	fa 4f       	sbci	r31, 0xFA	; 250
    1e62:	60 81       	ld	r22, Z
    1e64:	71 81       	ldd	r23, Z+1	; 0x01
    1e66:	c7 01       	movw	r24, r14
    1e68:	3d df       	rcall	.-390    	; 0x1ce4 <Slot_Tester_set_7Segment>
}
    1e6a:	df 91       	pop	r29
    1e6c:	cf 91       	pop	r28
    1e6e:	1f 91       	pop	r17
    1e70:	0f 91       	pop	r16
    1e72:	ff 90       	pop	r15
    1e74:	ef 90       	pop	r14
    1e76:	08 95       	ret

00001e78 <Slot_Tester_get_7Segment>:
//*******************************************************************
//						 Getting - FCTs
//*******************************************************************

int Slot_Tester_get_7Segment(int slot_nr)
{
    1e78:	cf 93       	push	r28
    1e7a:	df 93       	push	r29
		//CS wieder auf 1, (sonst auf 0) und kurz warten
		_set_bit(IO_PORT6, slot_nr - 1);
    1e7c:	28 b1       	in	r18, 0x08	; 8
    1e7e:	ac 01       	movw	r20, r24
    1e80:	41 50       	subi	r20, 0x01	; 1
    1e82:	51 09       	sbc	r21, r1
    1e84:	c1 e0       	ldi	r28, 0x01	; 1
    1e86:	d0 e0       	ldi	r29, 0x00	; 0
    1e88:	02 c0       	rjmp	.+4      	; 0x1e8e <Slot_Tester_get_7Segment+0x16>
    1e8a:	cc 0f       	add	r28, r28
    1e8c:	dd 1f       	adc	r29, r29
    1e8e:	4a 95       	dec	r20
    1e90:	e2 f7       	brpl	.-8      	; 0x1e8a <Slot_Tester_get_7Segment+0x12>
    1e92:	9c 2f       	mov	r25, r28
    1e94:	92 2b       	or	r25, r18
    1e96:	98 b9       	out	0x08, r25	; 8
    1e98:	ef e9       	ldi	r30, 0x9F	; 159
    1e9a:	ff e0       	ldi	r31, 0x0F	; 15
    1e9c:	31 97       	sbiw	r30, 0x01	; 1
    1e9e:	f1 f7       	brne	.-4      	; 0x1e9c <Slot_Tester_get_7Segment+0x24>
    1ea0:	00 c0       	rjmp	.+0      	; 0x1ea2 <Slot_Tester_get_7Segment+0x2a>
    1ea2:	00 00       	nop
		_delay_ms(1);

		uint8_t local = IO_Expander_get_Register(register_OLAT, &IO_PORT6, slot_nr - 1);
    1ea4:	4f ef       	ldi	r20, 0xFF	; 255
    1ea6:	48 0f       	add	r20, r24
    1ea8:	68 e2       	ldi	r22, 0x28	; 40
    1eaa:	70 e0       	ldi	r23, 0x00	; 0
    1eac:	8a e0       	ldi	r24, 0x0A	; 10
    1eae:	ca d2       	rcall	.+1428   	; 0x2444 <IO_Expander_get_Register>
		int value = -1;
		
		switch (local)
    1eb0:	81 38       	cpi	r24, 0x81	; 129
    1eb2:	81 f1       	breq	.+96     	; 0x1f14 <Slot_Tester_get_7Segment+0x9c>
    1eb4:	58 f4       	brcc	.+22     	; 0x1ecc <Slot_Tester_get_7Segment+0x54>
    1eb6:	83 30       	cpi	r24, 0x03	; 3
    1eb8:	99 f1       	breq	.+102    	; 0x1f20 <Slot_Tester_get_7Segment+0xa8>
    1eba:	18 f4       	brcc	.+6      	; 0x1ec2 <Slot_Tester_get_7Segment+0x4a>
    1ebc:	81 30       	cpi	r24, 0x01	; 1
    1ebe:	39 f1       	breq	.+78     	; 0x1f0e <Slot_Tester_get_7Segment+0x96>
    1ec0:	2c c0       	rjmp	.+88     	; 0x1f1a <Slot_Tester_get_7Segment+0xa2>
    1ec2:	81 31       	cpi	r24, 0x11	; 17
    1ec4:	f1 f0       	breq	.+60     	; 0x1f02 <Slot_Tester_get_7Segment+0x8a>
    1ec6:	85 32       	cpi	r24, 0x25	; 37
    1ec8:	81 f0       	breq	.+32     	; 0x1eea <Slot_Tester_get_7Segment+0x72>
    1eca:	27 c0       	rjmp	.+78     	; 0x1f1a <Slot_Tester_get_7Segment+0xa2>
    1ecc:	87 3c       	cpi	r24, 0xC7	; 199
    1ece:	e1 f0       	breq	.+56     	; 0x1f08 <Slot_Tester_get_7Segment+0x90>
    1ed0:	28 f4       	brcc	.+10     	; 0x1edc <Slot_Tester_get_7Segment+0x64>
    1ed2:	85 38       	cpi	r24, 0x85	; 133
    1ed4:	69 f0       	breq	.+26     	; 0x1ef0 <Slot_Tester_get_7Segment+0x78>
    1ed6:	81 39       	cpi	r24, 0x91	; 145
    1ed8:	89 f0       	breq	.+34     	; 0x1efc <Slot_Tester_get_7Segment+0x84>
    1eda:	1f c0       	rjmp	.+62     	; 0x1f1a <Slot_Tester_get_7Segment+0xa2>
    1edc:	89 3c       	cpi	r24, 0xC9	; 201
    1ede:	59 f0       	breq	.+22     	; 0x1ef6 <Slot_Tester_get_7Segment+0x7e>
    1ee0:	8f 3c       	cpi	r24, 0xCF	; 207
    1ee2:	d9 f4       	brne	.+54     	; 0x1f1a <Slot_Tester_get_7Segment+0xa2>
		{
			case Segment_0:
				value = 0;
				break;
			case Segment_1:
				value = 1;
    1ee4:	21 e0       	ldi	r18, 0x01	; 1
    1ee6:	30 e0       	ldi	r19, 0x00	; 0
    1ee8:	1d c0       	rjmp	.+58     	; 0x1f24 <Slot_Tester_get_7Segment+0xac>
				break;
			case Segment_2:
				value = 2;
    1eea:	22 e0       	ldi	r18, 0x02	; 2
    1eec:	30 e0       	ldi	r19, 0x00	; 0
				break;
    1eee:	1a c0       	rjmp	.+52     	; 0x1f24 <Slot_Tester_get_7Segment+0xac>
			case Segment_3:
				value = 3;
    1ef0:	23 e0       	ldi	r18, 0x03	; 3
    1ef2:	30 e0       	ldi	r19, 0x00	; 0
				break;
    1ef4:	17 c0       	rjmp	.+46     	; 0x1f24 <Slot_Tester_get_7Segment+0xac>
			case Segment_4:
				value = 4;
    1ef6:	24 e0       	ldi	r18, 0x04	; 4
    1ef8:	30 e0       	ldi	r19, 0x00	; 0
				break;
    1efa:	14 c0       	rjmp	.+40     	; 0x1f24 <Slot_Tester_get_7Segment+0xac>
			case Segment_5:
				value = 5;
    1efc:	25 e0       	ldi	r18, 0x05	; 5
    1efe:	30 e0       	ldi	r19, 0x00	; 0
				break;
    1f00:	11 c0       	rjmp	.+34     	; 0x1f24 <Slot_Tester_get_7Segment+0xac>
			case Segment_6:
				value = 6;
    1f02:	26 e0       	ldi	r18, 0x06	; 6
    1f04:	30 e0       	ldi	r19, 0x00	; 0
				break;
    1f06:	0e c0       	rjmp	.+28     	; 0x1f24 <Slot_Tester_get_7Segment+0xac>
			case Segment_7:
			value = 7;
    1f08:	27 e0       	ldi	r18, 0x07	; 7
    1f0a:	30 e0       	ldi	r19, 0x00	; 0
			break;
    1f0c:	0b c0       	rjmp	.+22     	; 0x1f24 <Slot_Tester_get_7Segment+0xac>
			case Segment_8:
				value = 8;
    1f0e:	28 e0       	ldi	r18, 0x08	; 8
    1f10:	30 e0       	ldi	r19, 0x00	; 0
				break;
    1f12:	08 c0       	rjmp	.+16     	; 0x1f24 <Slot_Tester_get_7Segment+0xac>
			case Segment_9:
				value = 9;
    1f14:	29 e0       	ldi	r18, 0x09	; 9
    1f16:	30 e0       	ldi	r19, 0x00	; 0
				break;
    1f18:	05 c0       	rjmp	.+10     	; 0x1f24 <Slot_Tester_get_7Segment+0xac>
			default:
				value = -1;
    1f1a:	2f ef       	ldi	r18, 0xFF	; 255
    1f1c:	3f ef       	ldi	r19, 0xFF	; 255
				break;		
    1f1e:	02 c0       	rjmp	.+4      	; 0x1f24 <Slot_Tester_get_7Segment+0xac>
		int value = -1;
		
		switch (local)
		{
			case Segment_0:
				value = 0;
    1f20:	20 e0       	ldi	r18, 0x00	; 0
    1f22:	30 e0       	ldi	r19, 0x00	; 0
    1f24:	8f e9       	ldi	r24, 0x9F	; 159
    1f26:	9f e0       	ldi	r25, 0x0F	; 15
    1f28:	01 97       	sbiw	r24, 0x01	; 1
    1f2a:	f1 f7       	brne	.-4      	; 0x1f28 <Slot_Tester_get_7Segment+0xb0>
    1f2c:	00 c0       	rjmp	.+0      	; 0x1f2e <Slot_Tester_get_7Segment+0xb6>
    1f2e:	00 00       	nop
				break;		
		}
			
		//CS wieder auf 0
		_delay_ms(1);
		_clear_bit(IO_PORT6, slot_nr - 1);
    1f30:	98 b1       	in	r25, 0x08	; 8
    1f32:	c0 95       	com	r28
    1f34:	c9 23       	and	r28, r25
    1f36:	c8 b9       	out	0x08, r28	; 8
		
		return value;	
}
    1f38:	c9 01       	movw	r24, r18
    1f3a:	df 91       	pop	r29
    1f3c:	cf 91       	pop	r28
    1f3e:	08 95       	ret

00001f40 <Slot_Tester_Gesamtablauf>:
//*******************************************************************
//						 Setting - FCTs
//*******************************************************************					

void Slot_Tester_Gesamtablauf(int slot_nr)
{
    1f40:	cf 92       	push	r12
    1f42:	df 92       	push	r13
    1f44:	ef 92       	push	r14
    1f46:	ff 92       	push	r15
    1f48:	0f 93       	push	r16
    1f4a:	1f 93       	push	r17
    1f4c:	cf 93       	push	r28
    1f4e:	df 93       	push	r29
    1f50:	8c 01       	movw	r16, r24
	//Alle LEDs nacheinander durchschalten und 7-Segment von 1 bis 6 zählen
	
	//Nummer in 7 Segment schreiben (SPI In test)
	int old_number = Slot_Tester_get_7Segment(slot_nr);
    1f52:	92 df       	rcall	.-220    	; 0x1e78 <Slot_Tester_get_7Segment>
    1f54:	7c 01       	movw	r14, r24
		
	//Alle Ouptup LEDs werden nacheinander angesporchen
	//Um zu verhindern das man in Watchdog läuft wird der Counter jedesmal auf 0 gesetzt
	_set_bit(HP_Port, slot_nr - 1);
    1f56:	68 94       	set
    1f58:	cc 24       	eor	r12, r12
    1f5a:	c1 f8       	bld	r12, 1
    1f5c:	dd 24       	eor	r13, r13
    1f5e:	d3 94       	inc	r13
    1f60:	f6 01       	movw	r30, r12
    1f62:	80 81       	ld	r24, Z
    1f64:	98 01       	movw	r18, r16
    1f66:	21 50       	subi	r18, 0x01	; 1
    1f68:	31 09       	sbc	r19, r1
    1f6a:	c1 e0       	ldi	r28, 0x01	; 1
    1f6c:	d0 e0       	ldi	r29, 0x00	; 0
    1f6e:	02 c0       	rjmp	.+4      	; 0x1f74 <Slot_Tester_Gesamtablauf+0x34>
    1f70:	cc 0f       	add	r28, r28
    1f72:	dd 1f       	adc	r29, r29
    1f74:	2a 95       	dec	r18
    1f76:	e2 f7       	brpl	.-8      	; 0x1f70 <Slot_Tester_Gesamtablauf+0x30>
    1f78:	8c 2b       	or	r24, r28
    1f7a:	f6 01       	movw	r30, r12
    1f7c:	80 83       	st	Z, r24
	Slot_Tester_set_7Segment(slot_nr, 1);
    1f7e:	61 e0       	ldi	r22, 0x01	; 1
    1f80:	70 e0       	ldi	r23, 0x00	; 0
    1f82:	c8 01       	movw	r24, r16
    1f84:	af de       	rcall	.-674    	; 0x1ce4 <Slot_Tester_set_7Segment>
    1f86:	ff ef       	ldi	r31, 0xFF	; 255
    1f88:	29 e6       	ldi	r18, 0x69	; 105
    1f8a:	88 e1       	ldi	r24, 0x18	; 24
    1f8c:	f1 50       	subi	r31, 0x01	; 1
    1f8e:	20 40       	sbci	r18, 0x00	; 0
    1f90:	80 40       	sbci	r24, 0x00	; 0
    1f92:	e1 f7       	brne	.-8      	; 0x1f8c <Slot_Tester_Gesamtablauf+0x4c>
    1f94:	00 c0       	rjmp	.+0      	; 0x1f96 <Slot_Tester_Gesamtablauf+0x56>
    1f96:	00 00       	nop
	_delay_ms(500);
	wdt_reset();
    1f98:	a8 95       	wdr
	_clear_bit(HP_Port, slot_nr - 1);
    1f9a:	f6 01       	movw	r30, r12
    1f9c:	80 81       	ld	r24, Z
    1f9e:	dc 2f       	mov	r29, r28
    1fa0:	d0 95       	com	r29
    1fa2:	8d 23       	and	r24, r29
    1fa4:	80 83       	st	Z, r24
	_set_bit(MP_Port, slot_nr - 1);
    1fa6:	68 94       	set
    1fa8:	cc 24       	eor	r12, r12
    1faa:	c3 f8       	bld	r12, 3
    1fac:	dd 24       	eor	r13, r13
    1fae:	d3 94       	inc	r13
    1fb0:	f6 01       	movw	r30, r12
    1fb2:	80 81       	ld	r24, Z
    1fb4:	8c 2b       	or	r24, r28
    1fb6:	f6 01       	movw	r30, r12
    1fb8:	80 83       	st	Z, r24
	Slot_Tester_set_7Segment(slot_nr, 2);
    1fba:	62 e0       	ldi	r22, 0x02	; 2
    1fbc:	70 e0       	ldi	r23, 0x00	; 0
    1fbe:	c8 01       	movw	r24, r16
    1fc0:	91 de       	rcall	.-734    	; 0x1ce4 <Slot_Tester_set_7Segment>
    1fc2:	ff ef       	ldi	r31, 0xFF	; 255
    1fc4:	29 e6       	ldi	r18, 0x69	; 105
    1fc6:	88 e1       	ldi	r24, 0x18	; 24
    1fc8:	f1 50       	subi	r31, 0x01	; 1
    1fca:	20 40       	sbci	r18, 0x00	; 0
    1fcc:	80 40       	sbci	r24, 0x00	; 0
    1fce:	e1 f7       	brne	.-8      	; 0x1fc8 <Slot_Tester_Gesamtablauf+0x88>
    1fd0:	00 c0       	rjmp	.+0      	; 0x1fd2 <Slot_Tester_Gesamtablauf+0x92>
    1fd2:	00 00       	nop
	_delay_ms(500);
	wdt_reset();
    1fd4:	a8 95       	wdr
	_set_bit(IO_PORT3, slot_nr - 1);
    1fd6:	82 b1       	in	r24, 0x02	; 2
    1fd8:	8c 2b       	or	r24, r28
    1fda:	82 b9       	out	0x02, r24	; 2
	_clear_bit(MP_Port, slot_nr - 1);
    1fdc:	f6 01       	movw	r30, r12
    1fde:	80 81       	ld	r24, Z
    1fe0:	8d 23       	and	r24, r29
    1fe2:	80 83       	st	Z, r24
	Slot_Tester_set_7Segment(slot_nr, 3);
    1fe4:	63 e0       	ldi	r22, 0x03	; 3
    1fe6:	70 e0       	ldi	r23, 0x00	; 0
    1fe8:	c8 01       	movw	r24, r16
    1fea:	7c de       	rcall	.-776    	; 0x1ce4 <Slot_Tester_set_7Segment>
    1fec:	ff ef       	ldi	r31, 0xFF	; 255
    1fee:	29 e6       	ldi	r18, 0x69	; 105
    1ff0:	88 e1       	ldi	r24, 0x18	; 24
    1ff2:	f1 50       	subi	r31, 0x01	; 1
    1ff4:	20 40       	sbci	r18, 0x00	; 0
    1ff6:	80 40       	sbci	r24, 0x00	; 0
    1ff8:	e1 f7       	brne	.-8      	; 0x1ff2 <Slot_Tester_Gesamtablauf+0xb2>
    1ffa:	00 c0       	rjmp	.+0      	; 0x1ffc <Slot_Tester_Gesamtablauf+0xbc>
    1ffc:	00 00       	nop
	_delay_ms(500);
	wdt_reset();
    1ffe:	a8 95       	wdr
	_set_bit(IO_PORT4, slot_nr - 1);
    2000:	0f 2e       	mov	r0, r31
    2002:	f5 e0       	ldi	r31, 0x05	; 5
    2004:	cf 2e       	mov	r12, r31
    2006:	dd 24       	eor	r13, r13
    2008:	d3 94       	inc	r13
    200a:	f0 2d       	mov	r31, r0
    200c:	f6 01       	movw	r30, r12
    200e:	80 81       	ld	r24, Z
    2010:	8c 2b       	or	r24, r28
    2012:	f6 01       	movw	r30, r12
    2014:	80 83       	st	Z, r24
	_clear_bit(IO_PORT3, slot_nr - 1);
    2016:	82 b1       	in	r24, 0x02	; 2
    2018:	8d 23       	and	r24, r29
	Slot_Tester_set_7Segment(slot_nr, 4);
    201a:	82 b9       	out	0x02, r24	; 2
    201c:	64 e0       	ldi	r22, 0x04	; 4
    201e:	70 e0       	ldi	r23, 0x00	; 0
    2020:	c8 01       	movw	r24, r16
    2022:	60 de       	rcall	.-832    	; 0x1ce4 <Slot_Tester_set_7Segment>
    2024:	ff ef       	ldi	r31, 0xFF	; 255
    2026:	29 e6       	ldi	r18, 0x69	; 105
    2028:	88 e1       	ldi	r24, 0x18	; 24
    202a:	f1 50       	subi	r31, 0x01	; 1
    202c:	20 40       	sbci	r18, 0x00	; 0
    202e:	80 40       	sbci	r24, 0x00	; 0
    2030:	e1 f7       	brne	.-8      	; 0x202a <Slot_Tester_Gesamtablauf+0xea>
    2032:	00 c0       	rjmp	.+0      	; 0x2034 <Slot_Tester_Gesamtablauf+0xf4>
    2034:	00 00       	nop
	_delay_ms(500);
	wdt_reset();
    2036:	a8 95       	wdr
	_set_bit(IO_PORT5, slot_nr - 1);
    2038:	8b b1       	in	r24, 0x0b	; 11
    203a:	8c 2b       	or	r24, r28
    203c:	8b b9       	out	0x0b, r24	; 11
	_clear_bit(IO_PORT4, slot_nr - 1);
    203e:	f6 01       	movw	r30, r12
    2040:	80 81       	ld	r24, Z
    2042:	8d 23       	and	r24, r29
	Slot_Tester_set_7Segment(slot_nr, 5);
    2044:	80 83       	st	Z, r24
    2046:	65 e0       	ldi	r22, 0x05	; 5
    2048:	70 e0       	ldi	r23, 0x00	; 0
    204a:	c8 01       	movw	r24, r16
    204c:	4b de       	rcall	.-874    	; 0x1ce4 <Slot_Tester_set_7Segment>
    204e:	ff ef       	ldi	r31, 0xFF	; 255
    2050:	29 e6       	ldi	r18, 0x69	; 105
    2052:	88 e1       	ldi	r24, 0x18	; 24
    2054:	f1 50       	subi	r31, 0x01	; 1
    2056:	20 40       	sbci	r18, 0x00	; 0
    2058:	80 40       	sbci	r24, 0x00	; 0
    205a:	e1 f7       	brne	.-8      	; 0x2054 <Slot_Tester_Gesamtablauf+0x114>
    205c:	00 c0       	rjmp	.+0      	; 0x205e <Slot_Tester_Gesamtablauf+0x11e>
    205e:	00 00       	nop
	_delay_ms(500);
	wdt_reset();
    2060:	a8 95       	wdr
	_set_bit(IO_PORT6, slot_nr - 1);
    2062:	88 b1       	in	r24, 0x08	; 8
    2064:	c8 2b       	or	r28, r24
    2066:	c8 b9       	out	0x08, r28	; 8
	_clear_bit(IO_PORT5, slot_nr - 1);
    2068:	8b b1       	in	r24, 0x0b	; 11
    206a:	8d 23       	and	r24, r29
	Slot_Tester_set_7Segment(slot_nr, 6);
    206c:	8b b9       	out	0x0b, r24	; 11
    206e:	66 e0       	ldi	r22, 0x06	; 6
    2070:	70 e0       	ldi	r23, 0x00	; 0
    2072:	c8 01       	movw	r24, r16
    2074:	37 de       	rcall	.-914    	; 0x1ce4 <Slot_Tester_set_7Segment>
    2076:	9f ef       	ldi	r25, 0xFF	; 255
    2078:	e9 e6       	ldi	r30, 0x69	; 105
    207a:	f8 e1       	ldi	r31, 0x18	; 24
    207c:	91 50       	subi	r25, 0x01	; 1
    207e:	e0 40       	sbci	r30, 0x00	; 0
    2080:	f0 40       	sbci	r31, 0x00	; 0
    2082:	e1 f7       	brne	.-8      	; 0x207c <Slot_Tester_Gesamtablauf+0x13c>
    2084:	00 c0       	rjmp	.+0      	; 0x2086 <Slot_Tester_Gesamtablauf+0x146>
	_delay_ms(500);
	wdt_reset();
    2086:	00 00       	nop
	_clear_bit(IO_PORT6, slot_nr - 1);
    2088:	a8 95       	wdr
    208a:	88 b1       	in	r24, 0x08	; 8
    208c:	d8 23       	and	r29, r24
	Slot_Tester_set_7Segment(slot_nr, old_number);
    208e:	d8 b9       	out	0x08, r29	; 8
    2090:	b7 01       	movw	r22, r14
    2092:	c8 01       	movw	r24, r16
    2094:	27 de       	rcall	.-946    	; 0x1ce4 <Slot_Tester_set_7Segment>
		
}
    2096:	df 91       	pop	r29
    2098:	cf 91       	pop	r28
    209a:	1f 91       	pop	r17
    209c:	0f 91       	pop	r16
    209e:	ff 90       	pop	r15
    20a0:	ef 90       	pop	r14
    20a2:	df 90       	pop	r13
    20a4:	cf 90       	pop	r12
    20a6:	08 95       	ret

000020a8 <Terminal_SET_SlotTester>:
//*******************************************************************
//							  Terminal
//*******************************************************************

void Terminal_SET_SlotTester(char *myMessage)
{
    20a8:	0f 93       	push	r16
    20aa:	1f 93       	push	r17
    20ac:	cf 93       	push	r28
    20ae:	df 93       	push	r29
    20b0:	1f 92       	push	r1
    20b2:	1f 92       	push	r1
    20b4:	cd b7       	in	r28, 0x3d	; 61
    20b6:	de b7       	in	r29, 0x3e	; 62
    20b8:	fc 01       	movw	r30, r24
	//myMessage:	whole message
	//myCMD:		2 indicator Chars (Position 1 and 2)
	//mySlotNr:		Slot Number (Position 3)
	
	//Local variables
	uint16_t myCMD = _MK16(myMessage[1],myMessage[2]);
    20ba:	22 81       	ldd	r18, Z+2	; 0x02
    20bc:	30 e0       	ldi	r19, 0x00	; 0
    20be:	32 2f       	mov	r19, r18
    20c0:	22 27       	eor	r18, r18
    20c2:	81 81       	ldd	r24, Z+1	; 0x01
    20c4:	28 2b       	or	r18, r24
	int8_t mySlotNr = myMessage[3] - '0';
    20c6:	03 81       	ldd	r16, Z+3	; 0x03
    20c8:	00 53       	subi	r16, 0x30	; 48
	int16_t temp16 = 0;
    20ca:	1a 82       	std	Y+2, r1	; 0x02
    20cc:	19 82       	std	Y+1, r1	; 0x01

	//Dependent on indicator Chars --> Command
	switch(myCMD)
    20ce:	29 34       	cpi	r18, 0x49	; 73
    20d0:	8e e4       	ldi	r24, 0x4E	; 78
    20d2:	38 07       	cpc	r19, r24
    20d4:	51 f0       	breq	.+20     	; 0x20ea <Terminal_SET_SlotTester+0x42>
    20d6:	23 35       	cpi	r18, 0x53	; 83
    20d8:	84 e5       	ldi	r24, 0x54	; 84
    20da:	38 07       	cpc	r19, r24
    20dc:	09 f4       	brne	.+2      	; 0x20e0 <Terminal_SET_SlotTester+0x38>
    20de:	70 c0       	rjmp	.+224    	; 0x21c0 <Terminal_SET_SlotTester+0x118>
    20e0:	24 34       	cpi	r18, 0x44	; 68
    20e2:	3e 44       	sbci	r19, 0x4E	; 78
    20e4:	09 f0       	breq	.+2      	; 0x20e8 <Terminal_SET_SlotTester+0x40>
    20e6:	86 c0       	rjmp	.+268    	; 0x21f4 <Terminal_SET_SlotTester+0x14c>
    20e8:	29 c0       	rjmp	.+82     	; 0x213c <Terminal_SET_SlotTester+0x94>
	{
		//4.99.1 Init
		case  _MK16('I', 'N'):
			if (myMessage[5] != '\n')
    20ea:	85 81       	ldd	r24, Z+5	; 0x05
    20ec:	8a 30       	cpi	r24, 0x0A	; 10
    20ee:	29 f0       	breq	.+10     	; 0x20fa <Terminal_SET_SlotTester+0x52>
			{
				//to many signs
				TransmitStringLn("FORMAT ERR");
    20f0:	87 e1       	ldi	r24, 0x17	; 23
    20f2:	92 e0       	ldi	r25, 0x02	; 2
    20f4:	0e 94 12 19 	call	0x3224	; 0x3224 <TransmitStringLn>
    20f8:	81 c0       	rjmp	.+258    	; 0x21fc <Terminal_SET_SlotTester+0x154>
			}
			else
			{
				//Overwrite old settings
				card_Type[mySlotNr-1] = 'T';
    20fa:	00 2e       	mov	r0, r16
    20fc:	00 0c       	add	r0, r0
    20fe:	11 0b       	sbc	r17, r17
    2100:	f8 01       	movw	r30, r16
    2102:	e3 56       	subi	r30, 0x63	; 99
    2104:	fa 4f       	sbci	r31, 0xFA	; 250
    2106:	84 e5       	ldi	r24, 0x54	; 84
    2108:	80 83       	st	Z, r24
				eeprom_write_block(card_Type, &card_Type_register_eeprom, 8);
    210a:	48 e0       	ldi	r20, 0x08	; 8
    210c:	50 e0       	ldi	r21, 0x00	; 0
    210e:	6c e3       	ldi	r22, 0x3C	; 60
    2110:	70 e0       	ldi	r23, 0x00	; 0
    2112:	8e e9       	ldi	r24, 0x9E	; 158
    2114:	95 e0       	ldi	r25, 0x05	; 5
    2116:	0e 94 49 23 	call	0x4692	; 0x4692 <eeprom_write_block>
				
				//Take default values
				Slot_Tester_Default_Values(mySlotNr);
    211a:	c8 01       	movw	r24, r16
    211c:	d2 dd       	rcall	.-1116   	; 0x1cc2 <Slot_Tester_Default_Values>
				//Init
				Slot_Tester_Init(mySlotNr);
    211e:	c8 01       	movw	r24, r16
    2120:	36 de       	rcall	.-916    	; 0x1d8e <Slot_Tester_Init>
				
				//Answer
				TransmitString("SIN");
    2122:	82 e2       	ldi	r24, 0x22	; 34
    2124:	92 e0       	ldi	r25, 0x02	; 2
    2126:	0e 94 10 19 	call	0x3220	; 0x3220 <TransmitString>
				TransmitInt(mySlotNr, 1);
    212a:	61 e0       	ldi	r22, 0x01	; 1
    212c:	c8 01       	movw	r24, r16
    212e:	0e 94 14 19 	call	0x3228	; 0x3228 <TransmitInt>
				TransmitStringLn("T");
    2132:	85 ee       	ldi	r24, 0xE5	; 229
    2134:	92 e0       	ldi	r25, 0x02	; 2
    2136:	0e 94 12 19 	call	0x3224	; 0x3224 <TransmitStringLn>
    213a:	60 c0       	rjmp	.+192    	; 0x21fc <Terminal_SET_SlotTester+0x154>
			}
			break;

		//4.99.2 Set digital number
		case  _MK16('D', 'N'):
			if (!ParseIntLn(&myMessage[6],4,&temp16))
    213c:	ae 01       	movw	r20, r28
    213e:	4f 5f       	subi	r20, 0xFF	; 255
    2140:	5f 4f       	sbci	r21, 0xFF	; 255
    2142:	64 e0       	ldi	r22, 0x04	; 4
    2144:	cf 01       	movw	r24, r30
    2146:	06 96       	adiw	r24, 0x06	; 6
    2148:	38 d7       	rcall	.+3696   	; 0x2fba <ParseIntLn>
    214a:	81 11       	cpse	r24, r1
    214c:	05 c0       	rjmp	.+10     	; 0x2158 <Terminal_SET_SlotTester+0xb0>
			{
				//no number
				TransmitStringLn("FORMAT ERR");
    214e:	87 e1       	ldi	r24, 0x17	; 23
    2150:	92 e0       	ldi	r25, 0x02	; 2
    2152:	0e 94 12 19 	call	0x3224	; 0x3224 <TransmitStringLn>
    2156:	52 c0       	rjmp	.+164    	; 0x21fc <Terminal_SET_SlotTester+0x154>
			}
			else if (temp16 > 9 || temp16 < 0)
    2158:	69 81       	ldd	r22, Y+1	; 0x01
    215a:	7a 81       	ldd	r23, Y+2	; 0x02
    215c:	6a 30       	cpi	r22, 0x0A	; 10
    215e:	71 05       	cpc	r23, r1
    2160:	28 f0       	brcs	.+10     	; 0x216c <Terminal_SET_SlotTester+0xc4>
			{
				//0 to 9
				TransmitStringLn("NUMBER ERR");
    2162:	86 e2       	ldi	r24, 0x26	; 38
    2164:	92 e0       	ldi	r25, 0x02	; 2
    2166:	0e 94 12 19 	call	0x3224	; 0x3224 <TransmitStringLn>
    216a:	48 c0       	rjmp	.+144    	; 0x21fc <Terminal_SET_SlotTester+0x154>
			}
			else
			{	
				//Change display
				slot_Tester_Display_number[mySlotNr-1] = temp16;
    216c:	00 2e       	mov	r0, r16
    216e:	00 0c       	add	r0, r0
    2170:	11 0b       	sbc	r17, r17
    2172:	c8 01       	movw	r24, r16
    2174:	01 97       	sbiw	r24, 0x01	; 1
    2176:	88 0f       	add	r24, r24
    2178:	99 1f       	adc	r25, r25
    217a:	fc 01       	movw	r30, r24
    217c:	e0 5a       	subi	r30, 0xA0	; 160
    217e:	fa 4f       	sbci	r31, 0xFA	; 250
    2180:	71 83       	std	Z+1, r23	; 0x01
    2182:	60 83       	st	Z, r22
				eeprom_write_word(&parameter1_eeprom[mySlotNr-1], temp16);
    2184:	84 5d       	subi	r24, 0xD4	; 212
    2186:	9f 4f       	sbci	r25, 0xFF	; 255
    2188:	0e 94 65 23 	call	0x46ca	; 0x46ca <eeprom_write_word>
				Slot_Tester_set_7Segment(mySlotNr, temp16);
    218c:	69 81       	ldd	r22, Y+1	; 0x01
    218e:	7a 81       	ldd	r23, Y+2	; 0x02
    2190:	c8 01       	movw	r24, r16
    2192:	a8 dd       	rcall	.-1200   	; 0x1ce4 <Slot_Tester_set_7Segment>
						
				//Answer
				TransmitString("SDN");
    2194:	87 ee       	ldi	r24, 0xE7	; 231
    2196:	92 e0       	ldi	r25, 0x02	; 2
    2198:	0e 94 10 19 	call	0x3220	; 0x3220 <TransmitString>
				TransmitInt(mySlotNr, 1);
    219c:	61 e0       	ldi	r22, 0x01	; 1
    219e:	c8 01       	movw	r24, r16
    21a0:	0e 94 14 19 	call	0x3228	; 0x3228 <TransmitInt>
				TransmitString("T = ");
    21a4:	8b ee       	ldi	r24, 0xEB	; 235
    21a6:	92 e0       	ldi	r25, 0x02	; 2
    21a8:	0e 94 10 19 	call	0x3220	; 0x3220 <TransmitString>
				TransmitInt(temp16, 1);
    21ac:	61 e0       	ldi	r22, 0x01	; 1
    21ae:	89 81       	ldd	r24, Y+1	; 0x01
    21b0:	9a 81       	ldd	r25, Y+2	; 0x02
    21b2:	0e 94 14 19 	call	0x3228	; 0x3228 <TransmitInt>
				TransmitStringLn("");
    21b6:	84 e0       	ldi	r24, 0x04	; 4
    21b8:	93 e0       	ldi	r25, 0x03	; 3
    21ba:	0e 94 12 19 	call	0x3224	; 0x3224 <TransmitStringLn>
    21be:	1e c0       	rjmp	.+60     	; 0x21fc <Terminal_SET_SlotTester+0x154>
			}
			break;		
			
		//4.99.3 Start test run (blinking)
		case _MK16('S','T'):
			if (myMessage[5] != '\n')
    21c0:	85 81       	ldd	r24, Z+5	; 0x05
    21c2:	8a 30       	cpi	r24, 0x0A	; 10
    21c4:	29 f0       	breq	.+10     	; 0x21d0 <Terminal_SET_SlotTester+0x128>
			{
				//To many Chars
				TransmitStringLn("FORMAT ERR");
    21c6:	87 e1       	ldi	r24, 0x17	; 23
    21c8:	92 e0       	ldi	r25, 0x02	; 2
    21ca:	0e 94 12 19 	call	0x3224	; 0x3224 <TransmitStringLn>
    21ce:	16 c0       	rjmp	.+44     	; 0x21fc <Terminal_SET_SlotTester+0x154>
			}
			else
			{				
				//Test
				Slot_Tester_Gesamtablauf(mySlotNr);
    21d0:	00 2e       	mov	r0, r16
    21d2:	00 0c       	add	r0, r0
    21d4:	11 0b       	sbc	r17, r17
    21d6:	c8 01       	movw	r24, r16
    21d8:	b3 de       	rcall	.-666    	; 0x1f40 <Slot_Tester_Gesamtablauf>
				
				//Answer
				TransmitString("Slot-Test finished: ");
    21da:	80 ef       	ldi	r24, 0xF0	; 240
    21dc:	92 e0       	ldi	r25, 0x02	; 2
    21de:	0e 94 10 19 	call	0x3220	; 0x3220 <TransmitString>
				TransmitInt(mySlotNr, 1);
    21e2:	61 e0       	ldi	r22, 0x01	; 1
    21e4:	c8 01       	movw	r24, r16
    21e6:	0e 94 14 19 	call	0x3228	; 0x3228 <TransmitInt>
				TransmitStringLn("");
    21ea:	84 e0       	ldi	r24, 0x04	; 4
    21ec:	93 e0       	ldi	r25, 0x03	; 3
    21ee:	0e 94 12 19 	call	0x3224	; 0x3224 <TransmitStringLn>
    21f2:	04 c0       	rjmp	.+8      	; 0x21fc <Terminal_SET_SlotTester+0x154>
			}
			break;
			
		//Default --> Fehler
		default:
			TransmitStringLn("COMMAND ERR");
    21f4:	89 e4       	ldi	r24, 0x49	; 73
    21f6:	92 e0       	ldi	r25, 0x02	; 2
    21f8:	0e 94 12 19 	call	0x3224	; 0x3224 <TransmitStringLn>
			break;
	
	}


}
    21fc:	0f 90       	pop	r0
    21fe:	0f 90       	pop	r0
    2200:	df 91       	pop	r29
    2202:	cf 91       	pop	r28
    2204:	1f 91       	pop	r17
    2206:	0f 91       	pop	r16
    2208:	08 95       	ret

0000220a <Terminal_GET_SlotTester>:

void Terminal_GET_SlotTester(char *myMessage)
{
    220a:	cf 93       	push	r28
    220c:	df 93       	push	r29
    220e:	fc 01       	movw	r30, r24
	
	//Local variables
	uint16_t myCMD = _MK16(myMessage[1],myMessage[2]);
	int8_t mySlotNr = myMessage[3] - '0';

	switch(myCMD){
    2210:	22 81       	ldd	r18, Z+2	; 0x02
    2212:	30 e0       	ldi	r19, 0x00	; 0
    2214:	32 2f       	mov	r19, r18
    2216:	22 27       	eor	r18, r18
    2218:	81 81       	ldd	r24, Z+1	; 0x01
    221a:	28 2b       	or	r18, r24
    221c:	24 34       	cpi	r18, 0x44	; 68
    221e:	3e 44       	sbci	r19, 0x4E	; 78
    2220:	d1 f4       	brne	.+52     	; 0x2256 <Terminal_GET_SlotTester+0x4c>
	//myCMD:		2 indicator Chars (Position 1 and 2)
	//mySlotNr:		Slot Number (Position 3)
	
	//Local variables
	uint16_t myCMD = _MK16(myMessage[1],myMessage[2]);
	int8_t mySlotNr = myMessage[3] - '0';
    2222:	c3 81       	ldd	r28, Z+3	; 0x03

	switch(myCMD){
		
		//99.3.2 Offset Voltage
		case _MK16('D','N'):
			TransmitString("GDN");
    2224:	85 e0       	ldi	r24, 0x05	; 5
    2226:	93 e0       	ldi	r25, 0x03	; 3
    2228:	fb d7       	rcall	.+4086   	; 0x3220 <TransmitString>
			TransmitInt(mySlotNr , 1);
    222a:	c0 53       	subi	r28, 0x30	; 48
    222c:	0c 2e       	mov	r0, r28
    222e:	00 0c       	add	r0, r0
    2230:	dd 0b       	sbc	r29, r29
    2232:	61 e0       	ldi	r22, 0x01	; 1
    2234:	ce 01       	movw	r24, r28
    2236:	f8 d7       	rcall	.+4080   	; 0x3228 <TransmitInt>
			TransmitString("T=");
    2238:	8d ea       	ldi	r24, 0xAD	; 173
    223a:	93 e0       	ldi	r25, 0x03	; 3
    223c:	f1 d7       	rcall	.+4066   	; 0x3220 <TransmitString>
			TransmitInt(slot_Tester_Display_number[mySlotNr - 1], 1);
    223e:	cc 0f       	add	r28, r28
    2240:	dd 1f       	adc	r29, r29
    2242:	c2 5a       	subi	r28, 0xA2	; 162
    2244:	da 4f       	sbci	r29, 0xFA	; 250
    2246:	61 e0       	ldi	r22, 0x01	; 1
    2248:	88 81       	ld	r24, Y
    224a:	99 81       	ldd	r25, Y+1	; 0x01
    224c:	ed d7       	rcall	.+4058   	; 0x3228 <TransmitInt>
			TransmitStringLn("");
    224e:	84 e0       	ldi	r24, 0x04	; 4
    2250:	93 e0       	ldi	r25, 0x03	; 3
    2252:	e8 d7       	rcall	.+4048   	; 0x3224 <TransmitStringLn>
			break;
    2254:	03 c0       	rjmp	.+6      	; 0x225c <Terminal_GET_SlotTester+0x52>
			
		//Default --> Fehler
		default:
			TransmitStringLn("COMMAND ERR");
    2256:	89 e4       	ldi	r24, 0x49	; 73
    2258:	92 e0       	ldi	r25, 0x02	; 2
    225a:	e4 d7       	rcall	.+4040   	; 0x3224 <TransmitStringLn>
    225c:	df 91       	pop	r29
			break;
		
	}

    225e:	cf 91       	pop	r28
    2260:	08 95       	ret

00002262 <DAC_AD5752_Range_and_PowerUp>:
// DAC Initialisieren
// -------------------------------------------------------------


void DAC_AD5752_Range_and_PowerUp(uint8_t range, uint8_t powerUP, volatile uint8_t *port, uint8_t pin)
{
    2262:	ff 92       	push	r15
    2264:	0f 93       	push	r16
    2266:	1f 93       	push	r17
    2268:	cf 93       	push	r28
    226a:	df 93       	push	r29
    226c:	d8 2f       	mov	r29, r24
    226e:	c6 2f       	mov	r28, r22
    2270:	8a 01       	movw	r16, r20
    2272:	f2 2e       	mov	r15, r18
	//Warten bis fertig gesendet
	while(USART_SPI_TXWaiting());
    2274:	0e 94 b2 20 	call	0x4164	; 0x4164 <USART_SPI_TXWaiting>
    2278:	81 11       	cpse	r24, r1
    227a:	fc cf       	rjmp	.-8      	; 0x2274 <DAC_AD5752_Range_and_PowerUp+0x12>
	//CS ändern
	USART_SPI_SetCS(port, pin, 1, 3);
    227c:	23 e0       	ldi	r18, 0x03	; 3
    227e:	41 e0       	ldi	r20, 0x01	; 1
    2280:	6f 2d       	mov	r22, r15
    2282:	c8 01       	movw	r24, r16
    2284:	0e 94 44 20 	call	0x4088	; 0x4088 <USART_SPI_SetCS>
	
	//OUTPUT Range Select Register for both channels
	USART_SPI_TxByte(DAC_REG_RANGE | DAC_ADR_DAC_AB);	
    2288:	8c e0       	ldi	r24, 0x0C	; 12
    228a:	0e 94 9e 21 	call	0x433c	; 0x433c <USART_SPI_TxByte>
	USART_SPI_TxByte(0);
    228e:	80 e0       	ldi	r24, 0x00	; 0
    2290:	0e 94 9e 21 	call	0x433c	; 0x433c <USART_SPI_TxByte>
	USART_SPI_TxByte(range);
    2294:	8d 2f       	mov	r24, r29
    2296:	0e 94 9e 21 	call	0x433c	; 0x433c <USART_SPI_TxByte>
	
	
	//Power Control Register  
	USART_SPI_TxByte(DAC_REG_POWER);	//Read/Write bit -->0 (write)
    229a:	80 e1       	ldi	r24, 0x10	; 16
    229c:	0e 94 9e 21 	call	0x433c	; 0x433c <USART_SPI_TxByte>
	USART_SPI_TxByte(0);
    22a0:	80 e0       	ldi	r24, 0x00	; 0
    22a2:	0e 94 9e 21 	call	0x433c	; 0x433c <USART_SPI_TxByte>
	USART_SPI_TxByte(powerUP);
    22a6:	8c 2f       	mov	r24, r28
    22a8:	0e 94 9e 21 	call	0x433c	; 0x433c <USART_SPI_TxByte>
}
    22ac:	df 91       	pop	r29
    22ae:	cf 91       	pop	r28
    22b0:	1f 91       	pop	r17
    22b2:	0f 91       	pop	r16
    22b4:	ff 90       	pop	r15
    22b6:	08 95       	ret

000022b8 <DAC_AD5752_Set>:
// -------------------------------------------------------------
// Ausgang setzen
// -------------------------------------------------------------

void DAC_AD5752_Set(uint16_t val, volatile uint8_t *port, uint8_t pin, uint8_t ch)
{
    22b8:	ef 92       	push	r14
    22ba:	ff 92       	push	r15
    22bc:	0f 93       	push	r16
    22be:	1f 93       	push	r17
    22c0:	cf 93       	push	r28
    22c2:	df 93       	push	r29
    22c4:	c8 2f       	mov	r28, r24
    22c6:	d9 2f       	mov	r29, r25
    22c8:	7b 01       	movw	r14, r22
    22ca:	04 2f       	mov	r16, r20
    22cc:	12 2f       	mov	r17, r18
	//Wait to finish previous communication
	while(USART_SPI_TXWaiting());
    22ce:	0e 94 b2 20 	call	0x4164	; 0x4164 <USART_SPI_TXWaiting>
    22d2:	81 11       	cpse	r24, r1
    22d4:	fc cf       	rjmp	.-8      	; 0x22ce <DAC_AD5752_Set+0x16>
	//CS change
	USART_SPI_SetCS(port, pin, 1, 3);
    22d6:	23 e0       	ldi	r18, 0x03	; 3
    22d8:	41 e0       	ldi	r20, 0x01	; 1
    22da:	60 2f       	mov	r22, r16
    22dc:	c7 01       	movw	r24, r14
    22de:	0e 94 44 20 	call	0x4088	; 0x4088 <USART_SPI_SetCS>
	
	//Send message
	USART_SPI_TxByte(DAC_REG_DAC | ch);	
    22e2:	81 2f       	mov	r24, r17
    22e4:	0e 94 9e 21 	call	0x433c	; 0x433c <USART_SPI_TxByte>
	USART_SPI_TxByte(val>>8);
    22e8:	8d 2f       	mov	r24, r29
    22ea:	0e 94 9e 21 	call	0x433c	; 0x433c <USART_SPI_TxByte>
	USART_SPI_TxByte(val);
    22ee:	8c 2f       	mov	r24, r28
    22f0:	0e 94 9e 21 	call	0x433c	; 0x433c <USART_SPI_TxByte>
}
    22f4:	df 91       	pop	r29
    22f6:	cf 91       	pop	r28
    22f8:	1f 91       	pop	r17
    22fa:	0f 91       	pop	r16
    22fc:	ff 90       	pop	r15
    22fe:	ef 90       	pop	r14
    2300:	08 95       	ret

00002302 <LTC1864_getBIT_OneShot>:
//////////////////////////////////////////////////////////////////////////
//								Functions								//
//////////////////////////////////////////////////////////////////////////

uint16_t LTC1864_getBIT_OneShot(volatile uint8_t *port, uint8_t pin)
{
    2302:	ff 92       	push	r15
    2304:	0f 93       	push	r16
    2306:	1f 93       	push	r17
    2308:	cf 93       	push	r28
    230a:	df 93       	push	r29
    230c:	1f 92       	push	r1
    230e:	1f 92       	push	r1
    2310:	cd b7       	in	r28, 0x3d	; 61
    2312:	de b7       	in	r29, 0x3e	; 62
    2314:	8c 01       	movw	r16, r24
    2316:	f6 2e       	mov	r15, r22
	//Complete Measurement-Sequence with return value
	//CS to LOW --> Wait --> CS to HIGH (Sample) --> Wait converstion time --> CS to LOW --> Reseive data --> CS Low
	
	//Wait to finish previous communication
	while(USART_SPI_TXWaiting());
    2318:	0e 94 b2 20 	call	0x4164	; 0x4164 <USART_SPI_TXWaiting>
    231c:	81 11       	cpse	r24, r1
    231e:	fc cf       	rjmp	.-8      	; 0x2318 <LTC1864_getBIT_OneShot+0x16>
	//CS change
	USART_SPI_SetCS(port, pin, 1, 2);
    2320:	22 e0       	ldi	r18, 0x02	; 2
    2322:	41 e0       	ldi	r20, 0x01	; 1
    2324:	6f 2d       	mov	r22, r15
    2326:	c8 01       	movw	r24, r16
    2328:	0e 94 44 20 	call	0x4088	; 0x4088 <USART_SPI_SetCS>
	
	//CS to LOW
	_clear_bit(*port, pin);
    232c:	f8 01       	movw	r30, r16
    232e:	20 81       	ld	r18, Z
    2330:	81 e0       	ldi	r24, 0x01	; 1
    2332:	90 e0       	ldi	r25, 0x00	; 0
    2334:	02 c0       	rjmp	.+4      	; 0x233a <LTC1864_getBIT_OneShot+0x38>
    2336:	88 0f       	add	r24, r24
    2338:	99 1f       	adc	r25, r25
    233a:	fa 94       	dec	r15
    233c:	e2 f7       	brpl	.-8      	; 0x2336 <LTC1864_getBIT_OneShot+0x34>
    233e:	98 2f       	mov	r25, r24
    2340:	90 95       	com	r25
    2342:	92 23       	and	r25, r18
    2344:	90 83       	st	Z, r25
	#else
		//round up by default
		__ticks_dc = (uint32_t)(ceil(fabs(__tmp)));
	#endif

	__builtin_avr_delay_cycles(__ticks_dc);
    2346:	fa e0       	ldi	r31, 0x0A	; 10
    2348:	fa 95       	dec	r31
    234a:	f1 f7       	brne	.-4      	; 0x2348 <LTC1864_getBIT_OneShot+0x46>
    234c:	00 c0       	rjmp	.+0      	; 0x234e <LTC1864_getBIT_OneShot+0x4c>
	
	//Wait short time
	_delay_us(2);
	
	//CS to HIGH (Sample)
	_set_bit(*port, pin);
    234e:	f8 01       	movw	r30, r16
    2350:	90 81       	ld	r25, Z
    2352:	89 2b       	or	r24, r25
    2354:	80 83       	st	Z, r24
    2356:	fa e1       	ldi	r31, 0x1A	; 26
    2358:	fa 95       	dec	r31
    235a:	f1 f7       	brne	.-4      	; 0x2358 <LTC1864_getBIT_OneShot+0x56>
    235c:	00 c0       	rjmp	.+0      	; 0x235e <LTC1864_getBIT_OneShot+0x5c>
		
	//Wait conversion time (3.3µs)
	_delay_us(5);
	
	//Send 16bit message and receive bit value
	char message[2] = {0x00, 0x00};
    235e:	19 82       	std	Y+1, r1	; 0x01
    2360:	1a 82       	std	Y+2, r1	; 0x02
	USART_SPI_RxBytes(message, 2);
    2362:	62 e0       	ldi	r22, 0x02	; 2
    2364:	ce 01       	movw	r24, r28
    2366:	01 96       	adiw	r24, 0x01	; 1
    2368:	0e 94 e8 21 	call	0x43d0	; 0x43d0 <USART_SPI_RxBytes>
	
	//Wait until all bytes are available
	while(USART_SPI_RXWaiting() < 2){}
    236c:	0e 94 a6 20 	call	0x414c	; 0x414c <USART_SPI_RXWaiting>
    2370:	82 30       	cpi	r24, 0x02	; 2
    2372:	e0 f3       	brcs	.-8      	; 0x236c <LTC1864_getBIT_OneShot+0x6a>

	//Read two bytes
	USART_SPI_ReceiveLen(2);
    2374:	82 e0       	ldi	r24, 0x02	; 2
    2376:	0e 94 7b 20 	call	0x40f6	; 0x40f6 <USART_SPI_ReceiveLen>
		
	//Return
	return usart_spi_rx[0] << 8 | usart_spi_rx[1];
    237a:	e0 ec       	ldi	r30, 0xC0	; 192
    237c:	f4 e0       	ldi	r31, 0x04	; 4
    237e:	80 81       	ld	r24, Z
    2380:	90 e0       	ldi	r25, 0x00	; 0
    2382:	98 2f       	mov	r25, r24
    2384:	88 27       	eor	r24, r24
    2386:	21 81       	ldd	r18, Z+1	; 0x01
}
    2388:	82 2b       	or	r24, r18
    238a:	0f 90       	pop	r0
    238c:	0f 90       	pop	r0
    238e:	df 91       	pop	r29
    2390:	cf 91       	pop	r28
    2392:	1f 91       	pop	r17
    2394:	0f 91       	pop	r16
    2396:	ff 90       	pop	r15
    2398:	08 95       	ret

0000239a <LTC1864_getBIT_LastSample_and_NewShot>:

uint16_t LTC1864_getBIT_LastSample_and_NewShot(volatile uint8_t *port, uint8_t pin)
{
    239a:	ff 92       	push	r15
    239c:	0f 93       	push	r16
    239e:	1f 93       	push	r17
    23a0:	cf 93       	push	r28
    23a2:	df 93       	push	r29
    23a4:	1f 92       	push	r1
    23a6:	1f 92       	push	r1
    23a8:	cd b7       	in	r28, 0x3d	; 61
    23aa:	de b7       	in	r29, 0x3e	; 62
    23ac:	8c 01       	movw	r16, r24
    23ae:	f6 2e       	mov	r15, r22
	//Receive the data form the last measurement and execute new one
		
	//Wait to finish previous communication
	while(USART_SPI_TXWaiting());
    23b0:	0e 94 b2 20 	call	0x4164	; 0x4164 <USART_SPI_TXWaiting>
    23b4:	81 11       	cpse	r24, r1
    23b6:	fc cf       	rjmp	.-8      	; 0x23b0 <LTC1864_getBIT_LastSample_and_NewShot+0x16>
	//CS change
	USART_SPI_SetCS(port, pin, 1, 2);
    23b8:	22 e0       	ldi	r18, 0x02	; 2
    23ba:	41 e0       	ldi	r20, 0x01	; 1
    23bc:	6f 2d       	mov	r22, r15
    23be:	c8 01       	movw	r24, r16
    23c0:	0e 94 44 20 	call	0x4088	; 0x4088 <USART_SPI_SetCS>
	
	//Send 16bit message and receive bit value
	char message[2] = {0x00, 0x00};
    23c4:	19 82       	std	Y+1, r1	; 0x01
    23c6:	1a 82       	std	Y+2, r1	; 0x02
	USART_SPI_RxBytes(message, 2);
    23c8:	62 e0       	ldi	r22, 0x02	; 2
    23ca:	ce 01       	movw	r24, r28
    23cc:	01 96       	adiw	r24, 0x01	; 1
    23ce:	0e 94 e8 21 	call	0x43d0	; 0x43d0 <USART_SPI_RxBytes>
		
	//Wait until all bytes are available
	while(USART_SPI_RXWaiting() < 2){}
    23d2:	0e 94 a6 20 	call	0x414c	; 0x414c <USART_SPI_RXWaiting>
    23d6:	82 30       	cpi	r24, 0x02	; 2
    23d8:	e0 f3       	brcs	.-8      	; 0x23d2 <LTC1864_getBIT_LastSample_and_NewShot+0x38>

	//Read two bytes
	USART_SPI_ReceiveLen(2);
    23da:	82 e0       	ldi	r24, 0x02	; 2
    23dc:	0e 94 7b 20 	call	0x40f6	; 0x40f6 <USART_SPI_ReceiveLen>
		
	//Return
	return usart_spi_rx[0] << 8 | usart_spi_rx[1];
    23e0:	e0 ec       	ldi	r30, 0xC0	; 192
    23e2:	f4 e0       	ldi	r31, 0x04	; 4
    23e4:	80 81       	ld	r24, Z
    23e6:	90 e0       	ldi	r25, 0x00	; 0
    23e8:	98 2f       	mov	r25, r24
    23ea:	88 27       	eor	r24, r24
    23ec:	21 81       	ldd	r18, Z+1	; 0x01
    23ee:	82 2b       	or	r24, r18
    23f0:	0f 90       	pop	r0
    23f2:	0f 90       	pop	r0
    23f4:	df 91       	pop	r29
    23f6:	cf 91       	pop	r28
    23f8:	1f 91       	pop	r17
    23fa:	0f 91       	pop	r16
    23fc:	ff 90       	pop	r15
    23fe:	08 95       	ret

00002400 <IO_Expander_set_Register>:


void IO_Expander_Init(){}
	
void IO_Expander_set_Register(uint8_t reg, uint8_t value, volatile uint8_t *port, uint8_t pin)
{
    2400:	ff 92       	push	r15
    2402:	0f 93       	push	r16
    2404:	1f 93       	push	r17
    2406:	cf 93       	push	r28
    2408:	df 93       	push	r29
    240a:	d8 2f       	mov	r29, r24
    240c:	c6 2f       	mov	r28, r22
    240e:	8a 01       	movw	r16, r20
    2410:	f2 2e       	mov	r15, r18
	//Warten bis fertig gesendet
	while(USART_SPI_TXWaiting());
    2412:	0e 94 b2 20 	call	0x4164	; 0x4164 <USART_SPI_TXWaiting>
    2416:	81 11       	cpse	r24, r1
    2418:	fc cf       	rjmp	.-8      	; 0x2412 <IO_Expander_set_Register+0x12>
	//CS ändern
	USART_SPI_SetCS(port, pin, 1, 3);
    241a:	23 e0       	ldi	r18, 0x03	; 3
    241c:	41 e0       	ldi	r20, 0x01	; 1
    241e:	6f 2d       	mov	r22, r15
    2420:	c8 01       	movw	r24, r16
    2422:	0e 94 44 20 	call	0x4088	; 0x4088 <USART_SPI_SetCS>
	//Nachricht senden
	USART_SPI_TxByte(IO_Expander_adresse);	//Read/Write bit -->0 (write)
    2426:	80 e4       	ldi	r24, 0x40	; 64
    2428:	0e 94 9e 21 	call	0x433c	; 0x433c <USART_SPI_TxByte>
	USART_SPI_TxByte(reg);
    242c:	8d 2f       	mov	r24, r29
    242e:	0e 94 9e 21 	call	0x433c	; 0x433c <USART_SPI_TxByte>
	USART_SPI_TxByte(value);
    2432:	8c 2f       	mov	r24, r28
    2434:	0e 94 9e 21 	call	0x433c	; 0x433c <USART_SPI_TxByte>
}
    2438:	df 91       	pop	r29
    243a:	cf 91       	pop	r28
    243c:	1f 91       	pop	r17
    243e:	0f 91       	pop	r16
    2440:	ff 90       	pop	r15
    2442:	08 95       	ret

00002444 <IO_Expander_get_Register>:

uint8_t IO_Expander_get_Register(uint8_t reg, volatile uint8_t *port, uint8_t pin)
{
    2444:	ef 92       	push	r14
    2446:	ff 92       	push	r15
    2448:	0f 93       	push	r16
    244a:	1f 93       	push	r17
    244c:	cf 93       	push	r28
    244e:	df 93       	push	r29
    2450:	00 d0       	rcall	.+0      	; 0x2452 <IO_Expander_get_Register+0xe>
    2452:	cd b7       	in	r28, 0x3d	; 61
    2454:	de b7       	in	r29, 0x3e	; 62
    2456:	18 2f       	mov	r17, r24
    2458:	7b 01       	movw	r14, r22
    245a:	04 2f       	mov	r16, r20
	//Warten bis fertig gesendet
	while(USART_SPI_TXWaiting());
    245c:	0e 94 b2 20 	call	0x4164	; 0x4164 <USART_SPI_TXWaiting>
    2460:	81 11       	cpse	r24, r1
    2462:	fc cf       	rjmp	.-8      	; 0x245c <IO_Expander_get_Register+0x18>
	//CS ändern
	USART_SPI_SetCS(port, pin, 1, 3);
    2464:	23 e0       	ldi	r18, 0x03	; 3
    2466:	41 e0       	ldi	r20, 0x01	; 1
    2468:	60 2f       	mov	r22, r16
    246a:	c7 01       	movw	r24, r14
    246c:	0e 94 44 20 	call	0x4088	; 0x4088 <USART_SPI_SetCS>
	//Nachricht senden
	//USART_SPI_TxByte(IO_Expander_adresse | 0x01);	//Read/Write bit -->1 (read)
	//USART_SPI_TxByte(reg);
	
	char message[3] = {IO_Expander_adresse | 0x01, reg, 0x00};
    2470:	81 e4       	ldi	r24, 0x41	; 65
    2472:	89 83       	std	Y+1, r24	; 0x01
    2474:	1a 83       	std	Y+2, r17	; 0x02
    2476:	1b 82       	std	Y+3, r1	; 0x03
	USART_SPI_RxBytes(message, 3);
    2478:	63 e0       	ldi	r22, 0x03	; 3
    247a:	ce 01       	movw	r24, r28
    247c:	01 96       	adiw	r24, 0x01	; 1
    247e:	0e 94 e8 21 	call	0x43d0	; 0x43d0 <USART_SPI_RxBytes>
	
	//Warten bis alle Daten da sind
	while(USART_SPI_RXWaiting() < 3){}
    2482:	0e 94 a6 20 	call	0x414c	; 0x414c <USART_SPI_RXWaiting>
    2486:	83 30       	cpi	r24, 0x03	; 3
    2488:	e0 f3       	brcs	.-8      	; 0x2482 <IO_Expander_get_Register+0x3e>

	//Wieviele Bytes müssen gelesen werden
	USART_SPI_ReceiveLen(3);
    248a:	83 e0       	ldi	r24, 0x03	; 3
    248c:	0e 94 7b 20 	call	0x40f6	; 0x40f6 <USART_SPI_ReceiveLen>
	
	//Auslesen (nur letztes Byte wichtig)
	return usart_spi_rx[2];

}
    2490:	80 91 c2 04 	lds	r24, 0x04C2	; 0x8004c2 <usart_spi_rx+0x2>
    2494:	0f 90       	pop	r0
    2496:	0f 90       	pop	r0
    2498:	0f 90       	pop	r0
    249a:	df 91       	pop	r29
    249c:	cf 91       	pop	r28
    249e:	1f 91       	pop	r17
    24a0:	0f 91       	pop	r16
    24a2:	ff 90       	pop	r15
    24a4:	ef 90       	pop	r14
    24a6:	08 95       	ret

000024a8 <Init_IO_Pins>:
	//Switch ON all pulses
	HP_Port = pulse_output_register;
	MP_Port = pulse_output_register;
		
	//Start Timer 1
	Start_Timer_100us();
    24a8:	af 92       	push	r10
    24aa:	bf 92       	push	r11
    24ac:	df 92       	push	r13
    24ae:	ef 92       	push	r14
    24b0:	ff 92       	push	r15
    24b2:	0f 93       	push	r16
    24b4:	1f 93       	push	r17
    24b6:	cf 93       	push	r28
    24b8:	df 93       	push	r29
    24ba:	a3 98       	cbi	0x14, 3	; 20
    24bc:	a2 98       	cbi	0x14, 2	; 20
    24be:	a0 98       	cbi	0x14, 0	; 20
    24c0:	a1 98       	cbi	0x14, 1	; 20
    24c2:	9b 9a       	sbi	0x13, 3	; 19
    24c4:	9a 9a       	sbi	0x13, 2	; 19
    24c6:	99 9a       	sbi	0x13, 1	; 19
    24c8:	98 9a       	sbi	0x13, 0	; 19
    24ca:	20 e0       	ldi	r18, 0x00	; 0
    24cc:	30 e0       	ldi	r19, 0x00	; 0
    24ce:	02 e0       	ldi	r16, 0x02	; 2
    24d0:	11 e0       	ldi	r17, 0x01	; 1
    24d2:	ee 24       	eor	r14, r14
    24d4:	e3 94       	inc	r14
    24d6:	f1 2c       	mov	r15, r1
    24d8:	68 e0       	ldi	r22, 0x08	; 8
    24da:	71 e0       	ldi	r23, 0x01	; 1
    24dc:	45 e0       	ldi	r20, 0x05	; 5
    24de:	51 e0       	ldi	r21, 0x01	; 1
    24e0:	c1 e0       	ldi	r28, 0x01	; 1
    24e2:	d1 e0       	ldi	r29, 0x01	; 1
    24e4:	a7 e0       	ldi	r26, 0x07	; 7
    24e6:	b1 e0       	ldi	r27, 0x01	; 1
    24e8:	68 94       	set
    24ea:	aa 24       	eor	r10, r10
    24ec:	a2 f8       	bld	r10, 2
    24ee:	bb 24       	eor	r11, r11
    24f0:	b3 94       	inc	r11
    24f2:	f8 01       	movw	r30, r16
    24f4:	d0 80       	ld	r13, Z
    24f6:	c7 01       	movw	r24, r14
    24f8:	02 2e       	mov	r0, r18
    24fa:	02 c0       	rjmp	.+4      	; 0x2500 <Init_IO_Pins+0x58>
    24fc:	88 0f       	add	r24, r24
    24fe:	99 1f       	adc	r25, r25
    2500:	0a 94       	dec	r0
    2502:	e2 f7       	brpl	.-8      	; 0x24fc <Init_IO_Pins+0x54>
    2504:	98 2f       	mov	r25, r24
    2506:	90 95       	com	r25
    2508:	d9 22       	and	r13, r25
    250a:	d0 82       	st	Z, r13
    250c:	fb 01       	movw	r30, r22
    250e:	d0 80       	ld	r13, Z
    2510:	9d 21       	and	r25, r13
    2512:	90 83       	st	Z, r25
    2514:	92 b1       	in	r25, 0x02	; 2
    2516:	98 2b       	or	r25, r24
    2518:	92 b9       	out	0x02, r25	; 2
    251a:	fa 01       	movw	r30, r20
    251c:	90 81       	ld	r25, Z
    251e:	98 2b       	or	r25, r24
    2520:	90 83       	st	Z, r25
    2522:	98 81       	ld	r25, Y
    2524:	98 2b       	or	r25, r24
    2526:	98 83       	st	Y, r25
    2528:	9c 91       	ld	r25, X
    252a:	98 2b       	or	r25, r24
    252c:	9c 93       	st	X, r25
    252e:	91 b1       	in	r25, 0x01	; 1
    2530:	98 2b       	or	r25, r24
    2532:	91 b9       	out	0x01, r25	; 1
    2534:	f5 01       	movw	r30, r10
    2536:	90 81       	ld	r25, Z
    2538:	89 2b       	or	r24, r25
    253a:	80 83       	st	Z, r24
    253c:	2f 5f       	subi	r18, 0xFF	; 255
    253e:	3f 4f       	sbci	r19, 0xFF	; 255
    2540:	27 30       	cpi	r18, 0x07	; 7
    2542:	31 05       	cpc	r19, r1
    2544:	b1 f6       	brne	.-84     	; 0x24f2 <Init_IO_Pins+0x4a>
    2546:	74 9a       	sbi	0x0e, 4	; 14
    2548:	71 9a       	sbi	0x0e, 1	; 14
    254a:	6c 9a       	sbi	0x0d, 4	; 13
    254c:	69 9a       	sbi	0x0d, 1	; 13
    254e:	72 98       	cbi	0x0e, 2	; 14
    2550:	6a 9a       	sbi	0x0d, 2	; 13
    2552:	2e 98       	cbi	0x05, 6	; 5
    2554:	26 9a       	sbi	0x04, 6	; 4
    2556:	27 98       	cbi	0x04, 7	; 4
    2558:	df 91       	pop	r29
    255a:	cf 91       	pop	r28
    255c:	1f 91       	pop	r17
    255e:	0f 91       	pop	r16
    2560:	ff 90       	pop	r15
    2562:	ef 90       	pop	r14
    2564:	df 90       	pop	r13
    2566:	bf 90       	pop	r11
    2568:	af 90       	pop	r10
    256a:	08 95       	ret

0000256c <Lauflicht>:
    256c:	86 e0       	ldi	r24, 0x06	; 6
    256e:	80 93 ab 05 	sts	0x05AB, r24	; 0x8005ab <startup_wait_counter>
    2572:	39 c0       	rjmp	.+114    	; 0x25e6 <Lauflicht+0x7a>
    2574:	80 91 a7 05 	lds	r24, 0x05A7	; 0x8005a7 <interrupt_1ms>
    2578:	8a 30       	cpi	r24, 0x0A	; 10
    257a:	90 f0       	brcs	.+36     	; 0x25a0 <Lauflicht+0x34>
    257c:	10 92 a7 05 	sts	0x05A7, r1	; 0x8005a7 <interrupt_1ms>
    2580:	80 91 ac 05 	lds	r24, 0x05AC	; 0x8005ac <interrupt_10hz>
    2584:	8f 5f       	subi	r24, 0xFF	; 255
    2586:	8a 30       	cpi	r24, 0x0A	; 10
    2588:	19 f0       	breq	.+6      	; 0x2590 <Lauflicht+0x24>
    258a:	80 93 ac 05 	sts	0x05AC, r24	; 0x8005ac <interrupt_10hz>
    258e:	08 c0       	rjmp	.+16     	; 0x25a0 <Lauflicht+0x34>
    2590:	10 92 ac 05 	sts	0x05AC, r1	; 0x8005ac <interrupt_10hz>
    2594:	80 91 ab 05 	lds	r24, 0x05AB	; 0x8005ab <startup_wait_counter>
    2598:	81 50       	subi	r24, 0x01	; 1
    259a:	80 93 ab 05 	sts	0x05AB, r24	; 0x8005ab <startup_wait_counter>
    259e:	a8 95       	wdr
    25a0:	80 91 ab 05 	lds	r24, 0x05AB	; 0x8005ab <startup_wait_counter>
    25a4:	86 30       	cpi	r24, 0x06	; 6
    25a6:	09 f4       	brne	.+2      	; 0x25aa <Lauflicht+0x3e>
    25a8:	a3 9a       	sbi	0x14, 3	; 20
    25aa:	80 91 ab 05 	lds	r24, 0x05AB	; 0x8005ab <startup_wait_counter>
    25ae:	85 30       	cpi	r24, 0x05	; 5
    25b0:	11 f4       	brne	.+4      	; 0x25b6 <Lauflicht+0x4a>
    25b2:	a3 98       	cbi	0x14, 3	; 20
    25b4:	a2 9a       	sbi	0x14, 2	; 20
    25b6:	80 91 ab 05 	lds	r24, 0x05AB	; 0x8005ab <startup_wait_counter>
    25ba:	84 30       	cpi	r24, 0x04	; 4
    25bc:	11 f4       	brne	.+4      	; 0x25c2 <Lauflicht+0x56>
    25be:	a3 9a       	sbi	0x14, 3	; 20
    25c0:	a2 9a       	sbi	0x14, 2	; 20
    25c2:	80 91 ab 05 	lds	r24, 0x05AB	; 0x8005ab <startup_wait_counter>
    25c6:	83 30       	cpi	r24, 0x03	; 3
    25c8:	19 f4       	brne	.+6      	; 0x25d0 <Lauflicht+0x64>
    25ca:	a3 98       	cbi	0x14, 3	; 20
    25cc:	a2 98       	cbi	0x14, 2	; 20
    25ce:	a0 9a       	sbi	0x14, 0	; 20
    25d0:	80 91 ab 05 	lds	r24, 0x05AB	; 0x8005ab <startup_wait_counter>
    25d4:	82 30       	cpi	r24, 0x02	; 2
    25d6:	11 f4       	brne	.+4      	; 0x25dc <Lauflicht+0x70>
    25d8:	a0 98       	cbi	0x14, 0	; 20
    25da:	a1 9a       	sbi	0x14, 1	; 20
    25dc:	80 91 ab 05 	lds	r24, 0x05AB	; 0x8005ab <startup_wait_counter>
    25e0:	81 30       	cpi	r24, 0x01	; 1
    25e2:	09 f4       	brne	.+2      	; 0x25e6 <Lauflicht+0x7a>
    25e4:	a1 98       	cbi	0x14, 1	; 20
    25e6:	80 91 ab 05 	lds	r24, 0x05AB	; 0x8005ab <startup_wait_counter>
    25ea:	81 11       	cpse	r24, r1
    25ec:	c3 cf       	rjmp	.-122    	; 0x2574 <Lauflicht+0x8>
    25ee:	08 95       	ret

000025f0 <EEPROM_default_Values>:
    25f0:	cf 93       	push	r28
    25f2:	df 93       	push	r29
    25f4:	cd b7       	in	r28, 0x3d	; 61
    25f6:	de b7       	in	r29, 0x3e	; 62
    25f8:	28 97       	sbiw	r28, 0x08	; 8
    25fa:	0f b6       	in	r0, 0x3f	; 63
    25fc:	f8 94       	cli
    25fe:	de bf       	out	0x3e, r29	; 62
    2600:	0f be       	out	0x3f, r0	; 63
    2602:	cd bf       	out	0x3d, r28	; 61
    2604:	67 e0       	ldi	r22, 0x07	; 7
    2606:	70 e0       	ldi	r23, 0x00	; 0
    2608:	85 e4       	ldi	r24, 0x45	; 69
    260a:	90 e0       	ldi	r25, 0x00	; 0
    260c:	0e 94 65 23 	call	0x46ca	; 0x46ca <eeprom_write_word>
    2610:	49 e1       	ldi	r20, 0x19	; 25
    2612:	50 e0       	ldi	r21, 0x00	; 0
    2614:	60 e0       	ldi	r22, 0x00	; 0
    2616:	70 e0       	ldi	r23, 0x00	; 0
    2618:	88 e0       	ldi	r24, 0x08	; 8
    261a:	90 e0       	ldi	r25, 0x00	; 0
    261c:	0e 94 60 23 	call	0x46c0	; 0x46c0 <eeprom_write_dword>
    2620:	49 e1       	ldi	r20, 0x19	; 25
    2622:	50 e0       	ldi	r21, 0x00	; 0
    2624:	60 e0       	ldi	r22, 0x00	; 0
    2626:	70 e0       	ldi	r23, 0x00	; 0
    2628:	84 e0       	ldi	r24, 0x04	; 4
    262a:	90 e0       	ldi	r25, 0x00	; 0
    262c:	0e 94 60 23 	call	0x46c0	; 0x46c0 <eeprom_write_dword>
    2630:	6a e0       	ldi	r22, 0x0A	; 10
    2632:	70 e0       	ldi	r23, 0x00	; 0
    2634:	82 e0       	ldi	r24, 0x02	; 2
    2636:	90 e0       	ldi	r25, 0x00	; 0
    2638:	0e 94 65 23 	call	0x46ca	; 0x46ca <eeprom_write_word>
    263c:	64 e6       	ldi	r22, 0x64	; 100
    263e:	70 e0       	ldi	r23, 0x00	; 0
    2640:	80 e0       	ldi	r24, 0x00	; 0
    2642:	90 e0       	ldi	r25, 0x00	; 0
    2644:	0e 94 65 23 	call	0x46ca	; 0x46ca <eeprom_write_word>
    2648:	60 e0       	ldi	r22, 0x00	; 0
    264a:	84 e4       	ldi	r24, 0x44	; 68
    264c:	90 e0       	ldi	r25, 0x00	; 0
    264e:	0e 94 52 23 	call	0x46a4	; 0x46a4 <eeprom_write_byte>
    2652:	88 e0       	ldi	r24, 0x08	; 8
    2654:	e5 e0       	ldi	r30, 0x05	; 5
    2656:	f2 e0       	ldi	r31, 0x02	; 2
    2658:	de 01       	movw	r26, r28
    265a:	11 96       	adiw	r26, 0x01	; 1
    265c:	01 90       	ld	r0, Z+
    265e:	0d 92       	st	X+, r0
    2660:	8a 95       	dec	r24
    2662:	e1 f7       	brne	.-8      	; 0x265c <EEPROM_default_Values+0x6c>
    2664:	48 e0       	ldi	r20, 0x08	; 8
    2666:	50 e0       	ldi	r21, 0x00	; 0
    2668:	be 01       	movw	r22, r28
    266a:	6f 5f       	subi	r22, 0xFF	; 255
    266c:	7f 4f       	sbci	r23, 0xFF	; 255
    266e:	8c e3       	ldi	r24, 0x3C	; 60
    2670:	90 e0       	ldi	r25, 0x00	; 0
    2672:	0e 94 49 23 	call	0x4692	; 0x4692 <eeprom_write_block>
    2676:	28 96       	adiw	r28, 0x08	; 8
    2678:	0f b6       	in	r0, 0x3f	; 63
    267a:	f8 94       	cli
    267c:	de bf       	out	0x3e, r29	; 62
    267e:	0f be       	out	0x3f, r0	; 63
    2680:	cd bf       	out	0x3d, r28	; 61
    2682:	df 91       	pop	r29
    2684:	cf 91       	pop	r28
    2686:	08 95       	ret

00002688 <EEPROM_last_Values>:
    2688:	0f 93       	push	r16
    268a:	1f 93       	push	r17
    268c:	cf 93       	push	r28
    268e:	df 93       	push	r29
    2690:	88 e0       	ldi	r24, 0x08	; 8
    2692:	90 e0       	ldi	r25, 0x00	; 0
    2694:	0e 94 3f 23 	call	0x467e	; 0x467e <eeprom_read_dword>
    2698:	60 93 72 05 	sts	0x0572, r22	; 0x800572 <heat_pulse_length>
    269c:	70 93 73 05 	sts	0x0573, r23	; 0x800573 <heat_pulse_length+0x1>
    26a0:	80 93 74 05 	sts	0x0574, r24	; 0x800574 <heat_pulse_length+0x2>
    26a4:	90 93 75 05 	sts	0x0575, r25	; 0x800575 <heat_pulse_length+0x3>
    26a8:	84 e0       	ldi	r24, 0x04	; 4
    26aa:	90 e0       	ldi	r25, 0x00	; 0
    26ac:	0e 94 3f 23 	call	0x467e	; 0x467e <eeprom_read_dword>
    26b0:	60 93 88 05 	sts	0x0588, r22	; 0x800588 <measure_pulse_length>
    26b4:	70 93 89 05 	sts	0x0589, r23	; 0x800589 <measure_pulse_length+0x1>
    26b8:	80 93 8a 05 	sts	0x058A, r24	; 0x80058a <measure_pulse_length+0x2>
    26bc:	90 93 8b 05 	sts	0x058B, r25	; 0x80058b <measure_pulse_length+0x3>
    26c0:	82 e0       	ldi	r24, 0x02	; 2
    26c2:	90 e0       	ldi	r25, 0x00	; 0
    26c4:	0e 94 44 23 	call	0x4688	; 0x4688 <eeprom_read_word>
    26c8:	90 93 71 05 	sts	0x0571, r25	; 0x800571 <deterministic_pulse_length+0x1>
    26cc:	80 93 70 05 	sts	0x0570, r24	; 0x800570 <deterministic_pulse_length>
    26d0:	80 e0       	ldi	r24, 0x00	; 0
    26d2:	90 e0       	ldi	r25, 0x00	; 0
    26d4:	0e 94 44 23 	call	0x4688	; 0x4688 <eeprom_read_word>
    26d8:	90 93 77 05 	sts	0x0577, r25	; 0x800577 <deterministic_pulse_cycles+0x1>
    26dc:	80 93 76 05 	sts	0x0576, r24	; 0x800576 <deterministic_pulse_cycles>
    26e0:	84 e4       	ldi	r24, 0x44	; 68
    26e2:	90 e0       	ldi	r25, 0x00	; 0
    26e4:	0e 94 37 23 	call	0x466e	; 0x466e <eeprom_read_byte>
    26e8:	80 93 8d 05 	sts	0x058D, r24	; 0x80058d <pulse_output_register>
    26ec:	48 e0       	ldi	r20, 0x08	; 8
    26ee:	50 e0       	ldi	r21, 0x00	; 0
    26f0:	6c e3       	ldi	r22, 0x3C	; 60
    26f2:	70 e0       	ldi	r23, 0x00	; 0
    26f4:	8e e9       	ldi	r24, 0x9E	; 158
    26f6:	95 e0       	ldi	r25, 0x05	; 5
    26f8:	0e 94 27 23 	call	0x464e	; 0x464e <eeprom_read_block>
    26fc:	0e e9       	ldi	r16, 0x9E	; 158
    26fe:	15 e0       	ldi	r17, 0x05	; 5
    2700:	c1 e0       	ldi	r28, 0x01	; 1
    2702:	d0 e0       	ldi	r29, 0x00	; 0
    2704:	f8 01       	movw	r30, r16
    2706:	81 91       	ld	r24, Z+
    2708:	8f 01       	movw	r16, r30
    270a:	86 34       	cpi	r24, 0x46	; 70
    270c:	c9 f0       	breq	.+50     	; 0x2740 <EEPROM_last_Values+0xb8>
    270e:	28 f4       	brcc	.+10     	; 0x271a <EEPROM_last_Values+0x92>
    2710:	81 34       	cpi	r24, 0x41	; 65
    2712:	51 f0       	breq	.+20     	; 0x2728 <EEPROM_last_Values+0xa0>
    2714:	82 34       	cpi	r24, 0x42	; 66
    2716:	c1 f0       	breq	.+48     	; 0x2748 <EEPROM_last_Values+0xc0>
    2718:	1d c0       	rjmp	.+58     	; 0x2754 <EEPROM_last_Values+0xcc>
    271a:	8d 34       	cpi	r24, 0x4D	; 77
    271c:	69 f0       	breq	.+26     	; 0x2738 <EEPROM_last_Values+0xb0>
    271e:	84 35       	cpi	r24, 0x54	; 84
    2720:	b9 f0       	breq	.+46     	; 0x2750 <EEPROM_last_Values+0xc8>
    2722:	8c 34       	cpi	r24, 0x4C	; 76
    2724:	b9 f4       	brne	.+46     	; 0x2754 <EEPROM_last_Values+0xcc>
    2726:	04 c0       	rjmp	.+8      	; 0x2730 <EEPROM_last_Values+0xa8>
    2728:	ce 01       	movw	r24, r28
    272a:	0e 94 9e 00 	call	0x13c	; 0x13c <Amplifier_Variables_from_EEPROM>
    272e:	12 c0       	rjmp	.+36     	; 0x2754 <EEPROM_last_Values+0xcc>
    2730:	ce 01       	movw	r24, r28
    2732:	0e 94 6b 05 	call	0xad6	; 0xad6 <LED_Source_Variables_from_EEPROM>
    2736:	0e c0       	rjmp	.+28     	; 0x2754 <EEPROM_last_Values+0xcc>
    2738:	ce 01       	movw	r24, r28
    273a:	0e 94 c6 0a 	call	0x158c	; 0x158c <MOSFET_Source_Variables_from_EEPROM>
    273e:	0a c0       	rjmp	.+20     	; 0x2754 <EEPROM_last_Values+0xcc>
    2740:	ce 01       	movw	r24, r28
    2742:	0e 94 9e 02 	call	0x53c	; 0x53c <FrontEnd_Variables_from_EEPROM>
    2746:	06 c0       	rjmp	.+12     	; 0x2754 <EEPROM_last_Values+0xcc>
    2748:	ce 01       	movw	r24, r28
    274a:	0e 94 98 07 	call	0xf30	; 0xf30 <BreakDown_Variables_from_EEPROM>
    274e:	02 c0       	rjmp	.+4      	; 0x2754 <EEPROM_last_Values+0xcc>
    2750:	ce 01       	movw	r24, r28
    2752:	a5 da       	rcall	.-2742   	; 0x1c9e <Slot_Tester_Variables_from_EEPROM>
    2754:	21 96       	adiw	r28, 0x01	; 1
    2756:	c9 30       	cpi	r28, 0x09	; 9
    2758:	d1 05       	cpc	r29, r1
    275a:	a1 f6       	brne	.-88     	; 0x2704 <EEPROM_last_Values+0x7c>
    275c:	df 91       	pop	r29
    275e:	cf 91       	pop	r28
    2760:	1f 91       	pop	r17
    2762:	0f 91       	pop	r16
    2764:	08 95       	ret

00002766 <Init_All_Cards>:
    2766:	ef 92       	push	r14
    2768:	ff 92       	push	r15
    276a:	0f 93       	push	r16
    276c:	1f 93       	push	r17
    276e:	cf 93       	push	r28
    2770:	df 93       	push	r29
    2772:	7c 01       	movw	r14, r24
    2774:	06 2f       	mov	r16, r22
    2776:	17 2f       	mov	r17, r23
    2778:	c1 e0       	ldi	r28, 0x01	; 1
    277a:	d0 e0       	ldi	r29, 0x00	; 0
    277c:	f7 01       	movw	r30, r14
    277e:	81 91       	ld	r24, Z+
    2780:	7f 01       	movw	r14, r30
    2782:	f8 01       	movw	r30, r16
    2784:	91 91       	ld	r25, Z+
    2786:	8f 01       	movw	r16, r30
    2788:	89 17       	cp	r24, r25
    278a:	09 f4       	brne	.+2      	; 0x278e <Init_All_Cards+0x28>
    278c:	42 c0       	rjmp	.+132    	; 0x2812 <Init_All_Cards+0xac>
    278e:	86 34       	cpi	r24, 0x46	; 70
    2790:	c1 f1       	breq	.+112    	; 0x2802 <Init_All_Cards+0x9c>
    2792:	28 f4       	brcc	.+10     	; 0x279e <Init_All_Cards+0x38>
    2794:	81 34       	cpi	r24, 0x41	; 65
    2796:	51 f0       	breq	.+20     	; 0x27ac <Init_All_Cards+0x46>
    2798:	82 34       	cpi	r24, 0x42	; 66
    279a:	19 f1       	breq	.+70     	; 0x27e2 <Init_All_Cards+0x7c>
    279c:	3a c0       	rjmp	.+116    	; 0x2812 <Init_All_Cards+0xac>
    279e:	8d 34       	cpi	r24, 0x4D	; 77
    27a0:	b9 f0       	breq	.+46     	; 0x27d0 <Init_All_Cards+0x6a>
    27a2:	84 35       	cpi	r24, 0x54	; 84
    27a4:	39 f1       	breq	.+78     	; 0x27f4 <Init_All_Cards+0x8e>
    27a6:	8c 34       	cpi	r24, 0x4C	; 76
    27a8:	a1 f5       	brne	.+104    	; 0x2812 <Init_All_Cards+0xac>
    27aa:	09 c0       	rjmp	.+18     	; 0x27be <Init_All_Cards+0x58>
    27ac:	91 32       	cpi	r25, 0x21	; 33
    27ae:	19 f0       	breq	.+6      	; 0x27b6 <Init_All_Cards+0x50>
    27b0:	ce 01       	movw	r24, r28
    27b2:	0e 94 ba 00 	call	0x174	; 0x174 <Amplifier_Default_Values>
    27b6:	ce 01       	movw	r24, r28
    27b8:	0e 94 fd 00 	call	0x1fa	; 0x1fa <Amplifier_Init>
    27bc:	2a c0       	rjmp	.+84     	; 0x2812 <Init_All_Cards+0xac>
    27be:	91 32       	cpi	r25, 0x21	; 33
    27c0:	19 f0       	breq	.+6      	; 0x27c8 <Init_All_Cards+0x62>
    27c2:	ce 01       	movw	r24, r28
    27c4:	0e 94 87 05 	call	0xb0e	; 0xb0e <LED_Source_Default_Values>
    27c8:	ce 01       	movw	r24, r28
    27ca:	0e 94 ee 05 	call	0xbdc	; 0xbdc <LED_Source_Init>
    27ce:	21 c0       	rjmp	.+66     	; 0x2812 <Init_All_Cards+0xac>
    27d0:	91 32       	cpi	r25, 0x21	; 33
    27d2:	19 f0       	breq	.+6      	; 0x27da <Init_All_Cards+0x74>
    27d4:	ce 01       	movw	r24, r28
    27d6:	0e 94 ec 0a 	call	0x15d8	; 0x15d8 <MOSFET_Source_Default_Values>
    27da:	ce 01       	movw	r24, r28
    27dc:	0e 94 bd 0b 	call	0x177a	; 0x177a <MOSFET_Source_Init>
    27e0:	18 c0       	rjmp	.+48     	; 0x2812 <Init_All_Cards+0xac>
    27e2:	91 32       	cpi	r25, 0x21	; 33
    27e4:	19 f0       	breq	.+6      	; 0x27ec <Init_All_Cards+0x86>
    27e6:	ce 01       	movw	r24, r28
    27e8:	0e 94 aa 07 	call	0xf54	; 0xf54 <BreakDown_Default_Values>
    27ec:	ce 01       	movw	r24, r28
    27ee:	0e 94 53 08 	call	0x10a6	; 0x10a6 <BreakDown_Init>
    27f2:	0f c0       	rjmp	.+30     	; 0x2812 <Init_All_Cards+0xac>
    27f4:	91 32       	cpi	r25, 0x21	; 33
    27f6:	11 f0       	breq	.+4      	; 0x27fc <Init_All_Cards+0x96>
    27f8:	ce 01       	movw	r24, r28
    27fa:	63 da       	rcall	.-2874   	; 0x1cc2 <Slot_Tester_Default_Values>
    27fc:	ce 01       	movw	r24, r28
    27fe:	c7 da       	rcall	.-2674   	; 0x1d8e <Slot_Tester_Init>
    2800:	08 c0       	rjmp	.+16     	; 0x2812 <Init_All_Cards+0xac>
    2802:	91 32       	cpi	r25, 0x21	; 33
    2804:	19 f0       	breq	.+6      	; 0x280c <Init_All_Cards+0xa6>
    2806:	ce 01       	movw	r24, r28
    2808:	0e 94 ba 02 	call	0x574	; 0x574 <FrontEnd_Default_Values>
    280c:	ce 01       	movw	r24, r28
    280e:	0e 94 20 03 	call	0x640	; 0x640 <FrontEnd_Init>
    2812:	21 96       	adiw	r28, 0x01	; 1
    2814:	c9 30       	cpi	r28, 0x09	; 9
    2816:	d1 05       	cpc	r29, r1
    2818:	09 f0       	breq	.+2      	; 0x281c <Init_All_Cards+0xb6>
    281a:	b0 cf       	rjmp	.-160    	; 0x277c <Init_All_Cards+0x16>
    281c:	df 91       	pop	r29
    281e:	cf 91       	pop	r28
    2820:	1f 91       	pop	r17
    2822:	0f 91       	pop	r16
    2824:	ff 90       	pop	r15
    2826:	ef 90       	pop	r14
    2828:	08 95       	ret

0000282a <PulseStop>:
    282a:	23 d1       	rcall	.+582    	; 0x2a72 <Stop_Timer_100us>
    282c:	10 92 08 01 	sts	0x0108, r1	; 0x800108 <__TEXT_REGION_LENGTH__+0x700108>
    2830:	10 92 02 01 	sts	0x0102, r1	; 0x800102 <__TEXT_REGION_LENGTH__+0x700102>
    2834:	a1 98       	cbi	0x14, 1	; 20
    2836:	08 95       	ret

00002838 <Init>:
    2838:	cf 93       	push	r28
    283a:	df 93       	push	r29
    283c:	cd b7       	in	r28, 0x3d	; 61
    283e:	de b7       	in	r29, 0x3e	; 62
    2840:	28 97       	sbiw	r28, 0x08	; 8
    2842:	0f b6       	in	r0, 0x3f	; 63
    2844:	f8 94       	cli
    2846:	de bf       	out	0x3e, r29	; 62
    2848:	0f be       	out	0x3f, r0	; 63
    284a:	cd bf       	out	0x3d, r28	; 61
    284c:	90 e0       	ldi	r25, 0x00	; 0
    284e:	80 e8       	ldi	r24, 0x80	; 128
    2850:	0f b6       	in	r0, 0x3f	; 63
    2852:	f8 94       	cli
    2854:	80 93 61 00 	sts	0x0061, r24	; 0x800061 <__TEXT_REGION_LENGTH__+0x700061>
    2858:	90 93 61 00 	sts	0x0061, r25	; 0x800061 <__TEXT_REGION_LENGTH__+0x700061>
    285c:	0f be       	out	0x3f, r0	; 63
    285e:	9e e0       	ldi	r25, 0x0E	; 14
    2860:	88 e1       	ldi	r24, 0x18	; 24
    2862:	0f b6       	in	r0, 0x3f	; 63
    2864:	f8 94       	cli
    2866:	a8 95       	wdr
    2868:	80 93 60 00 	sts	0x0060, r24	; 0x800060 <__TEXT_REGION_LENGTH__+0x700060>
    286c:	0f be       	out	0x3f, r0	; 63
    286e:	90 93 60 00 	sts	0x0060, r25	; 0x800060 <__TEXT_REGION_LENGTH__+0x700060>
    2872:	a8 95       	wdr
    2874:	bc d0       	rcall	.+376    	; 0x29ee <Init_Timer_1ms>
    2876:	d9 d0       	rcall	.+434    	; 0x2a2a <Init_Timer_100us>
    2878:	08 d1       	rcall	.+528    	; 0x2a8a <Init_Counter_100us>
    287a:	d7 df       	rcall	.-82     	; 0x282a <PulseStop>
    287c:	15 de       	rcall	.-982    	; 0x24a8 <Init_IO_Pins>
    287e:	85 e4       	ldi	r24, 0x45	; 69
    2880:	90 e0       	ldi	r25, 0x00	; 0
    2882:	0e 94 44 23 	call	0x4688	; 0x4688 <eeprom_read_word>
    2886:	07 97       	sbiw	r24, 0x07	; 7
    2888:	31 f0       	breq	.+12     	; 0x2896 <Init+0x5e>
    288a:	a3 9a       	sbi	0x14, 3	; 20
    288c:	a2 9a       	sbi	0x14, 2	; 20
    288e:	a0 9a       	sbi	0x14, 0	; 20
    2890:	a1 9a       	sbi	0x14, 1	; 20
    2892:	ae de       	rcall	.-676    	; 0x25f0 <EEPROM_default_Values>
    2894:	a8 95       	wdr
    2896:	78 94       	sei
    2898:	cf d6       	rcall	.+3486   	; 0x3638 <TerminalInit>
    289a:	f6 de       	rcall	.-532    	; 0x2688 <EEPROM_last_Values>
    289c:	10 92 8c 05 	sts	0x058C, r1	; 0x80058c <current_source_enabled>
    28a0:	8d e7       	ldi	r24, 0x7D	; 125
    28a2:	90 e0       	ldi	r25, 0x00	; 0
    28a4:	0e 94 30 20 	call	0x4060	; 0x4060 <USART_SPI_InitBaudrate>
    28a8:	88 e0       	ldi	r24, 0x08	; 8
    28aa:	ee e0       	ldi	r30, 0x0E	; 14
    28ac:	f2 e0       	ldi	r31, 0x02	; 2
    28ae:	de 01       	movw	r26, r28
    28b0:	11 96       	adiw	r26, 0x01	; 1
    28b2:	01 90       	ld	r0, Z+
    28b4:	0d 92       	st	X+, r0
    28b6:	8a 95       	dec	r24
    28b8:	e1 f7       	brne	.-8      	; 0x28b2 <Init+0x7a>
    28ba:	be 01       	movw	r22, r28
    28bc:	6f 5f       	subi	r22, 0xFF	; 255
    28be:	7f 4f       	sbci	r23, 0xFF	; 255
    28c0:	8e e9       	ldi	r24, 0x9E	; 158
    28c2:	95 e0       	ldi	r25, 0x05	; 5
    28c4:	50 df       	rcall	.-352    	; 0x2766 <Init_All_Cards>
    28c6:	52 de       	rcall	.-860    	; 0x256c <Lauflicht>
    28c8:	28 96       	adiw	r28, 0x08	; 8
    28ca:	0f b6       	in	r0, 0x3f	; 63
    28cc:	f8 94       	cli
    28ce:	de bf       	out	0x3e, r29	; 62
    28d0:	0f be       	out	0x3f, r0	; 63
    28d2:	cd bf       	out	0x3d, r28	; 61
    28d4:	df 91       	pop	r29
    28d6:	cf 91       	pop	r28
    28d8:	08 95       	ret

000028da <main>:
    28da:	ae df       	rcall	.-164    	; 0x2838 <Init>
    28dc:	0e 94 70 1f 	call	0x3ee0	; 0x3ee0 <UART0ClearRx>
    28e0:	a8 95       	wdr
    28e2:	0e 94 90 1e 	call	0x3d20	; 0x3d20 <TerminalCheckCommand>
    28e6:	80 91 a7 05 	lds	r24, 0x05A7	; 0x8005a7 <interrupt_1ms>
    28ea:	8a 30       	cpi	r24, 0x0A	; 10
    28ec:	40 f0       	brcs	.+16     	; 0x28fe <main+0x24>
    28ee:	10 92 a7 05 	sts	0x05A7, r1	; 0x8005a7 <interrupt_1ms>
    28f2:	80 91 ac 05 	lds	r24, 0x05AC	; 0x8005ac <interrupt_10hz>
    28f6:	8f 5f       	subi	r24, 0xFF	; 255
    28f8:	80 93 ac 05 	sts	0x05AC, r24	; 0x8005ac <interrupt_10hz>
    28fc:	f1 cf       	rjmp	.-30     	; 0x28e0 <main+0x6>
    28fe:	80 91 ac 05 	lds	r24, 0x05AC	; 0x8005ac <interrupt_10hz>
    2902:	8a 30       	cpi	r24, 0x0A	; 10
    2904:	d8 f0       	brcs	.+54     	; 0x293c <main+0x62>
    2906:	10 92 ac 05 	sts	0x05AC, r1	; 0x8005ac <interrupt_10hz>
    290a:	80 91 a8 05 	lds	r24, 0x05A8	; 0x8005a8 <interrupt_1hz>
    290e:	8f 5f       	subi	r24, 0xFF	; 255
    2910:	80 93 a8 05 	sts	0x05A8, r24	; 0x8005a8 <interrupt_1hz>
    2914:	80 91 9f 04 	lds	r24, 0x049F	; 0x80049f <uart0_active_timer>
    2918:	88 23       	and	r24, r24
    291a:	29 f0       	breq	.+10     	; 0x2926 <main+0x4c>
    291c:	81 50       	subi	r24, 0x01	; 1
    291e:	80 93 9f 04 	sts	0x049F, r24	; 0x80049f <uart0_active_timer>
    2922:	a0 9a       	sbi	0x14, 0	; 20
    2924:	01 c0       	rjmp	.+2      	; 0x2928 <main+0x4e>
    2926:	a0 98       	cbi	0x14, 0	; 20
    2928:	80 91 8c 05 	lds	r24, 0x058C	; 0x80058c <current_source_enabled>
    292c:	88 23       	and	r24, r24
    292e:	19 f0       	breq	.+6      	; 0x2936 <main+0x5c>
    2930:	a3 9a       	sbi	0x14, 3	; 20
    2932:	a2 9a       	sbi	0x14, 2	; 20
    2934:	d5 cf       	rjmp	.-86     	; 0x28e0 <main+0x6>
    2936:	a3 9a       	sbi	0x14, 3	; 20
    2938:	a2 98       	cbi	0x14, 2	; 20
    293a:	d2 cf       	rjmp	.-92     	; 0x28e0 <main+0x6>
    293c:	80 91 a8 05 	lds	r24, 0x05A8	; 0x8005a8 <interrupt_1hz>
    2940:	8a 30       	cpi	r24, 0x0A	; 10
    2942:	70 f2       	brcs	.-100    	; 0x28e0 <main+0x6>
    2944:	10 92 a8 05 	sts	0x05A8, r1	; 0x8005a8 <interrupt_1hz>
    2948:	cb cf       	rjmp	.-106    	; 0x28e0 <main+0x6>

0000294a <PulseStart_stdTTA>:
    294a:	93 d0       	rcall	.+294    	; 0x2a72 <Stop_Timer_100us>
    294c:	81 e0       	ldi	r24, 0x01	; 1
    294e:	80 93 a9 05 	sts	0x05A9, r24	; 0x8005a9 <flag_std_TTA>
    2952:	10 92 a6 05 	sts	0x05A6, r1	; 0x8005a6 <flag_DPA_TTA>
    2956:	10 92 ad 05 	sts	0x05AD, r1	; 0x8005ad <flag_HPP_TTA>
    295a:	b5 d0       	rcall	.+362    	; 0x2ac6 <Setup_Counter_for_stdTTA>
    295c:	a1 9a       	sbi	0x14, 1	; 20
    295e:	80 91 72 05 	lds	r24, 0x0572	; 0x800572 <heat_pulse_length>
    2962:	90 91 73 05 	lds	r25, 0x0573	; 0x800573 <heat_pulse_length+0x1>
    2966:	a0 91 74 05 	lds	r26, 0x0574	; 0x800574 <heat_pulse_length+0x2>
    296a:	b0 91 75 05 	lds	r27, 0x0575	; 0x800575 <heat_pulse_length+0x3>
    296e:	89 2b       	or	r24, r25
    2970:	8a 2b       	or	r24, r26
    2972:	8b 2b       	or	r24, r27
    2974:	21 f0       	breq	.+8      	; 0x297e <PulseStart_stdTTA+0x34>
    2976:	80 91 8d 05 	lds	r24, 0x058D	; 0x80058d <pulse_output_register>
    297a:	80 93 02 01 	sts	0x0102, r24	; 0x800102 <__TEXT_REGION_LENGTH__+0x700102>
    297e:	80 91 8d 05 	lds	r24, 0x058D	; 0x80058d <pulse_output_register>
    2982:	80 93 08 01 	sts	0x0108, r24	; 0x800108 <__TEXT_REGION_LENGTH__+0x700108>
    2986:	6f c0       	rjmp	.+222    	; 0x2a66 <Start_Timer_100us>
    2988:	08 95       	ret

0000298a <PulseStart_Sensitivity>:
    298a:	a1 9a       	sbi	0x14, 1	; 20
    298c:	80 91 8d 05 	lds	r24, 0x058D	; 0x80058d <pulse_output_register>
    2990:	80 93 08 01 	sts	0x0108, r24	; 0x800108 <__TEXT_REGION_LENGTH__+0x700108>
    2994:	08 95       	ret

00002996 <PulseStart_DPA_TTA>:
    2996:	6d d0       	rcall	.+218    	; 0x2a72 <Stop_Timer_100us>
    2998:	81 e0       	ldi	r24, 0x01	; 1
    299a:	80 93 a6 05 	sts	0x05A6, r24	; 0x8005a6 <flag_DPA_TTA>
    299e:	10 92 a9 05 	sts	0x05A9, r1	; 0x8005a9 <flag_std_TTA>
    29a2:	10 92 ad 05 	sts	0x05AD, r1	; 0x8005ad <flag_HPP_TTA>
    29a6:	51 d1       	rcall	.+674    	; 0x2c4a <Setup_Counter_for_DPA_TTA>
    29a8:	a1 9a       	sbi	0x14, 1	; 20
    29aa:	10 92 02 01 	sts	0x0102, r1	; 0x800102 <__TEXT_REGION_LENGTH__+0x700102>
    29ae:	10 92 08 01 	sts	0x0108, r1	; 0x800108 <__TEXT_REGION_LENGTH__+0x700108>
    29b2:	59 c0       	rjmp	.+178    	; 0x2a66 <Start_Timer_100us>
    29b4:	08 95       	ret

000029b6 <PulseStart_DPA_TTA_fromHPP>:
}

void PulseStart_DPA_TTA_fromHPP()
{
	//Stop Timer 1
	Stop_Timer_100us();
    29b6:	5d d0       	rcall	.+186    	; 0x2a72 <Stop_Timer_100us>
	
	// Set Flags
	flag_DPA_TTA = 1;
    29b8:	81 e0       	ldi	r24, 0x01	; 1
    29ba:	80 93 a6 05 	sts	0x05A6, r24	; 0x8005a6 <flag_DPA_TTA>
	flag_std_TTA = 0;
    29be:	10 92 a9 05 	sts	0x05A9, r1	; 0x8005a9 <flag_std_TTA>
	flag_HPP_TTA = 0;
    29c2:	10 92 ad 05 	sts	0x05AD, r1	; 0x8005ad <flag_HPP_TTA>
	
	//Setup for det TTA
	Setup_Counter_for_DPA_TTA();
	
	//Status LED for Pulses
	set_bit(LED_Pulse);
    29c6:	41 d1       	rcall	.+642    	; 0x2c4a <Setup_Counter_for_DPA_TTA>
	//Switch off all Heat pulses (don't switch off here)
	//HP_Port = 0;
	//MP_Port = 0;
	
	//Start Timer 1
	Start_Timer_100us();
    29c8:	a1 9a       	sbi	0x14, 1	; 20
    29ca:	4d c0       	rjmp	.+154    	; 0x2a66 <Start_Timer_100us>
    29cc:	08 95       	ret

000029ce <PulseStart_PrePulse>:
// -------------------------------------------------------------

void PulseStart_PrePulse()
{
	//Stop all Pulses
	PulseStop();
    29ce:	2d df       	rcall	.-422    	; 0x282a <PulseStop>

	//Start Pulse
	MP_Port = pulse_output_register;
    29d0:	80 91 8d 05 	lds	r24, 0x058D	; 0x80058d <pulse_output_register>
    29d4:	80 93 08 01 	sts	0x0108, r24	; 0x800108 <__TEXT_REGION_LENGTH__+0x700108>
	#else
		//round up by default
		__ticks_dc = (uint32_t)(ceil(fabs(__tmp)));
	#endif

	__builtin_avr_delay_cycles(__ticks_dc);
    29d8:	2f ef       	ldi	r18, 0xFF	; 255
    29da:	89 ef       	ldi	r24, 0xF9	; 249
    29dc:	90 e0       	ldi	r25, 0x00	; 0
    29de:	21 50       	subi	r18, 0x01	; 1
    29e0:	80 40       	sbci	r24, 0x00	; 0
    29e2:	90 40       	sbci	r25, 0x00	; 0
    29e4:	e1 f7       	brne	.-8      	; 0x29de <PulseStart_PrePulse+0x10>
    29e6:	00 c0       	rjmp	.+0      	; 0x29e8 <PulseStart_PrePulse+0x1a>
	
	//Wait
	_delay_ms(20);
	
	//Stop all Pulses
	PulseStop();
    29e8:	00 00       	nop
    29ea:	1f cf       	rjmp	.-450    	; 0x282a <PulseStop>
    29ec:	08 95       	ret

000029ee <Init_Timer_1ms>:
		OCR5A = -1;
		heat_pulse_lastcount = (heat_pulse_length % 6000) * 10;
		heat_pulse_precount = (heat_pulse_length) / 6000; //Aufrunden			
	}
	//Comp B is not needed
	OCR5B = -1;	
    29ee:	83 e0       	ldi	r24, 0x03	; 3
    29f0:	80 93 b0 00 	sts	0x00B0, r24	; 0x8000b0 <__TEXT_REGION_LENGTH__+0x7000b0>
    29f4:	8c e0       	ldi	r24, 0x0C	; 12
    29f6:	80 93 b1 00 	sts	0x00B1, r24	; 0x8000b1 <__TEXT_REGION_LENGTH__+0x7000b1>
    29fa:	89 ef       	ldi	r24, 0xF9	; 249
    29fc:	80 93 b3 00 	sts	0x00B3, r24	; 0x8000b3 <__TEXT_REGION_LENGTH__+0x7000b3>
    2a00:	82 e0       	ldi	r24, 0x02	; 2
    2a02:	80 93 70 00 	sts	0x0070, r24	; 0x800070 <__TEXT_REGION_LENGTH__+0x700070>
    2a06:	08 95       	ret

00002a08 <__vector_13>:
    2a08:	1f 92       	push	r1
    2a0a:	0f 92       	push	r0
    2a0c:	0f b6       	in	r0, 0x3f	; 63
    2a0e:	0f 92       	push	r0
    2a10:	11 24       	eor	r1, r1
    2a12:	8f 93       	push	r24
    2a14:	80 91 a7 05 	lds	r24, 0x05A7	; 0x8005a7 <interrupt_1ms>
    2a18:	8f 5f       	subi	r24, 0xFF	; 255
    2a1a:	80 93 a7 05 	sts	0x05A7, r24	; 0x8005a7 <interrupt_1ms>
    2a1e:	8f 91       	pop	r24
    2a20:	0f 90       	pop	r0
    2a22:	0f be       	out	0x3f, r0	; 63
    2a24:	0f 90       	pop	r0
    2a26:	1f 90       	pop	r1
    2a28:	18 95       	reti

00002a2a <Init_Timer_100us>:
    2a2a:	88 e1       	ldi	r24, 0x18	; 24
    2a2c:	80 93 81 00 	sts	0x0081, r24	; 0x800081 <__TEXT_REGION_LENGTH__+0x700081>
    2a30:	82 e8       	ldi	r24, 0x82	; 130
    2a32:	80 93 80 00 	sts	0x0080, r24	; 0x800080 <__TEXT_REGION_LENGTH__+0x700080>
    2a36:	8f e3       	ldi	r24, 0x3F	; 63
    2a38:	96 e0       	ldi	r25, 0x06	; 6
    2a3a:	90 93 87 00 	sts	0x0087, r25	; 0x800087 <__TEXT_REGION_LENGTH__+0x700087>
    2a3e:	80 93 86 00 	sts	0x0086, r24	; 0x800086 <__TEXT_REGION_LENGTH__+0x700086>
    2a42:	80 e1       	ldi	r24, 0x10	; 16
    2a44:	90 e0       	ldi	r25, 0x00	; 0
    2a46:	90 93 89 00 	sts	0x0089, r25	; 0x800089 <__TEXT_REGION_LENGTH__+0x700089>
    2a4a:	80 93 88 00 	sts	0x0088, r24	; 0x800088 <__TEXT_REGION_LENGTH__+0x700088>
    2a4e:	8f ef       	ldi	r24, 0xFF	; 255
    2a50:	9f ef       	ldi	r25, 0xFF	; 255
    2a52:	90 93 8b 00 	sts	0x008B, r25	; 0x80008b <__TEXT_REGION_LENGTH__+0x70008b>
    2a56:	80 93 8a 00 	sts	0x008A, r24	; 0x80008a <__TEXT_REGION_LENGTH__+0x70008a>
    2a5a:	90 93 8d 00 	sts	0x008D, r25	; 0x80008d <__TEXT_REGION_LENGTH__+0x70008d>
    2a5e:	80 93 8c 00 	sts	0x008C, r24	; 0x80008c <__TEXT_REGION_LENGTH__+0x70008c>
    2a62:	25 9a       	sbi	0x04, 5	; 4
    2a64:	08 95       	ret

00002a66 <Start_Timer_100us>:
    2a66:	e1 e8       	ldi	r30, 0x81	; 129
    2a68:	f0 e0       	ldi	r31, 0x00	; 0
    2a6a:	80 81       	ld	r24, Z
    2a6c:	81 60       	ori	r24, 0x01	; 1
    2a6e:	80 83       	st	Z, r24
    2a70:	08 95       	ret

00002a72 <Stop_Timer_100us>:
    2a72:	e1 e8       	ldi	r30, 0x81	; 129
    2a74:	f0 e0       	ldi	r31, 0x00	; 0
    2a76:	80 81       	ld	r24, Z
    2a78:	8e 7f       	andi	r24, 0xFE	; 254
    2a7a:	80 83       	st	Z, r24
    2a7c:	8f ef       	ldi	r24, 0xFF	; 255
    2a7e:	9f ef       	ldi	r25, 0xFF	; 255
    2a80:	90 93 85 00 	sts	0x0085, r25	; 0x800085 <__TEXT_REGION_LENGTH__+0x700085>
    2a84:	80 93 84 00 	sts	0x0084, r24	; 0x800084 <__TEXT_REGION_LENGTH__+0x700084>
    2a88:	08 95       	ret

00002a8a <Init_Counter_100us>:
    2a8a:	8f e1       	ldi	r24, 0x1F	; 31
    2a8c:	80 93 21 01 	sts	0x0121, r24	; 0x800121 <__TEXT_REGION_LENGTH__+0x700121>
    2a90:	80 e6       	ldi	r24, 0x60	; 96
    2a92:	9a ee       	ldi	r25, 0xEA	; 234
    2a94:	90 93 27 01 	sts	0x0127, r25	; 0x800127 <__TEXT_REGION_LENGTH__+0x700127>
    2a98:	80 93 26 01 	sts	0x0126, r24	; 0x800126 <__TEXT_REGION_LENGTH__+0x700126>
    2a9c:	82 e0       	ldi	r24, 0x02	; 2
    2a9e:	80 93 20 01 	sts	0x0120, r24	; 0x800120 <__TEXT_REGION_LENGTH__+0x700120>
    2aa2:	8f e0       	ldi	r24, 0x0F	; 15
    2aa4:	80 93 73 00 	sts	0x0073, r24	; 0x800073 <__TEXT_REGION_LENGTH__+0x700073>
    2aa8:	81 e0       	ldi	r24, 0x01	; 1
    2aaa:	90 e0       	ldi	r25, 0x00	; 0
    2aac:	90 93 29 01 	sts	0x0129, r25	; 0x800129 <__TEXT_REGION_LENGTH__+0x700129>
    2ab0:	80 93 28 01 	sts	0x0128, r24	; 0x800128 <__TEXT_REGION_LENGTH__+0x700128>
    2ab4:	90 93 2b 01 	sts	0x012B, r25	; 0x80012b <__TEXT_REGION_LENGTH__+0x70012b>
    2ab8:	80 93 2a 01 	sts	0x012A, r24	; 0x80012a <__TEXT_REGION_LENGTH__+0x70012a>
    2abc:	90 93 2d 01 	sts	0x012D, r25	; 0x80012d <__TEXT_REGION_LENGTH__+0x70012d>
    2ac0:	80 93 2c 01 	sts	0x012C, r24	; 0x80012c <__TEXT_REGION_LENGTH__+0x70012c>
    2ac4:	08 95       	ret

00002ac6 <Setup_Counter_for_stdTTA>:
    2ac6:	8f e5       	ldi	r24, 0x5F	; 95
    2ac8:	9a ee       	ldi	r25, 0xEA	; 234
    2aca:	90 93 25 01 	sts	0x0125, r25	; 0x800125 <__TEXT_REGION_LENGTH__+0x700125>
    2ace:	80 93 24 01 	sts	0x0124, r24	; 0x800124 <__TEXT_REGION_LENGTH__+0x700124>
    2ad2:	80 e6       	ldi	r24, 0x60	; 96
    2ad4:	9a ee       	ldi	r25, 0xEA	; 234
    2ad6:	90 93 27 01 	sts	0x0127, r25	; 0x800127 <__TEXT_REGION_LENGTH__+0x700127>
    2ada:	80 93 26 01 	sts	0x0126, r24	; 0x800126 <__TEXT_REGION_LENGTH__+0x700126>
    2ade:	80 91 72 05 	lds	r24, 0x0572	; 0x800572 <heat_pulse_length>
    2ae2:	90 91 73 05 	lds	r25, 0x0573	; 0x800573 <heat_pulse_length+0x1>
    2ae6:	a0 91 74 05 	lds	r26, 0x0574	; 0x800574 <heat_pulse_length+0x2>
    2aea:	b0 91 75 05 	lds	r27, 0x0575	; 0x800575 <heat_pulse_length+0x3>
    2aee:	80 37       	cpi	r24, 0x70	; 112
    2af0:	27 e1       	ldi	r18, 0x17	; 23
    2af2:	92 07       	cpc	r25, r18
    2af4:	a1 05       	cpc	r26, r1
    2af6:	b1 05       	cpc	r27, r1
    2af8:	50 f5       	brcc	.+84     	; 0x2b4e <Setup_Counter_for_stdTTA+0x88>
    2afa:	9c 01       	movw	r18, r24
    2afc:	22 0f       	add	r18, r18
    2afe:	33 1f       	adc	r19, r19
    2b00:	88 0f       	add	r24, r24
    2b02:	99 1f       	adc	r25, r25
    2b04:	88 0f       	add	r24, r24
    2b06:	99 1f       	adc	r25, r25
    2b08:	88 0f       	add	r24, r24
    2b0a:	99 1f       	adc	r25, r25
    2b0c:	82 0f       	add	r24, r18
    2b0e:	93 1f       	adc	r25, r19
    2b10:	90 93 29 01 	sts	0x0129, r25	; 0x800129 <__TEXT_REGION_LENGTH__+0x700129>
    2b14:	80 93 28 01 	sts	0x0128, r24	; 0x800128 <__TEXT_REGION_LENGTH__+0x700128>
    2b18:	20 91 72 05 	lds	r18, 0x0572	; 0x800572 <heat_pulse_length>
    2b1c:	30 91 73 05 	lds	r19, 0x0573	; 0x800573 <heat_pulse_length+0x1>
    2b20:	c9 01       	movw	r24, r18
    2b22:	88 0f       	add	r24, r24
    2b24:	99 1f       	adc	r25, r25
    2b26:	22 0f       	add	r18, r18
    2b28:	33 1f       	adc	r19, r19
    2b2a:	22 0f       	add	r18, r18
    2b2c:	33 1f       	adc	r19, r19
    2b2e:	22 0f       	add	r18, r18
    2b30:	33 1f       	adc	r19, r19
    2b32:	82 0f       	add	r24, r18
    2b34:	93 1f       	adc	r25, r19
    2b36:	90 93 b3 05 	sts	0x05B3, r25	; 0x8005b3 <heat_pulse_lastcount+0x1>
    2b3a:	80 93 b2 05 	sts	0x05B2, r24	; 0x8005b2 <heat_pulse_lastcount>
    2b3e:	10 92 b1 05 	sts	0x05B1, r1	; 0x8005b1 <heat_pulse_precount>
    2b42:	c2 97       	sbiw	r24, 0x32	; 50
    2b44:	90 93 2d 01 	sts	0x012D, r25	; 0x80012d <__TEXT_REGION_LENGTH__+0x70012d>
    2b48:	80 93 2c 01 	sts	0x012C, r24	; 0x80012c <__TEXT_REGION_LENGTH__+0x70012c>
    2b4c:	25 c0       	rjmp	.+74     	; 0x2b98 <Setup_Counter_for_stdTTA+0xd2>
    2b4e:	8f ef       	ldi	r24, 0xFF	; 255
    2b50:	9f ef       	ldi	r25, 0xFF	; 255
    2b52:	90 93 29 01 	sts	0x0129, r25	; 0x800129 <__TEXT_REGION_LENGTH__+0x700129>
    2b56:	80 93 28 01 	sts	0x0128, r24	; 0x800128 <__TEXT_REGION_LENGTH__+0x700128>
    2b5a:	60 91 72 05 	lds	r22, 0x0572	; 0x800572 <heat_pulse_length>
    2b5e:	70 91 73 05 	lds	r23, 0x0573	; 0x800573 <heat_pulse_length+0x1>
    2b62:	80 91 74 05 	lds	r24, 0x0574	; 0x800574 <heat_pulse_length+0x2>
    2b66:	90 91 75 05 	lds	r25, 0x0575	; 0x800575 <heat_pulse_length+0x3>
    2b6a:	20 e7       	ldi	r18, 0x70	; 112
    2b6c:	37 e1       	ldi	r19, 0x17	; 23
    2b6e:	40 e0       	ldi	r20, 0x00	; 0
    2b70:	50 e0       	ldi	r21, 0x00	; 0
    2b72:	0e 94 01 22 	call	0x4402	; 0x4402 <__udivmodsi4>
    2b76:	ab 01       	movw	r20, r22
    2b78:	44 0f       	add	r20, r20
    2b7a:	55 1f       	adc	r21, r21
    2b7c:	66 0f       	add	r22, r22
    2b7e:	77 1f       	adc	r23, r23
    2b80:	66 0f       	add	r22, r22
    2b82:	77 1f       	adc	r23, r23
    2b84:	66 0f       	add	r22, r22
    2b86:	77 1f       	adc	r23, r23
    2b88:	64 0f       	add	r22, r20
    2b8a:	75 1f       	adc	r23, r21
    2b8c:	70 93 b3 05 	sts	0x05B3, r23	; 0x8005b3 <heat_pulse_lastcount+0x1>
    2b90:	60 93 b2 05 	sts	0x05B2, r22	; 0x8005b2 <heat_pulse_lastcount>
    2b94:	20 93 b1 05 	sts	0x05B1, r18	; 0x8005b1 <heat_pulse_precount>
    2b98:	80 91 88 05 	lds	r24, 0x0588	; 0x800588 <measure_pulse_length>
    2b9c:	90 91 89 05 	lds	r25, 0x0589	; 0x800589 <measure_pulse_length+0x1>
    2ba0:	a0 91 8a 05 	lds	r26, 0x058A	; 0x80058a <measure_pulse_length+0x2>
    2ba4:	b0 91 8b 05 	lds	r27, 0x058B	; 0x80058b <measure_pulse_length+0x3>
    2ba8:	80 37       	cpi	r24, 0x70	; 112
    2baa:	27 e1       	ldi	r18, 0x17	; 23
    2bac:	92 07       	cpc	r25, r18
    2bae:	a1 05       	cpc	r26, r1
    2bb0:	b1 05       	cpc	r27, r1
    2bb2:	28 f5       	brcc	.+74     	; 0x2bfe <Setup_Counter_for_stdTTA+0x138>
    2bb4:	9c 01       	movw	r18, r24
    2bb6:	22 0f       	add	r18, r18
    2bb8:	33 1f       	adc	r19, r19
    2bba:	88 0f       	add	r24, r24
    2bbc:	99 1f       	adc	r25, r25
    2bbe:	88 0f       	add	r24, r24
    2bc0:	99 1f       	adc	r25, r25
    2bc2:	88 0f       	add	r24, r24
    2bc4:	99 1f       	adc	r25, r25
    2bc6:	82 0f       	add	r24, r18
    2bc8:	93 1f       	adc	r25, r19
    2bca:	90 93 2b 01 	sts	0x012B, r25	; 0x80012b <__TEXT_REGION_LENGTH__+0x70012b>
    2bce:	80 93 2a 01 	sts	0x012A, r24	; 0x80012a <__TEXT_REGION_LENGTH__+0x70012a>
    2bd2:	80 91 88 05 	lds	r24, 0x0588	; 0x800588 <measure_pulse_length>
    2bd6:	90 91 89 05 	lds	r25, 0x0589	; 0x800589 <measure_pulse_length+0x1>
    2bda:	9c 01       	movw	r18, r24
    2bdc:	22 0f       	add	r18, r18
    2bde:	33 1f       	adc	r19, r19
    2be0:	88 0f       	add	r24, r24
    2be2:	99 1f       	adc	r25, r25
    2be4:	88 0f       	add	r24, r24
    2be6:	99 1f       	adc	r25, r25
    2be8:	88 0f       	add	r24, r24
    2bea:	99 1f       	adc	r25, r25
    2bec:	82 0f       	add	r24, r18
    2bee:	93 1f       	adc	r25, r19
    2bf0:	90 93 b6 05 	sts	0x05B6, r25	; 0x8005b6 <measure_pulse_lastcount+0x1>
    2bf4:	80 93 b5 05 	sts	0x05B5, r24	; 0x8005b5 <measure_pulse_lastcount>
    2bf8:	10 92 b4 05 	sts	0x05B4, r1	; 0x8005b4 <measure_pulse_precount>
    2bfc:	08 95       	ret
    2bfe:	8f ef       	ldi	r24, 0xFF	; 255
    2c00:	9f ef       	ldi	r25, 0xFF	; 255
    2c02:	90 93 2b 01 	sts	0x012B, r25	; 0x80012b <__TEXT_REGION_LENGTH__+0x70012b>
    2c06:	80 93 2a 01 	sts	0x012A, r24	; 0x80012a <__TEXT_REGION_LENGTH__+0x70012a>
    2c0a:	60 91 88 05 	lds	r22, 0x0588	; 0x800588 <measure_pulse_length>
    2c0e:	70 91 89 05 	lds	r23, 0x0589	; 0x800589 <measure_pulse_length+0x1>
    2c12:	80 91 8a 05 	lds	r24, 0x058A	; 0x80058a <measure_pulse_length+0x2>
    2c16:	90 91 8b 05 	lds	r25, 0x058B	; 0x80058b <measure_pulse_length+0x3>
    2c1a:	20 e7       	ldi	r18, 0x70	; 112
    2c1c:	37 e1       	ldi	r19, 0x17	; 23
    2c1e:	40 e0       	ldi	r20, 0x00	; 0
    2c20:	50 e0       	ldi	r21, 0x00	; 0
    2c22:	0e 94 01 22 	call	0x4402	; 0x4402 <__udivmodsi4>
    2c26:	ab 01       	movw	r20, r22
    2c28:	44 0f       	add	r20, r20
    2c2a:	55 1f       	adc	r21, r21
    2c2c:	66 0f       	add	r22, r22
    2c2e:	77 1f       	adc	r23, r23
    2c30:	66 0f       	add	r22, r22
    2c32:	77 1f       	adc	r23, r23
    2c34:	66 0f       	add	r22, r22
    2c36:	77 1f       	adc	r23, r23
    2c38:	64 0f       	add	r22, r20
    2c3a:	75 1f       	adc	r23, r21
    2c3c:	70 93 b6 05 	sts	0x05B6, r23	; 0x8005b6 <measure_pulse_lastcount+0x1>
    2c40:	60 93 b5 05 	sts	0x05B5, r22	; 0x8005b5 <measure_pulse_lastcount>
    2c44:	20 93 b4 05 	sts	0x05B4, r18	; 0x8005b4 <measure_pulse_precount>
    2c48:	08 95       	ret

00002c4a <Setup_Counter_for_DPA_TTA>:
    2c4a:	80 91 70 05 	lds	r24, 0x0570	; 0x800570 <deterministic_pulse_length>
    2c4e:	90 91 71 05 	lds	r25, 0x0571	; 0x800571 <deterministic_pulse_length+0x1>
    2c52:	88 0f       	add	r24, r24
    2c54:	99 1f       	adc	r25, r25
    2c56:	01 97       	sbiw	r24, 0x01	; 1
    2c58:	90 93 27 01 	sts	0x0127, r25	; 0x800127 <__TEXT_REGION_LENGTH__+0x700127>
    2c5c:	80 93 26 01 	sts	0x0126, r24	; 0x800126 <__TEXT_REGION_LENGTH__+0x700126>
    2c60:	80 91 70 05 	lds	r24, 0x0570	; 0x800570 <deterministic_pulse_length>
    2c64:	90 91 71 05 	lds	r25, 0x0571	; 0x800571 <deterministic_pulse_length+0x1>
    2c68:	81 50       	subi	r24, 0x01	; 1
    2c6a:	90 48       	sbci	r25, 0x80	; 128
    2c6c:	88 0f       	add	r24, r24
    2c6e:	99 1f       	adc	r25, r25
    2c70:	90 93 25 01 	sts	0x0125, r25	; 0x800125 <__TEXT_REGION_LENGTH__+0x700125>
    2c74:	80 93 24 01 	sts	0x0124, r24	; 0x800124 <__TEXT_REGION_LENGTH__+0x700124>
    2c78:	80 91 70 05 	lds	r24, 0x0570	; 0x800570 <deterministic_pulse_length>
    2c7c:	90 91 71 05 	lds	r25, 0x0571	; 0x800571 <deterministic_pulse_length+0x1>
    2c80:	01 97       	sbiw	r24, 0x01	; 1
    2c82:	90 93 29 01 	sts	0x0129, r25	; 0x800129 <__TEXT_REGION_LENGTH__+0x700129>
    2c86:	80 93 28 01 	sts	0x0128, r24	; 0x800128 <__TEXT_REGION_LENGTH__+0x700128>
    2c8a:	8f ef       	ldi	r24, 0xFF	; 255
    2c8c:	9f ef       	ldi	r25, 0xFF	; 255
    2c8e:	90 93 2b 01 	sts	0x012B, r25	; 0x80012b <__TEXT_REGION_LENGTH__+0x70012b>
    2c92:	80 93 2a 01 	sts	0x012A, r24	; 0x80012a <__TEXT_REGION_LENGTH__+0x70012a>
    2c96:	90 93 2d 01 	sts	0x012D, r25	; 0x80012d <__TEXT_REGION_LENGTH__+0x70012d>
    2c9a:	80 93 2c 01 	sts	0x012C, r24	; 0x80012c <__TEXT_REGION_LENGTH__+0x70012c>
    2c9e:	80 91 76 05 	lds	r24, 0x0576	; 0x800576 <deterministic_pulse_cycles>
    2ca2:	90 91 77 05 	lds	r25, 0x0577	; 0x800577 <deterministic_pulse_cycles+0x1>
    2ca6:	90 93 b0 05 	sts	0x05B0, r25	; 0x8005b0 <deterministic_pulse_counter+0x1>
    2caa:	80 93 af 05 	sts	0x05AF, r24	; 0x8005af <deterministic_pulse_counter>
    2cae:	08 95       	ret

00002cb0 <__vector_50>:
}


//Interrupt: OverFlow:
ISR(TIMER5_OVF_vect)
{	
    2cb0:	1f 92       	push	r1
    2cb2:	0f 92       	push	r0
    2cb4:	0f b6       	in	r0, 0x3f	; 63
    2cb6:	0f 92       	push	r0
    2cb8:	11 24       	eor	r1, r1
    2cba:	0b b6       	in	r0, 0x3b	; 59
    2cbc:	0f 92       	push	r0
    2cbe:	2f 93       	push	r18
    2cc0:	3f 93       	push	r19
    2cc2:	4f 93       	push	r20
    2cc4:	5f 93       	push	r21
    2cc6:	6f 93       	push	r22
    2cc8:	7f 93       	push	r23
    2cca:	8f 93       	push	r24
    2ccc:	9f 93       	push	r25
    2cce:	af 93       	push	r26
    2cd0:	bf 93       	push	r27
    2cd2:	ef 93       	push	r30
    2cd4:	ff 93       	push	r31
	//If Deterministic Pulses are running (switch on HP)
	if(flag_DPA_TTA)
    2cd6:	80 91 a6 05 	lds	r24, 0x05A6	; 0x8005a6 <flag_DPA_TTA>
    2cda:	88 23       	and	r24, r24
    2cdc:	c1 f0       	breq	.+48     	; 0x2d0e <__vector_50+0x5e>
	{			
		//--> Wieder anschalten
		HP_Port = pulse_output_register;
    2cde:	80 91 8d 05 	lds	r24, 0x058D	; 0x80058d <pulse_output_register>
    2ce2:	80 93 02 01 	sts	0x0102, r24	; 0x800102 <__TEXT_REGION_LENGTH__+0x700102>
		MP_Port = pulse_output_register;
    2ce6:	80 91 8d 05 	lds	r24, 0x058D	; 0x80058d <pulse_output_register>
    2cea:	80 93 08 01 	sts	0x0108, r24	; 0x800108 <__TEXT_REGION_LENGTH__+0x700108>
		
		if(deterministic_pulse_counter-- <= 0)
    2cee:	80 91 af 05 	lds	r24, 0x05AF	; 0x8005af <deterministic_pulse_counter>
    2cf2:	90 91 b0 05 	lds	r25, 0x05B0	; 0x8005b0 <deterministic_pulse_counter+0x1>
    2cf6:	9c 01       	movw	r18, r24
    2cf8:	21 50       	subi	r18, 0x01	; 1
    2cfa:	31 09       	sbc	r19, r1
    2cfc:	30 93 b0 05 	sts	0x05B0, r19	; 0x8005b0 <deterministic_pulse_counter+0x1>
    2d00:	20 93 af 05 	sts	0x05AF, r18	; 0x8005af <deterministic_pulse_counter>
    2d04:	89 2b       	or	r24, r25
    2d06:	c9 f5       	brne	.+114    	; 0x2d7a <__vector_50+0xca>
		{
			//Stop Timer
			Stop_Timer_100us();
    2d08:	b4 de       	rcall	.-664    	; 0x2a72 <Stop_Timer_100us>
									
			//Start standard TTA
			PulseStart_stdTTA();
    2d0a:	1f de       	rcall	.-962    	; 0x294a <PulseStart_stdTTA>
    2d0c:	36 c0       	rjmp	.+108    	; 0x2d7a <__vector_50+0xca>
    2d0e:	80 91 a9 05 	lds	r24, 0x05A9	; 0x8005a9 <flag_std_TTA>
		}
	}
	//If standard TTA (change compare register for overflow)	
	else if(flag_std_TTA)
    2d12:	88 23       	and	r24, r24
    2d14:	f9 f0       	breq	.+62     	; 0x2d54 <__vector_50+0xa4>
    2d16:	80 91 b1 05 	lds	r24, 0x05B1	; 0x8005b1 <heat_pulse_precount>
	{
		if (--heat_pulse_precount <= 0)
    2d1a:	81 50       	subi	r24, 0x01	; 1
    2d1c:	80 93 b1 05 	sts	0x05B1, r24	; 0x8005b1 <heat_pulse_precount>
    2d20:	81 11       	cpse	r24, r1
    2d22:	08 c0       	rjmp	.+16     	; 0x2d34 <__vector_50+0x84>
    2d24:	80 91 b2 05 	lds	r24, 0x05B2	; 0x8005b2 <heat_pulse_lastcount>
		{
			OCR5A = heat_pulse_lastcount;
    2d28:	90 91 b3 05 	lds	r25, 0x05B3	; 0x8005b3 <heat_pulse_lastcount+0x1>
    2d2c:	90 93 29 01 	sts	0x0129, r25	; 0x800129 <__TEXT_REGION_LENGTH__+0x700129>
    2d30:	80 93 28 01 	sts	0x0128, r24	; 0x800128 <__TEXT_REGION_LENGTH__+0x700128>
    2d34:	80 91 b4 05 	lds	r24, 0x05B4	; 0x8005b4 <measure_pulse_precount>
		}

		if (--measure_pulse_precount <= 0)
    2d38:	81 50       	subi	r24, 0x01	; 1
    2d3a:	80 93 b4 05 	sts	0x05B4, r24	; 0x8005b4 <measure_pulse_precount>
    2d3e:	81 11       	cpse	r24, r1
    2d40:	1c c0       	rjmp	.+56     	; 0x2d7a <__vector_50+0xca>
    2d42:	80 91 b5 05 	lds	r24, 0x05B5	; 0x8005b5 <measure_pulse_lastcount>
		{
			OCR5B = measure_pulse_lastcount;
    2d46:	90 91 b6 05 	lds	r25, 0x05B6	; 0x8005b6 <measure_pulse_lastcount+0x1>
    2d4a:	90 93 2b 01 	sts	0x012B, r25	; 0x80012b <__TEXT_REGION_LENGTH__+0x70012b>
    2d4e:	80 93 2a 01 	sts	0x012A, r24	; 0x80012a <__TEXT_REGION_LENGTH__+0x70012a>
    2d52:	13 c0       	rjmp	.+38     	; 0x2d7a <__vector_50+0xca>
    2d54:	80 91 ad 05 	lds	r24, 0x05AD	; 0x8005ad <flag_HPP_TTA>
		}
	}
	else if (flag_HPP_TTA)
    2d58:	88 23       	and	r24, r24
    2d5a:	79 f0       	breq	.+30     	; 0x2d7a <__vector_50+0xca>
    2d5c:	80 91 b1 05 	lds	r24, 0x05B1	; 0x8005b1 <heat_pulse_precount>
	{
		if (--heat_pulse_precount <= 0)
    2d60:	81 50       	subi	r24, 0x01	; 1
    2d62:	80 93 b1 05 	sts	0x05B1, r24	; 0x8005b1 <heat_pulse_precount>
    2d66:	81 11       	cpse	r24, r1
    2d68:	08 c0       	rjmp	.+16     	; 0x2d7a <__vector_50+0xca>
    2d6a:	80 91 b2 05 	lds	r24, 0x05B2	; 0x8005b2 <heat_pulse_lastcount>
		{
			OCR5A = heat_pulse_lastcount;
    2d6e:	90 91 b3 05 	lds	r25, 0x05B3	; 0x8005b3 <heat_pulse_lastcount+0x1>
    2d72:	90 93 29 01 	sts	0x0129, r25	; 0x800129 <__TEXT_REGION_LENGTH__+0x700129>
    2d76:	80 93 28 01 	sts	0x0128, r24	; 0x800128 <__TEXT_REGION_LENGTH__+0x700128>
    2d7a:	ff 91       	pop	r31
	else
	{
	}
	
		
}
    2d7c:	ef 91       	pop	r30
    2d7e:	bf 91       	pop	r27
    2d80:	af 91       	pop	r26
    2d82:	9f 91       	pop	r25
    2d84:	8f 91       	pop	r24
    2d86:	7f 91       	pop	r23
    2d88:	6f 91       	pop	r22
    2d8a:	5f 91       	pop	r21
    2d8c:	4f 91       	pop	r20
    2d8e:	3f 91       	pop	r19
    2d90:	2f 91       	pop	r18
    2d92:	0f 90       	pop	r0
    2d94:	0b be       	out	0x3b, r0	; 59
    2d96:	0f 90       	pop	r0
    2d98:	0f be       	out	0x3f, r0	; 63
    2d9a:	0f 90       	pop	r0
    2d9c:	1f 90       	pop	r1
    2d9e:	18 95       	reti

00002da0 <__vector_47>:
    2da0:	1f 92       	push	r1

//Interrupt: Compare A: Switch of Heat pulse
ISR(TIMER5_COMPA_vect)
{
    2da2:	0f 92       	push	r0
    2da4:	0f b6       	in	r0, 0x3f	; 63
    2da6:	0f 92       	push	r0
    2da8:	11 24       	eor	r1, r1
    2daa:	0b b6       	in	r0, 0x3b	; 59
    2dac:	0f 92       	push	r0
    2dae:	2f 93       	push	r18
    2db0:	3f 93       	push	r19
    2db2:	4f 93       	push	r20
    2db4:	5f 93       	push	r21
    2db6:	6f 93       	push	r22
    2db8:	7f 93       	push	r23
    2dba:	8f 93       	push	r24
    2dbc:	9f 93       	push	r25
    2dbe:	af 93       	push	r26
    2dc0:	bf 93       	push	r27
    2dc2:	ef 93       	push	r30
    2dc4:	ff 93       	push	r31
	//Wenn es ein Heat PrePulse ist, in DPA gehn
	if(flag_HPP_TTA)
    2dc6:	80 91 ad 05 	lds	r24, 0x05AD	; 0x8005ad <flag_HPP_TTA>
    2dca:	88 23       	and	r24, r24
    2dcc:	11 f0       	breq	.+4      	; 0x2dd2 <__vector_47+0x32>
	{
		PulseStart_DPA_TTA_fromHPP();
    2dce:	f3 dd       	rcall	.-1050   	; 0x29b6 <PulseStart_DPA_TTA_fromHPP>
    2dd0:	02 c0       	rjmp	.+4      	; 0x2dd6 <__vector_47+0x36>
	}
	else
	{
		HP_Port = 0;	
    2dd2:	10 92 02 01 	sts	0x0102, r1	; 0x800102 <__TEXT_REGION_LENGTH__+0x700102>
	}
	
	//OLD***********************
	//Switch of all Heat Pulses
	//HP_Port = 0;	
}
    2dd6:	ff 91       	pop	r31
    2dd8:	ef 91       	pop	r30
    2dda:	bf 91       	pop	r27
    2ddc:	af 91       	pop	r26
    2dde:	9f 91       	pop	r25
    2de0:	8f 91       	pop	r24
    2de2:	7f 91       	pop	r23
    2de4:	6f 91       	pop	r22
    2de6:	5f 91       	pop	r21
    2de8:	4f 91       	pop	r20
    2dea:	3f 91       	pop	r19
    2dec:	2f 91       	pop	r18
    2dee:	0f 90       	pop	r0
    2df0:	0b be       	out	0x3b, r0	; 59
    2df2:	0f 90       	pop	r0
    2df4:	0f be       	out	0x3f, r0	; 63
    2df6:	0f 90       	pop	r0
    2df8:	1f 90       	pop	r1
    2dfa:	18 95       	reti

00002dfc <__vector_48>:

//Interrupt: Compare B: Switch of Meas pulse
ISR(TIMER5_COMPB_vect)
{
    2dfc:	1f 92       	push	r1
    2dfe:	0f 92       	push	r0
    2e00:	0f b6       	in	r0, 0x3f	; 63
    2e02:	0f 92       	push	r0
    2e04:	11 24       	eor	r1, r1
    2e06:	0b b6       	in	r0, 0x3b	; 59
    2e08:	0f 92       	push	r0
    2e0a:	af 92       	push	r10
    2e0c:	bf 92       	push	r11
    2e0e:	cf 92       	push	r12
    2e10:	df 92       	push	r13
    2e12:	ef 92       	push	r14
    2e14:	ff 92       	push	r15
    2e16:	0f 93       	push	r16
    2e18:	1f 93       	push	r17
    2e1a:	2f 93       	push	r18
    2e1c:	3f 93       	push	r19
    2e1e:	4f 93       	push	r20
    2e20:	5f 93       	push	r21
    2e22:	6f 93       	push	r22
    2e24:	7f 93       	push	r23
    2e26:	8f 93       	push	r24
    2e28:	9f 93       	push	r25
    2e2a:	af 93       	push	r26
    2e2c:	bf 93       	push	r27
    2e2e:	cf 93       	push	r28
    2e30:	df 93       	push	r29
    2e32:	ef 93       	push	r30
    2e34:	ff 93       	push	r31
	//Interrupt für Tx und Rx zulassen (Alle Interrupts zulassen)
	//Flag wurde vohrer auf falsch gesetzt
	SREG |= _BV(SREG_I); 
    2e36:	8f b7       	in	r24, 0x3f	; 63
    2e38:	80 68       	ori	r24, 0x80	; 128
    2e3a:	8f bf       	out	0x3f, r24	; 63

	//Timer 4  stopen-> Prescaler
	Stop_Timer_100us();
    2e3c:	1a de       	rcall	.-972    	; 0x2a72 <Stop_Timer_100us>
    2e3e:	0f 2e       	mov	r0, r31
    2e40:	fe e8       	ldi	r31, 0x8E	; 142
    2e42:	cf 2e       	mov	r12, r31
    2e44:	f5 e0       	ldi	r31, 0x05	; 5
    2e46:	df 2e       	mov	r13, r31
    2e48:	f0 2d       	mov	r31, r0
    2e4a:	0f 2e       	mov	r0, r31
    2e4c:	f8 e7       	ldi	r31, 0x78	; 120
    2e4e:	ef 2e       	mov	r14, r31
    2e50:	f5 e0       	ldi	r31, 0x05	; 5
    2e52:	ff 2e       	mov	r15, r31
    2e54:	f0 2d       	mov	r31, r0
    2e56:	0e e9       	ldi	r16, 0x9E	; 158
    2e58:	15 e0       	ldi	r17, 0x05	; 5
	
	//Execute Heat-Measurements for all active slots which need it
	for(int i = 0; i < 8; i++)
    2e5a:	c0 e0       	ldi	r28, 0x00	; 0
    2e5c:	d0 e0       	ldi	r29, 0x00	; 0
	{
		//Only execute if slot is active
		if(pulse_output_register & 0x1 << i)
    2e5e:	80 91 8d 05 	lds	r24, 0x058D	; 0x80058d <pulse_output_register>
    2e62:	90 e0       	ldi	r25, 0x00	; 0
    2e64:	0c 2e       	mov	r0, r28
    2e66:	02 c0       	rjmp	.+4      	; 0x2e6c <__vector_48+0x70>
    2e68:	95 95       	asr	r25
    2e6a:	87 95       	ror	r24
    2e6c:	0a 94       	dec	r0
    2e6e:	e2 f7       	brpl	.-8      	; 0x2e68 <__vector_48+0x6c>
    2e70:	80 ff       	sbrs	r24, 0
    2e72:	14 c0       	rjmp	.+40     	; 0x2e9c <__vector_48+0xa0>
		{
			//Only execute for a few card types
			//MOSFET
			if(card_Type[i] == 'M')
    2e74:	f8 01       	movw	r30, r16
    2e76:	80 81       	ld	r24, Z
    2e78:	8d 34       	cpi	r24, 0x4D	; 77
    2e7a:	81 f4       	brne	.+32     	; 0x2e9c <__vector_48+0xa0>
    2e7c:	5e 01       	movw	r10, r28
    2e7e:	ff ef       	ldi	r31, 0xFF	; 255
    2e80:	af 1a       	sub	r10, r31
    2e82:	bf 0a       	sbc	r11, r31
			{
				measured_binary_heat[i] = MOSFET_Source_sample_Meas_receive_Heat(i+1);
    2e84:	c5 01       	movw	r24, r10
    2e86:	0e 94 56 0c 	call	0x18ac	; 0x18ac <MOSFET_Source_sample_Meas_receive_Heat>
    2e8a:	f6 01       	movw	r30, r12
    2e8c:	91 83       	std	Z+1, r25	; 0x01
    2e8e:	80 83       	st	Z, r24
				measured_binary_meas[i] = MOSFET_Source_receive_Meas(i+1);
    2e90:	c5 01       	movw	r24, r10
    2e92:	0e 94 5c 0c 	call	0x18b8	; 0x18b8 <MOSFET_Source_receive_Meas>
    2e96:	f7 01       	movw	r30, r14
    2e98:	91 83       	std	Z+1, r25	; 0x01
    2e9a:	80 83       	st	Z, r24

	//Timer 4  stopen-> Prescaler
	Stop_Timer_100us();
	
	//Execute Heat-Measurements for all active slots which need it
	for(int i = 0; i < 8; i++)
    2e9c:	21 96       	adiw	r28, 0x01	; 1
    2e9e:	f2 e0       	ldi	r31, 0x02	; 2
    2ea0:	cf 0e       	add	r12, r31
    2ea2:	d1 1c       	adc	r13, r1
    2ea4:	22 e0       	ldi	r18, 0x02	; 2
    2ea6:	e2 0e       	add	r14, r18
    2ea8:	f1 1c       	adc	r15, r1
    2eaa:	0f 5f       	subi	r16, 0xFF	; 255
    2eac:	1f 4f       	sbci	r17, 0xFF	; 255
    2eae:	c8 30       	cpi	r28, 0x08	; 8
    2eb0:	d1 05       	cpc	r29, r1
    2eb2:	a9 f6       	brne	.-86     	; 0x2e5e <__vector_48+0x62>
	//Spannung für Mess-Pulse messen
	measure_pulse_voltage = Measure_Voltage_MOSFET_with_DataAnalyse();
*/
	
	//Switch of STD_TTA
	MP_Port = 0;
    2eb4:	10 92 08 01 	sts	0x0108, r1	; 0x800108 <__TEXT_REGION_LENGTH__+0x700108>
		
	//clear Compare Registera
	OCR5B = -1;
    2eb8:	8f ef       	ldi	r24, 0xFF	; 255
    2eba:	9f ef       	ldi	r25, 0xFF	; 255
    2ebc:	90 93 2b 01 	sts	0x012B, r25	; 0x80012b <__TEXT_REGION_LENGTH__+0x70012b>
    2ec0:	80 93 2a 01 	sts	0x012A, r24	; 0x80012a <__TEXT_REGION_LENGTH__+0x70012a>
						
	//Status LED for Pulses
	clear_bit(LED_Pulse);
    2ec4:	a1 98       	cbi	0x14, 1	; 20
}
    2ec6:	ff 91       	pop	r31
    2ec8:	ef 91       	pop	r30
    2eca:	df 91       	pop	r29
    2ecc:	cf 91       	pop	r28
    2ece:	bf 91       	pop	r27
    2ed0:	af 91       	pop	r26
    2ed2:	9f 91       	pop	r25
    2ed4:	8f 91       	pop	r24
    2ed6:	7f 91       	pop	r23
    2ed8:	6f 91       	pop	r22
    2eda:	5f 91       	pop	r21
    2edc:	4f 91       	pop	r20
    2ede:	3f 91       	pop	r19
    2ee0:	2f 91       	pop	r18
    2ee2:	1f 91       	pop	r17
    2ee4:	0f 91       	pop	r16
    2ee6:	ff 90       	pop	r15
    2ee8:	ef 90       	pop	r14
    2eea:	df 90       	pop	r13
    2eec:	cf 90       	pop	r12
    2eee:	bf 90       	pop	r11
    2ef0:	af 90       	pop	r10
    2ef2:	0f 90       	pop	r0
    2ef4:	0b be       	out	0x3b, r0	; 59
    2ef6:	0f 90       	pop	r0
    2ef8:	0f be       	out	0x3f, r0	; 63
    2efa:	0f 90       	pop	r0
    2efc:	1f 90       	pop	r1
    2efe:	18 95       	reti

00002f00 <__vector_49>:

//Interrupt: Compare C: Voltage_Measurement ADC
ISR(TIMER5_COMPC_vect)
{
    2f00:	1f 92       	push	r1
    2f02:	0f 92       	push	r0
    2f04:	0f b6       	in	r0, 0x3f	; 63
    2f06:	0f 92       	push	r0
    2f08:	11 24       	eor	r1, r1
    2f0a:	0b b6       	in	r0, 0x3b	; 59
    2f0c:	0f 92       	push	r0
    2f0e:	2f 93       	push	r18
    2f10:	3f 93       	push	r19
    2f12:	4f 93       	push	r20
    2f14:	5f 93       	push	r21
    2f16:	6f 93       	push	r22
    2f18:	7f 93       	push	r23
    2f1a:	8f 93       	push	r24
    2f1c:	9f 93       	push	r25
    2f1e:	af 93       	push	r26
    2f20:	bf 93       	push	r27
    2f22:	ef 93       	push	r30
    2f24:	ff 93       	push	r31
    2f26:	cf 93       	push	r28
    2f28:	df 93       	push	r29
    2f2a:	1f 92       	push	r1
    2f2c:	1f 92       	push	r1
    2f2e:	cd b7       	in	r28, 0x3d	; 61
    2f30:	de b7       	in	r29, 0x3e	; 62
	//Interrupt für Tx und Rx zulassen (Alle Interrupts zulassen)
	//Flag wurde vohrer auf falsch gesetzt
	SREG |= _BV(SREG_I); 
    2f32:	8f b7       	in	r24, 0x3f	; 63
    2f34:	80 68       	ori	r24, 0x80	; 128
    2f36:	8f bf       	out	0x3f, r24	; 63
	
	//Execute Heat-Measurements for all active slots which need it
	for(volatile int i = 0; i < 8; i++)
    2f38:	1a 82       	std	Y+2, r1	; 0x02
    2f3a:	19 82       	std	Y+1, r1	; 0x01
    2f3c:	89 81       	ldd	r24, Y+1	; 0x01
    2f3e:	9a 81       	ldd	r25, Y+2	; 0x02
    2f40:	08 97       	sbiw	r24, 0x08	; 8
    2f42:	24 f5       	brge	.+72     	; 0x2f8c <__vector_49+0x8c>
	{
		//Only execute if slot is active
		if(pulse_output_register & 0x1 << i)
    2f44:	29 81       	ldd	r18, Y+1	; 0x01
    2f46:	3a 81       	ldd	r19, Y+2	; 0x02
    2f48:	80 91 8d 05 	lds	r24, 0x058D	; 0x80058d <pulse_output_register>
    2f4c:	90 e0       	ldi	r25, 0x00	; 0
    2f4e:	02 c0       	rjmp	.+4      	; 0x2f54 <__vector_49+0x54>
    2f50:	95 95       	asr	r25
    2f52:	87 95       	ror	r24
    2f54:	2a 95       	dec	r18
    2f56:	e2 f7       	brpl	.-8      	; 0x2f50 <__vector_49+0x50>
    2f58:	80 ff       	sbrs	r24, 0
    2f5a:	0f c0       	rjmp	.+30     	; 0x2f7a <__vector_49+0x7a>
		{
			//Only execute for a few card types
			//MOSFET
			if(card_Type[i] == 'M')
    2f5c:	e9 81       	ldd	r30, Y+1	; 0x01
    2f5e:	fa 81       	ldd	r31, Y+2	; 0x02
    2f60:	e2 56       	subi	r30, 0x62	; 98
    2f62:	fa 4f       	sbci	r31, 0xFA	; 250
    2f64:	80 81       	ld	r24, Z
    2f66:	8d 34       	cpi	r24, 0x4D	; 77
    2f68:	31 f4       	brne	.+12     	; 0x2f76 <__vector_49+0x76>
			{
				MOSFET_Source_sample_Heat(i+1);
    2f6a:	89 81       	ldd	r24, Y+1	; 0x01
    2f6c:	9a 81       	ldd	r25, Y+2	; 0x02
    2f6e:	01 96       	adiw	r24, 0x01	; 1
    2f70:	0e 94 50 0c 	call	0x18a0	; 0x18a0 <MOSFET_Source_sample_Heat>
    2f74:	02 c0       	rjmp	.+4      	; 0x2f7a <__vector_49+0x7a>
			}
			else if(card_Type[i] == 'F')
    2f76:	89 81       	ldd	r24, Y+1	; 0x01
    2f78:	9a 81       	ldd	r25, Y+2	; 0x02
	//Interrupt für Tx und Rx zulassen (Alle Interrupts zulassen)
	//Flag wurde vohrer auf falsch gesetzt
	SREG |= _BV(SREG_I); 
	
	//Execute Heat-Measurements for all active slots which need it
	for(volatile int i = 0; i < 8; i++)
    2f7a:	89 81       	ldd	r24, Y+1	; 0x01
    2f7c:	9a 81       	ldd	r25, Y+2	; 0x02
    2f7e:	01 96       	adiw	r24, 0x01	; 1
    2f80:	9a 83       	std	Y+2, r25	; 0x02
    2f82:	89 83       	std	Y+1, r24	; 0x01
    2f84:	89 81       	ldd	r24, Y+1	; 0x01
    2f86:	9a 81       	ldd	r25, Y+2	; 0x02
    2f88:	08 97       	sbiw	r24, 0x08	; 8
    2f8a:	e4 f2       	brlt	.-72     	; 0x2f44 <__vector_49+0x44>
		}		
	}
	
	//OLD
	//Measure_Voltage_MOSFET_without_DataAnalyse();	
}
    2f8c:	0f 90       	pop	r0
    2f8e:	0f 90       	pop	r0
    2f90:	df 91       	pop	r29
    2f92:	cf 91       	pop	r28
    2f94:	ff 91       	pop	r31
    2f96:	ef 91       	pop	r30
    2f98:	bf 91       	pop	r27
    2f9a:	af 91       	pop	r26
    2f9c:	9f 91       	pop	r25
    2f9e:	8f 91       	pop	r24
    2fa0:	7f 91       	pop	r23
    2fa2:	6f 91       	pop	r22
    2fa4:	5f 91       	pop	r21
    2fa6:	4f 91       	pop	r20
    2fa8:	3f 91       	pop	r19
    2faa:	2f 91       	pop	r18
    2fac:	0f 90       	pop	r0
    2fae:	0b be       	out	0x3b, r0	; 59
    2fb0:	0f 90       	pop	r0
    2fb2:	0f be       	out	0x3f, r0	; 63
    2fb4:	0f 90       	pop	r0
    2fb6:	1f 90       	pop	r1
    2fb8:	18 95       	reti

00002fba <ParseIntLn>:
	}
    

    //send
	TransmitString(str);
}
    2fba:	ff 92       	push	r15
    2fbc:	0f 93       	push	r16
    2fbe:	1f 93       	push	r17
    2fc0:	cf 93       	push	r28
    2fc2:	df 93       	push	r29
    2fc4:	00 d0       	rcall	.+0      	; 0x2fc6 <ParseIntLn+0xc>
    2fc6:	00 d0       	rcall	.+0      	; 0x2fc8 <ParseIntLn+0xe>
    2fc8:	cd b7       	in	r28, 0x3d	; 61
    2fca:	de b7       	in	r29, 0x3e	; 62
    2fcc:	8a 01       	movw	r16, r20
    2fce:	da 01       	movw	r26, r20
    2fd0:	1d 92       	st	X+, r1
    2fd2:	1c 92       	st	X, r1
    2fd4:	fc 01       	movw	r30, r24
    2fd6:	20 81       	ld	r18, Z
    2fd8:	2d 32       	cpi	r18, 0x2D	; 45
    2fda:	21 f4       	brne	.+8      	; 0x2fe4 <ParseIntLn+0x2a>
    2fdc:	01 96       	adiw	r24, 0x01	; 1
    2fde:	ff 24       	eor	r15, r15
    2fe0:	f3 94       	inc	r15
    2fe2:	01 c0       	rjmp	.+2      	; 0x2fe6 <ParseIntLn+0x2c>
    2fe4:	f1 2c       	mov	r15, r1
    2fe6:	fc 01       	movw	r30, r24
    2fe8:	31 96       	adiw	r30, 0x01	; 1
    2fea:	dc 01       	movw	r26, r24
    2fec:	9c 91       	ld	r25, X
    2fee:	80 ed       	ldi	r24, 0xD0	; 208
    2ff0:	89 0f       	add	r24, r25
    2ff2:	89 83       	std	Y+1, r24	; 0x01
    2ff4:	8a 30       	cpi	r24, 0x0A	; 10
    2ff6:	08 f0       	brcs	.+2      	; 0x2ffa <ParseIntLn+0x40>
    2ff8:	46 c0       	rjmp	.+140    	; 0x3086 <ParseIntLn+0xcc>
    2ffa:	80 e0       	ldi	r24, 0x00	; 0
    2ffc:	8f 5f       	subi	r24, 0xFF	; 255
    2ffe:	28 2f       	mov	r18, r24
    3000:	30 e0       	ldi	r19, 0x00	; 0
    3002:	51 91       	ld	r21, Z+
    3004:	90 ed       	ldi	r25, 0xD0	; 208
    3006:	95 0f       	add	r25, r21
    3008:	a1 e0       	ldi	r26, 0x01	; 1
    300a:	b0 e0       	ldi	r27, 0x00	; 0
    300c:	ac 0f       	add	r26, r28
    300e:	bd 1f       	adc	r27, r29
    3010:	a2 0f       	add	r26, r18
    3012:	b3 1f       	adc	r27, r19
    3014:	9c 93       	st	X, r25
    3016:	9a 30       	cpi	r25, 0x0A	; 10
    3018:	88 f3       	brcs	.-30     	; 0x2ffc <ParseIntLn+0x42>
    301a:	5a 30       	cpi	r21, 0x0A	; 10
    301c:	81 f5       	brne	.+96     	; 0x307e <ParseIntLn+0xc4>
    301e:	68 17       	cp	r22, r24
    3020:	80 f1       	brcs	.+96     	; 0x3082 <ParseIntLn+0xc8>
    3022:	88 23       	and	r24, r24
    3024:	09 f1       	breq	.+66     	; 0x3068 <ParseIntLn+0xae>
    3026:	98 2f       	mov	r25, r24
    3028:	60 e0       	ldi	r22, 0x00	; 0
    302a:	70 e0       	ldi	r23, 0x00	; 0
    302c:	f9 01       	movw	r30, r18
    302e:	e9 1b       	sub	r30, r25
    3030:	f1 09       	sbc	r31, r1
    3032:	41 e0       	ldi	r20, 0x01	; 1
    3034:	50 e0       	ldi	r21, 0x00	; 0
    3036:	4c 0f       	add	r20, r28
    3038:	5d 1f       	adc	r21, r29
    303a:	e4 0f       	add	r30, r20
    303c:	f5 1f       	adc	r31, r21
    303e:	40 81       	ld	r20, Z
    3040:	fb 01       	movw	r30, r22
    3042:	ee 0f       	add	r30, r30
    3044:	ff 1f       	adc	r31, r31
    3046:	66 0f       	add	r22, r22
    3048:	77 1f       	adc	r23, r23
    304a:	66 0f       	add	r22, r22
    304c:	77 1f       	adc	r23, r23
    304e:	66 0f       	add	r22, r22
    3050:	77 1f       	adc	r23, r23
    3052:	6e 0f       	add	r22, r30
    3054:	7f 1f       	adc	r23, r31
    3056:	64 0f       	add	r22, r20
    3058:	71 1d       	adc	r23, r1
    305a:	91 50       	subi	r25, 0x01	; 1
    305c:	39 f7       	brne	.-50     	; 0x302c <ParseIntLn+0x72>
    305e:	d8 01       	movw	r26, r16
    3060:	6d 93       	st	X+, r22
    3062:	7c 93       	st	X, r23
    3064:	01 c0       	rjmp	.+2      	; 0x3068 <ParseIntLn+0xae>
    3066:	80 e0       	ldi	r24, 0x00	; 0
    3068:	ff 20       	and	r15, r15
    306a:	81 f0       	breq	.+32     	; 0x308c <ParseIntLn+0xd2>
    306c:	f8 01       	movw	r30, r16
    306e:	20 81       	ld	r18, Z
    3070:	31 81       	ldd	r19, Z+1	; 0x01
    3072:	31 95       	neg	r19
    3074:	21 95       	neg	r18
    3076:	31 09       	sbc	r19, r1
    3078:	31 83       	std	Z+1, r19	; 0x01
    307a:	20 83       	st	Z, r18
    307c:	07 c0       	rjmp	.+14     	; 0x308c <ParseIntLn+0xd2>
    307e:	80 e0       	ldi	r24, 0x00	; 0
    3080:	05 c0       	rjmp	.+10     	; 0x308c <ParseIntLn+0xd2>
    3082:	80 e0       	ldi	r24, 0x00	; 0
    3084:	03 c0       	rjmp	.+6      	; 0x308c <ParseIntLn+0xd2>
    3086:	9a 30       	cpi	r25, 0x0A	; 10
    3088:	71 f3       	breq	.-36     	; 0x3066 <ParseIntLn+0xac>
    308a:	80 e0       	ldi	r24, 0x00	; 0
    308c:	26 96       	adiw	r28, 0x06	; 6
    308e:	0f b6       	in	r0, 0x3f	; 63
    3090:	f8 94       	cli
    3092:	de bf       	out	0x3e, r29	; 62
    3094:	0f be       	out	0x3f, r0	; 63
    3096:	cd bf       	out	0x3d, r28	; 61
    3098:	df 91       	pop	r29
    309a:	cf 91       	pop	r28
    309c:	1f 91       	pop	r17
    309e:	0f 91       	pop	r16
    30a0:	ff 90       	pop	r15
    30a2:	08 95       	ret

000030a4 <ParseLongLn>:
    30a4:	8f 92       	push	r8
    30a6:	9f 92       	push	r9
    30a8:	af 92       	push	r10
    30aa:	bf 92       	push	r11
    30ac:	cf 92       	push	r12
    30ae:	df 92       	push	r13
    30b0:	ef 92       	push	r14
    30b2:	ff 92       	push	r15
    30b4:	0f 93       	push	r16
    30b6:	1f 93       	push	r17
    30b8:	cf 93       	push	r28
    30ba:	df 93       	push	r29
    30bc:	cd b7       	in	r28, 0x3d	; 61
    30be:	de b7       	in	r29, 0x3e	; 62
    30c0:	2b 97       	sbiw	r28, 0x0b	; 11
    30c2:	0f b6       	in	r0, 0x3f	; 63
    30c4:	f8 94       	cli
    30c6:	de bf       	out	0x3e, r29	; 62
    30c8:	0f be       	out	0x3f, r0	; 63
    30ca:	cd bf       	out	0x3d, r28	; 61
    30cc:	8a 01       	movw	r16, r20
    30ce:	da 01       	movw	r26, r20
    30d0:	1d 92       	st	X+, r1
    30d2:	1d 92       	st	X+, r1
    30d4:	1d 92       	st	X+, r1
    30d6:	1c 92       	st	X, r1
    30d8:	13 97       	sbiw	r26, 0x03	; 3
    30da:	fc 01       	movw	r30, r24
    30dc:	20 81       	ld	r18, Z
    30de:	2d 32       	cpi	r18, 0x2D	; 45
    30e0:	19 f4       	brne	.+6      	; 0x30e8 <ParseLongLn+0x44>
    30e2:	01 96       	adiw	r24, 0x01	; 1
    30e4:	41 e0       	ldi	r20, 0x01	; 1
    30e6:	01 c0       	rjmp	.+2      	; 0x30ea <ParseLongLn+0x46>
    30e8:	40 e0       	ldi	r20, 0x00	; 0
    30ea:	fc 01       	movw	r30, r24
    30ec:	31 96       	adiw	r30, 0x01	; 1
    30ee:	dc 01       	movw	r26, r24
    30f0:	9c 91       	ld	r25, X
    30f2:	80 ed       	ldi	r24, 0xD0	; 208
    30f4:	89 0f       	add	r24, r25
    30f6:	89 83       	std	Y+1, r24	; 0x01
    30f8:	8a 30       	cpi	r24, 0x0A	; 10
    30fa:	08 f0       	brcs	.+2      	; 0x30fe <ParseLongLn+0x5a>
    30fc:	5d c0       	rjmp	.+186    	; 0x31b8 <ParseLongLn+0x114>
    30fe:	80 e0       	ldi	r24, 0x00	; 0
    3100:	8f 5f       	subi	r24, 0xFF	; 255
    3102:	28 2f       	mov	r18, r24
    3104:	30 e0       	ldi	r19, 0x00	; 0
    3106:	51 91       	ld	r21, Z+
    3108:	90 ed       	ldi	r25, 0xD0	; 208
    310a:	95 0f       	add	r25, r21
    310c:	a1 e0       	ldi	r26, 0x01	; 1
    310e:	b0 e0       	ldi	r27, 0x00	; 0
    3110:	ac 0f       	add	r26, r28
    3112:	bd 1f       	adc	r27, r29
    3114:	a2 0f       	add	r26, r18
    3116:	b3 1f       	adc	r27, r19
    3118:	9c 93       	st	X, r25
    311a:	9a 30       	cpi	r25, 0x0A	; 10
    311c:	88 f3       	brcs	.-30     	; 0x3100 <ParseLongLn+0x5c>
    311e:	5a 30       	cpi	r21, 0x0A	; 10
    3120:	09 f0       	breq	.+2      	; 0x3124 <ParseLongLn+0x80>
    3122:	46 c0       	rjmp	.+140    	; 0x31b0 <ParseLongLn+0x10c>
    3124:	68 17       	cp	r22, r24
    3126:	08 f4       	brcc	.+2      	; 0x312a <ParseLongLn+0x86>
    3128:	45 c0       	rjmp	.+138    	; 0x31b4 <ParseLongLn+0x110>
    312a:	88 23       	and	r24, r24
    312c:	71 f1       	breq	.+92     	; 0x318a <ParseLongLn+0xe6>
    312e:	98 2f       	mov	r25, r24
    3130:	c1 2c       	mov	r12, r1
    3132:	d1 2c       	mov	r13, r1
    3134:	76 01       	movw	r14, r12
    3136:	f9 01       	movw	r30, r18
    3138:	e9 1b       	sub	r30, r25
    313a:	f1 09       	sbc	r31, r1
    313c:	61 e0       	ldi	r22, 0x01	; 1
    313e:	70 e0       	ldi	r23, 0x00	; 0
    3140:	6c 0f       	add	r22, r28
    3142:	7d 1f       	adc	r23, r29
    3144:	e6 0f       	add	r30, r22
    3146:	f7 1f       	adc	r31, r23
    3148:	50 81       	ld	r21, Z
    314a:	cc 0c       	add	r12, r12
    314c:	dd 1c       	adc	r13, r13
    314e:	ee 1c       	adc	r14, r14
    3150:	ff 1c       	adc	r15, r15
    3152:	46 01       	movw	r8, r12
    3154:	57 01       	movw	r10, r14
    3156:	88 0c       	add	r8, r8
    3158:	99 1c       	adc	r9, r9
    315a:	aa 1c       	adc	r10, r10
    315c:	bb 1c       	adc	r11, r11
    315e:	88 0c       	add	r8, r8
    3160:	99 1c       	adc	r9, r9
    3162:	aa 1c       	adc	r10, r10
    3164:	bb 1c       	adc	r11, r11
    3166:	c8 0c       	add	r12, r8
    3168:	d9 1c       	adc	r13, r9
    316a:	ea 1c       	adc	r14, r10
    316c:	fb 1c       	adc	r15, r11
    316e:	c5 0e       	add	r12, r21
    3170:	d1 1c       	adc	r13, r1
    3172:	e1 1c       	adc	r14, r1
    3174:	f1 1c       	adc	r15, r1
    3176:	91 50       	subi	r25, 0x01	; 1
    3178:	f1 f6       	brne	.-68     	; 0x3136 <ParseLongLn+0x92>
    317a:	d8 01       	movw	r26, r16
    317c:	cd 92       	st	X+, r12
    317e:	dd 92       	st	X+, r13
    3180:	ed 92       	st	X+, r14
    3182:	fc 92       	st	X, r15
    3184:	13 97       	sbiw	r26, 0x03	; 3
    3186:	01 c0       	rjmp	.+2      	; 0x318a <ParseLongLn+0xe6>
    3188:	80 e0       	ldi	r24, 0x00	; 0
    318a:	44 23       	and	r20, r20
    318c:	c1 f0       	breq	.+48     	; 0x31be <ParseLongLn+0x11a>
    318e:	f8 01       	movw	r30, r16
    3190:	40 81       	ld	r20, Z
    3192:	51 81       	ldd	r21, Z+1	; 0x01
    3194:	62 81       	ldd	r22, Z+2	; 0x02
    3196:	73 81       	ldd	r23, Z+3	; 0x03
    3198:	70 95       	com	r23
    319a:	60 95       	com	r22
    319c:	50 95       	com	r21
    319e:	41 95       	neg	r20
    31a0:	5f 4f       	sbci	r21, 0xFF	; 255
    31a2:	6f 4f       	sbci	r22, 0xFF	; 255
    31a4:	7f 4f       	sbci	r23, 0xFF	; 255
    31a6:	40 83       	st	Z, r20
    31a8:	51 83       	std	Z+1, r21	; 0x01
    31aa:	62 83       	std	Z+2, r22	; 0x02
    31ac:	73 83       	std	Z+3, r23	; 0x03
    31ae:	07 c0       	rjmp	.+14     	; 0x31be <ParseLongLn+0x11a>
    31b0:	80 e0       	ldi	r24, 0x00	; 0
    31b2:	05 c0       	rjmp	.+10     	; 0x31be <ParseLongLn+0x11a>
    31b4:	80 e0       	ldi	r24, 0x00	; 0
    31b6:	03 c0       	rjmp	.+6      	; 0x31be <ParseLongLn+0x11a>
    31b8:	9a 30       	cpi	r25, 0x0A	; 10
    31ba:	31 f3       	breq	.-52     	; 0x3188 <ParseLongLn+0xe4>
    31bc:	80 e0       	ldi	r24, 0x00	; 0
    31be:	2b 96       	adiw	r28, 0x0b	; 11
    31c0:	0f b6       	in	r0, 0x3f	; 63
    31c2:	f8 94       	cli
    31c4:	de bf       	out	0x3e, r29	; 62
    31c6:	0f be       	out	0x3f, r0	; 63
    31c8:	cd bf       	out	0x3d, r28	; 61
    31ca:	df 91       	pop	r29
    31cc:	cf 91       	pop	r28
    31ce:	1f 91       	pop	r17
    31d0:	0f 91       	pop	r16
    31d2:	ff 90       	pop	r15
    31d4:	ef 90       	pop	r14
    31d6:	df 90       	pop	r13
    31d8:	cf 90       	pop	r12
    31da:	bf 90       	pop	r11
    31dc:	af 90       	pop	r10
    31de:	9f 90       	pop	r9
    31e0:	8f 90       	pop	r8
    31e2:	08 95       	ret

000031e4 <ParseByte>:
    31e4:	fc 01       	movw	r30, r24
    31e6:	20 e0       	ldi	r18, 0x00	; 0
    31e8:	30 e0       	ldi	r19, 0x00	; 0
    31ea:	80 e0       	ldi	r24, 0x00	; 0
    31ec:	a1 e0       	ldi	r26, 0x01	; 1
    31ee:	b0 e0       	ldi	r27, 0x00	; 0
    31f0:	91 91       	ld	r25, Z+
    31f2:	90 33       	cpi	r25, 0x30	; 48
    31f4:	51 f0       	breq	.+20     	; 0x320a <ParseByte+0x26>
    31f6:	91 33       	cpi	r25, 0x31	; 49
    31f8:	89 f4       	brne	.+34     	; 0x321c <ParseByte+0x38>
    31fa:	ad 01       	movw	r20, r26
    31fc:	02 2e       	mov	r0, r18
    31fe:	02 c0       	rjmp	.+4      	; 0x3204 <ParseByte+0x20>
    3200:	44 0f       	add	r20, r20
    3202:	55 1f       	adc	r21, r21
    3204:	0a 94       	dec	r0
    3206:	e2 f7       	brpl	.-8      	; 0x3200 <ParseByte+0x1c>
    3208:	84 0f       	add	r24, r20
    320a:	2f 5f       	subi	r18, 0xFF	; 255
    320c:	3f 4f       	sbci	r19, 0xFF	; 255
    320e:	28 30       	cpi	r18, 0x08	; 8
    3210:	31 05       	cpc	r19, r1
    3212:	71 f7       	brne	.-36     	; 0x31f0 <ParseByte+0xc>
    3214:	fb 01       	movw	r30, r22
    3216:	80 83       	st	Z, r24
    3218:	81 e0       	ldi	r24, 0x01	; 1
    321a:	08 95       	ret
    321c:	80 e0       	ldi	r24, 0x00	; 0
    321e:	08 95       	ret

00003220 <TransmitString>:
    3220:	f9 c6       	rjmp	.+3570   	; 0x4014 <UART0TransmitString>
    3222:	08 95       	ret

00003224 <TransmitStringLn>:
    3224:	08 c7       	rjmp	.+3600   	; 0x4036 <UART0TransmitStringLn>
    3226:	08 95       	ret

00003228 <TransmitInt>:
    3228:	cf 92       	push	r12
    322a:	df 92       	push	r13
    322c:	ef 92       	push	r14
    322e:	ff 92       	push	r15
    3230:	0f 93       	push	r16
    3232:	1f 93       	push	r17
    3234:	cf 93       	push	r28
    3236:	df 93       	push	r29
    3238:	cd b7       	in	r28, 0x3d	; 61
    323a:	de b7       	in	r29, 0x3e	; 62
    323c:	2c 97       	sbiw	r28, 0x0c	; 12
    323e:	0f b6       	in	r0, 0x3f	; 63
    3240:	f8 94       	cli
    3242:	de bf       	out	0x3e, r29	; 62
    3244:	0f be       	out	0x3f, r0	; 63
    3246:	cd bf       	out	0x3d, r28	; 61
    3248:	e6 2e       	mov	r14, r22
    324a:	99 23       	and	r25, r25
    324c:	44 f4       	brge	.+16     	; 0x325e <TransmitInt+0x36>
    324e:	2d e2       	ldi	r18, 0x2D	; 45
    3250:	30 e0       	ldi	r19, 0x00	; 0
    3252:	38 87       	std	Y+8, r19	; 0x08
    3254:	2f 83       	std	Y+7, r18	; 0x07
    3256:	91 95       	neg	r25
    3258:	81 95       	neg	r24
    325a:	91 09       	sbc	r25, r1
    325c:	01 c0       	rjmp	.+2      	; 0x3260 <TransmitInt+0x38>
    325e:	1f 82       	std	Y+7, r1	; 0x07
    3260:	4a e0       	ldi	r20, 0x0A	; 10
    3262:	be 01       	movw	r22, r28
    3264:	6f 5f       	subi	r22, 0xFF	; 255
    3266:	7f 4f       	sbci	r23, 0xFF	; 255
    3268:	0e 94 c5 22 	call	0x458a	; 0x458a <__itoa_ncheck>
    326c:	be 01       	movw	r22, r28
    326e:	6f 5f       	subi	r22, 0xFF	; 255
    3270:	7f 4f       	sbci	r23, 0xFF	; 255
    3272:	ce 01       	movw	r24, r28
    3274:	07 96       	adiw	r24, 0x07	; 7
    3276:	0e 94 b3 22 	call	0x4566	; 0x4566 <strcat>
    327a:	be 01       	movw	r22, r28
    327c:	69 5f       	subi	r22, 0xF9	; 249
    327e:	7f 4f       	sbci	r23, 0xFF	; 255
    3280:	ce 01       	movw	r24, r28
    3282:	01 96       	adiw	r24, 0x01	; 1
    3284:	0e 94 be 22 	call	0x457c	; 0x457c <strcpy>
    3288:	e1 10       	cpse	r14, r1
    328a:	0f c0       	rjmp	.+30     	; 0x32aa <TransmitInt+0x82>
    328c:	20 c0       	rjmp	.+64     	; 0x32ce <TransmitInt+0xa6>
    328e:	d8 86       	std	Y+8, r13	; 0x08
    3290:	cf 82       	std	Y+7, r12	; 0x07
    3292:	b8 01       	movw	r22, r16
    3294:	ce 01       	movw	r24, r28
    3296:	07 96       	adiw	r24, 0x07	; 7
    3298:	0e 94 b3 22 	call	0x4566	; 0x4566 <strcat>
    329c:	be 01       	movw	r22, r28
    329e:	69 5f       	subi	r22, 0xF9	; 249
    32a0:	7f 4f       	sbci	r23, 0xFF	; 255
    32a2:	c8 01       	movw	r24, r16
    32a4:	0e 94 be 22 	call	0x457c	; 0x457c <strcpy>
    32a8:	08 c0       	rjmp	.+16     	; 0x32ba <TransmitInt+0x92>
    32aa:	8e 01       	movw	r16, r28
    32ac:	0f 5f       	subi	r16, 0xFF	; 255
    32ae:	1f 4f       	sbci	r17, 0xFF	; 255
    32b0:	f1 2c       	mov	r15, r1
    32b2:	68 94       	set
    32b4:	cc 24       	eor	r12, r12
    32b6:	c5 f8       	bld	r12, 5
    32b8:	d1 2c       	mov	r13, r1
    32ba:	f8 01       	movw	r30, r16
    32bc:	01 90       	ld	r0, Z+
    32be:	00 20       	and	r0, r0
    32c0:	e9 f7       	brne	.-6      	; 0x32bc <TransmitInt+0x94>
    32c2:	31 97       	sbiw	r30, 0x01	; 1
    32c4:	e0 1b       	sub	r30, r16
    32c6:	f1 0b       	sbc	r31, r17
    32c8:	ee 15       	cp	r30, r14
    32ca:	ff 05       	cpc	r31, r15
    32cc:	00 f3       	brcs	.-64     	; 0x328e <TransmitInt+0x66>
    32ce:	ce 01       	movw	r24, r28
    32d0:	01 96       	adiw	r24, 0x01	; 1
    32d2:	a0 d6       	rcall	.+3392   	; 0x4014 <UART0TransmitString>
    32d4:	2c 96       	adiw	r28, 0x0c	; 12
    32d6:	0f b6       	in	r0, 0x3f	; 63
    32d8:	f8 94       	cli
    32da:	de bf       	out	0x3e, r29	; 62
    32dc:	0f be       	out	0x3f, r0	; 63
    32de:	cd bf       	out	0x3d, r28	; 61
    32e0:	df 91       	pop	r29
    32e2:	cf 91       	pop	r28
    32e4:	1f 91       	pop	r17
    32e6:	0f 91       	pop	r16
    32e8:	ff 90       	pop	r15
    32ea:	ef 90       	pop	r14
    32ec:	df 90       	pop	r13
    32ee:	cf 90       	pop	r12
    32f0:	08 95       	ret

000032f2 <TransmitLong>:
// -------------------------------------------------------------
// Zahl dezimal auf Interface ausgeben (ASCII)
// -------------------------------------------------------------

void TransmitLong(int32_t i, uint8_t digits)
{
    32f2:	cf 92       	push	r12
    32f4:	df 92       	push	r13
    32f6:	ef 92       	push	r14
    32f8:	ff 92       	push	r15
    32fa:	0f 93       	push	r16
    32fc:	1f 93       	push	r17
    32fe:	cf 93       	push	r28
    3300:	df 93       	push	r29
    3302:	cd b7       	in	r28, 0x3d	; 61
    3304:	de b7       	in	r29, 0x3e	; 62
    3306:	66 97       	sbiw	r28, 0x16	; 22
    3308:	0f b6       	in	r0, 0x3f	; 63
    330a:	f8 94       	cli
    330c:	de bf       	out	0x3e, r29	; 62
    330e:	0f be       	out	0x3f, r0	; 63
    3310:	cd bf       	out	0x3d, r28	; 61
    3312:	e4 2e       	mov	r14, r20
	char str[11], temp[11];

    // minus sign
	if(i < 0)
    3314:	99 23       	and	r25, r25
    3316:	64 f4       	brge	.+24     	; 0x3330 <TransmitLong+0x3e>
	{
		strcpy(temp,"-");
    3318:	2d e2       	ldi	r18, 0x2D	; 45
    331a:	30 e0       	ldi	r19, 0x00	; 0
    331c:	3d 87       	std	Y+13, r19	; 0x0d
    331e:	2c 87       	std	Y+12, r18	; 0x0c
        i = -i;
    3320:	90 95       	com	r25
    3322:	80 95       	com	r24
    3324:	70 95       	com	r23
    3326:	61 95       	neg	r22
    3328:	7f 4f       	sbci	r23, 0xFF	; 255
    332a:	8f 4f       	sbci	r24, 0xFF	; 255
    332c:	9f 4f       	sbci	r25, 0xFF	; 255
    332e:	01 c0       	rjmp	.+2      	; 0x3332 <TransmitLong+0x40>
	}
	else
	{
		strcpy(temp,"");
    3330:	1c 86       	std	Y+12, r1	; 0x0c
    } else if (__radix < 2 || __radix > 36) {
	*__s = 0;
	return __s;
    } else {
	extern char *__ltoa_ncheck (long, char *, unsigned char);
	return __ltoa_ncheck (__val, __s, __radix);
    3332:	2a e0       	ldi	r18, 0x0A	; 10
    3334:	ae 01       	movw	r20, r28
    3336:	4f 5f       	subi	r20, 0xFF	; 255
    3338:	5f 4f       	sbci	r21, 0xFF	; 255
    333a:	0e 94 cf 22 	call	0x459e	; 0x459e <__ltoa_ncheck>
	}

	ltoa(i,str,10);
	
	strcat(temp,str);
    333e:	be 01       	movw	r22, r28
    3340:	6f 5f       	subi	r22, 0xFF	; 255
    3342:	7f 4f       	sbci	r23, 0xFF	; 255
    3344:	ce 01       	movw	r24, r28
    3346:	0c 96       	adiw	r24, 0x0c	; 12
    3348:	0e 94 b3 22 	call	0x4566	; 0x4566 <strcat>
    strcpy(str,temp);
    334c:	be 01       	movw	r22, r28
    334e:	64 5f       	subi	r22, 0xF4	; 244
    3350:	7f 4f       	sbci	r23, 0xFF	; 255
    3352:	ce 01       	movw	r24, r28
    3354:	01 96       	adiw	r24, 0x01	; 1
    3356:	0e 94 be 22 	call	0x457c	; 0x457c <strcpy>


    //format with leading spaces
	if(digits > 0)
    335a:	e1 10       	cpse	r14, r1
    335c:	0f c0       	rjmp	.+30     	; 0x337c <TransmitLong+0x8a>
    335e:	20 c0       	rjmp	.+64     	; 0x33a0 <TransmitLong+0xae>
	{
		while(strlen(str) < digits)
		{
			strcpy(temp," ");
    3360:	dd 86       	std	Y+13, r13	; 0x0d
    3362:	cc 86       	std	Y+12, r12	; 0x0c
			strcat(temp,str);
    3364:	b8 01       	movw	r22, r16
    3366:	ce 01       	movw	r24, r28
    3368:	0c 96       	adiw	r24, 0x0c	; 12
    336a:	0e 94 b3 22 	call	0x4566	; 0x4566 <strcat>
			strcpy(str,temp);
    336e:	be 01       	movw	r22, r28
    3370:	64 5f       	subi	r22, 0xF4	; 244
    3372:	7f 4f       	sbci	r23, 0xFF	; 255
    3374:	c8 01       	movw	r24, r16
    3376:	0e 94 be 22 	call	0x457c	; 0x457c <strcpy>
    337a:	08 c0       	rjmp	.+16     	; 0x338c <TransmitLong+0x9a>


    //format with leading spaces
	if(digits > 0)
	{
		while(strlen(str) < digits)
    337c:	8e 01       	movw	r16, r28
    337e:	0f 5f       	subi	r16, 0xFF	; 255
    3380:	1f 4f       	sbci	r17, 0xFF	; 255
    3382:	f1 2c       	mov	r15, r1
		{
			strcpy(temp," ");
    3384:	68 94       	set
    3386:	cc 24       	eor	r12, r12
    3388:	c5 f8       	bld	r12, 5
    338a:	d1 2c       	mov	r13, r1


    //format with leading spaces
	if(digits > 0)
	{
		while(strlen(str) < digits)
    338c:	f8 01       	movw	r30, r16
    338e:	01 90       	ld	r0, Z+
    3390:	00 20       	and	r0, r0
    3392:	e9 f7       	brne	.-6      	; 0x338e <TransmitLong+0x9c>
    3394:	31 97       	sbiw	r30, 0x01	; 1
    3396:	e0 1b       	sub	r30, r16
    3398:	f1 0b       	sbc	r31, r17
    339a:	ee 15       	cp	r30, r14
    339c:	ff 05       	cpc	r31, r15
    339e:	00 f3       	brcs	.-64     	; 0x3360 <TransmitLong+0x6e>
// String auf Interface ausgeben
// -------------------------------------------------------------

void TransmitString(char *string)
{
    UART0TransmitString(string);
    33a0:	ce 01       	movw	r24, r28
    33a2:	01 96       	adiw	r24, 0x01	; 1
    33a4:	37 d6       	rcall	.+3182   	; 0x4014 <UART0TransmitString>
	}
    

    //send
	TransmitString(str);
}
    33a6:	66 96       	adiw	r28, 0x16	; 22
    33a8:	0f b6       	in	r0, 0x3f	; 63
    33aa:	f8 94       	cli
    33ac:	de bf       	out	0x3e, r29	; 62
    33ae:	0f be       	out	0x3f, r0	; 63
    33b0:	cd bf       	out	0x3d, r28	; 61
    33b2:	df 91       	pop	r29
    33b4:	cf 91       	pop	r28
    33b6:	1f 91       	pop	r17
    33b8:	0f 91       	pop	r16
    33ba:	ff 90       	pop	r15
    33bc:	ef 90       	pop	r14
    33be:	df 90       	pop	r13
    33c0:	cf 90       	pop	r12
    33c2:	08 95       	ret

000033c4 <TransmitFloat>:
// -------------------------------------------------------------
// Zahl als Dezimalbruch auf Interface ausgeben (ASCII)
// -------------------------------------------------------------

void TransmitFloat(int16_t i, uint8_t digits, uint8_t div)
{
    33c4:	5f 92       	push	r5
    33c6:	6f 92       	push	r6
    33c8:	7f 92       	push	r7
    33ca:	8f 92       	push	r8
    33cc:	9f 92       	push	r9
    33ce:	af 92       	push	r10
    33d0:	bf 92       	push	r11
    33d2:	cf 92       	push	r12
    33d4:	df 92       	push	r13
    33d6:	ef 92       	push	r14
    33d8:	ff 92       	push	r15
    33da:	0f 93       	push	r16
    33dc:	1f 93       	push	r17
    33de:	cf 93       	push	r28
    33e0:	df 93       	push	r29
    33e2:	cd b7       	in	r28, 0x3d	; 61
    33e4:	de b7       	in	r29, 0x3e	; 62
    33e6:	64 97       	sbiw	r28, 0x14	; 20
    33e8:	0f b6       	in	r0, 0x3f	; 63
    33ea:	f8 94       	cli
    33ec:	de bf       	out	0x3e, r29	; 62
    33ee:	0f be       	out	0x3f, r0	; 63
    33f0:	cd bf       	out	0x3d, r28	; 61
    33f2:	4c 01       	movw	r8, r24
    33f4:	76 2e       	mov	r7, r22
    33f6:	c4 2e       	mov	r12, r20
	char str[10], temp[10];
	uint16_t pot = 1;
	uint8_t co = div;

	while(div > 0)
    33f8:	44 23       	and	r20, r20
    33fa:	89 f0       	breq	.+34     	; 0x341e <TransmitFloat+0x5a>
    33fc:	84 2f       	mov	r24, r20
    33fe:	01 e0       	ldi	r16, 0x01	; 1
    3400:	10 e0       	ldi	r17, 0x00	; 0
	{
		pot *= 10;
    3402:	98 01       	movw	r18, r16
    3404:	22 0f       	add	r18, r18
    3406:	33 1f       	adc	r19, r19
    3408:	00 0f       	add	r16, r16
    340a:	11 1f       	adc	r17, r17
    340c:	00 0f       	add	r16, r16
    340e:	11 1f       	adc	r17, r17
    3410:	00 0f       	add	r16, r16
    3412:	11 1f       	adc	r17, r17
    3414:	02 0f       	add	r16, r18
    3416:	13 1f       	adc	r17, r19
		div--;
    3418:	81 50       	subi	r24, 0x01	; 1
{
	char str[10], temp[10];
	uint16_t pot = 1;
	uint8_t co = div;

	while(div > 0)
    341a:	99 f7       	brne	.-26     	; 0x3402 <TransmitFloat+0x3e>
    341c:	02 c0       	rjmp	.+4      	; 0x3422 <TransmitFloat+0x5e>
// -------------------------------------------------------------

void TransmitFloat(int16_t i, uint8_t digits, uint8_t div)
{
	char str[10], temp[10];
	uint16_t pot = 1;
    341e:	01 e0       	ldi	r16, 0x01	; 1
    3420:	10 e0       	ldi	r17, 0x00	; 0
	{
		pot *= 10;
		div--;
	}

	itoa(abs(i)%pot,str,10);
    3422:	c4 01       	movw	r24, r8
    3424:	99 20       	and	r9, r9
    3426:	24 f4       	brge	.+8      	; 0x3430 <TransmitFloat+0x6c>
    3428:	88 27       	eor	r24, r24
    342a:	99 27       	eor	r25, r25
    342c:	88 19       	sub	r24, r8
    342e:	99 09       	sbc	r25, r9
    3430:	58 2e       	mov	r5, r24
    3432:	69 2e       	mov	r6, r25
    } else if (__radix < 2 || __radix > 36) {
	*__s = 0;
	return __s;
    } else {
	extern char *__itoa_ncheck (int, char *, unsigned char);
	return __itoa_ncheck (__val, __s, __radix);
    3434:	b8 01       	movw	r22, r16
    3436:	d1 d7       	rcall	.+4002   	; 0x43da <__udivmodhi4>
    3438:	4a e0       	ldi	r20, 0x0A	; 10
    343a:	be 01       	movw	r22, r28
    343c:	6f 5f       	subi	r22, 0xFF	; 255
    343e:	7f 4f       	sbci	r23, 0xFF	; 255
    3440:	0e 94 c5 22 	call	0x458a	; 0x458a <__itoa_ncheck>

	while(strlen(str) < co)
    3444:	ce 01       	movw	r24, r28
    3446:	01 96       	adiw	r24, 0x01	; 1
    3448:	7c 01       	movw	r14, r24
    344a:	d1 2c       	mov	r13, r1
	{
		strcpy(temp,"0");
    344c:	0f 2e       	mov	r0, r31
    344e:	f0 e3       	ldi	r31, 0x30	; 48
    3450:	af 2e       	mov	r10, r31
    3452:	b1 2c       	mov	r11, r1
    3454:	f0 2d       	mov	r31, r0
    3456:	0d c0       	rjmp	.+26     	; 0x3472 <TransmitFloat+0xae>
    3458:	bc 86       	std	Y+12, r11	; 0x0c
    345a:	ab 86       	std	Y+11, r10	; 0x0b
		strcat(temp,str);
    345c:	b7 01       	movw	r22, r14
    345e:	ce 01       	movw	r24, r28
    3460:	0b 96       	adiw	r24, 0x0b	; 11
    3462:	0e 94 b3 22 	call	0x4566	; 0x4566 <strcat>
		strcpy(str,temp);
    3466:	be 01       	movw	r22, r28
    3468:	65 5f       	subi	r22, 0xF5	; 245
    346a:	7f 4f       	sbci	r23, 0xFF	; 255
    346c:	c7 01       	movw	r24, r14
    346e:	0e 94 be 22 	call	0x457c	; 0x457c <strcpy>
		div--;
	}

	itoa(abs(i)%pot,str,10);

	while(strlen(str) < co)
    3472:	f7 01       	movw	r30, r14
    3474:	01 90       	ld	r0, Z+
    3476:	00 20       	and	r0, r0
    3478:	e9 f7       	brne	.-6      	; 0x3474 <TransmitFloat+0xb0>
    347a:	31 97       	sbiw	r30, 0x01	; 1
    347c:	ee 19       	sub	r30, r14
    347e:	ff 09       	sbc	r31, r15
    3480:	ec 15       	cp	r30, r12
    3482:	fd 05       	cpc	r31, r13
    3484:	48 f3       	brcs	.-46     	; 0x3458 <TransmitFloat+0x94>
    3486:	7e 01       	movw	r14, r28
    3488:	9b e0       	ldi	r25, 0x0B	; 11
    348a:	e9 0e       	add	r14, r25
    348c:	f1 1c       	adc	r15, r1
    348e:	85 2d       	mov	r24, r5
    3490:	96 2d       	mov	r25, r6
    3492:	b8 01       	movw	r22, r16
    3494:	a2 d7       	rcall	.+3908   	; 0x43da <__udivmodhi4>
    3496:	cb 01       	movw	r24, r22
    3498:	4a e0       	ldi	r20, 0x0A	; 10
    349a:	b7 01       	movw	r22, r14
    349c:	0e 94 c5 22 	call	0x458a	; 0x458a <__itoa_ncheck>
		strcpy(str,temp);
	}

	itoa(abs(i)/pot,temp,10);

	strcat(temp,".");
    34a0:	f7 01       	movw	r30, r14
    34a2:	01 90       	ld	r0, Z+
    34a4:	00 20       	and	r0, r0
    34a6:	e9 f7       	brne	.-6      	; 0x34a2 <TransmitFloat+0xde>
    34a8:	31 97       	sbiw	r30, 0x01	; 1
    34aa:	8e e2       	ldi	r24, 0x2E	; 46
    34ac:	90 e0       	ldi	r25, 0x00	; 0
    34ae:	91 83       	std	Z+1, r25	; 0x01
    34b0:	80 83       	st	Z, r24
	strcat(temp,str);
    34b2:	be 01       	movw	r22, r28
    34b4:	6f 5f       	subi	r22, 0xFF	; 255
    34b6:	7f 4f       	sbci	r23, 0xFF	; 255
    34b8:	c7 01       	movw	r24, r14
    34ba:	0e 94 b3 22 	call	0x4566	; 0x4566 <strcat>


    // minus sign
	if(i < 0)
    34be:	99 20       	and	r9, r9
    34c0:	2c f4       	brge	.+10     	; 0x34cc <TransmitFloat+0x108>
	{
		strcpy(str,"-");
    34c2:	8d e2       	ldi	r24, 0x2D	; 45
    34c4:	90 e0       	ldi	r25, 0x00	; 0
    34c6:	9a 83       	std	Y+2, r25	; 0x02
    34c8:	89 83       	std	Y+1, r24	; 0x01
    34ca:	01 c0       	rjmp	.+2      	; 0x34ce <TransmitFloat+0x10a>
	}
	else
	{
		strcpy(str,"");
    34cc:	19 82       	std	Y+1, r1	; 0x01
	}
	
	strcat(str,temp);
    34ce:	be 01       	movw	r22, r28
    34d0:	65 5f       	subi	r22, 0xF5	; 245
    34d2:	7f 4f       	sbci	r23, 0xFF	; 255
    34d4:	ce 01       	movw	r24, r28
    34d6:	01 96       	adiw	r24, 0x01	; 1
    34d8:	0e 94 b3 22 	call	0x4566	; 0x4566 <strcat>


    //format with leading spaces
	if(digits > 0)
    34dc:	71 10       	cpse	r7, r1
    34de:	0f c0       	rjmp	.+30     	; 0x34fe <TransmitFloat+0x13a>
    34e0:	21 c0       	rjmp	.+66     	; 0x3524 <TransmitFloat+0x160>
	{
		while(strlen(str) < digits)
		{
			strcpy(temp," ");
    34e2:	dc 86       	std	Y+12, r13	; 0x0c
    34e4:	cb 86       	std	Y+11, r12	; 0x0b
			strcat(temp,str);
    34e6:	b8 01       	movw	r22, r16
    34e8:	ce 01       	movw	r24, r28
    34ea:	0b 96       	adiw	r24, 0x0b	; 11
    34ec:	0e 94 b3 22 	call	0x4566	; 0x4566 <strcat>
			strcpy(str,temp);
    34f0:	be 01       	movw	r22, r28
    34f2:	65 5f       	subi	r22, 0xF5	; 245
    34f4:	7f 4f       	sbci	r23, 0xFF	; 255
    34f6:	c8 01       	movw	r24, r16
    34f8:	0e 94 be 22 	call	0x457c	; 0x457c <strcpy>
    34fc:	09 c0       	rjmp	.+18     	; 0x3510 <TransmitFloat+0x14c>


    //format with leading spaces
	if(digits > 0)
	{
		while(strlen(str) < digits)
    34fe:	8e 01       	movw	r16, r28
    3500:	0f 5f       	subi	r16, 0xFF	; 255
    3502:	1f 4f       	sbci	r17, 0xFF	; 255
    3504:	e7 2c       	mov	r14, r7
    3506:	f1 2c       	mov	r15, r1
		{
			strcpy(temp," ");
    3508:	68 94       	set
    350a:	cc 24       	eor	r12, r12
    350c:	c5 f8       	bld	r12, 5
    350e:	d1 2c       	mov	r13, r1


    //format with leading spaces
	if(digits > 0)
	{
		while(strlen(str) < digits)
    3510:	f8 01       	movw	r30, r16
    3512:	01 90       	ld	r0, Z+
    3514:	00 20       	and	r0, r0
    3516:	e9 f7       	brne	.-6      	; 0x3512 <TransmitFloat+0x14e>
    3518:	31 97       	sbiw	r30, 0x01	; 1
    351a:	e0 1b       	sub	r30, r16
    351c:	f1 0b       	sbc	r31, r17
    351e:	ee 15       	cp	r30, r14
    3520:	ff 05       	cpc	r31, r15
    3522:	f8 f2       	brcs	.-66     	; 0x34e2 <TransmitFloat+0x11e>
// String auf Interface ausgeben
// -------------------------------------------------------------

void TransmitString(char *string)
{
    UART0TransmitString(string);
    3524:	ce 01       	movw	r24, r28
    3526:	01 96       	adiw	r24, 0x01	; 1
    3528:	75 d5       	rcall	.+2794   	; 0x4014 <UART0TransmitString>
	}
    

    //send
	TransmitString(str);
}
    352a:	64 96       	adiw	r28, 0x14	; 20
    352c:	0f b6       	in	r0, 0x3f	; 63
    352e:	f8 94       	cli
    3530:	de bf       	out	0x3e, r29	; 62
    3532:	0f be       	out	0x3f, r0	; 63
    3534:	cd bf       	out	0x3d, r28	; 61
    3536:	df 91       	pop	r29
    3538:	cf 91       	pop	r28
    353a:	1f 91       	pop	r17
    353c:	0f 91       	pop	r16
    353e:	ff 90       	pop	r15
    3540:	ef 90       	pop	r14
    3542:	df 90       	pop	r13
    3544:	cf 90       	pop	r12
    3546:	bf 90       	pop	r11
    3548:	af 90       	pop	r10
    354a:	9f 90       	pop	r9
    354c:	8f 90       	pop	r8
    354e:	7f 90       	pop	r7
    3550:	6f 90       	pop	r6
    3552:	5f 90       	pop	r5
    3554:	08 95       	ret

00003556 <TransmitByte>:
// -------------------------------------------------------------
// Zahl als Dezimalbruch auf Interface ausgeben (ASCII)
// -------------------------------------------------------------

void TransmitByte(uint8_t byte)
{
    3556:	cf 93       	push	r28
    3558:	df 93       	push	r29
    355a:	cd b7       	in	r28, 0x3d	; 61
    355c:	de b7       	in	r29, 0x3e	; 62
    355e:	29 97       	sbiw	r28, 0x09	; 9
    3560:	0f b6       	in	r0, 0x3f	; 63
    3562:	f8 94       	cli
    3564:	de bf       	out	0x3e, r29	; 62
    3566:	0f be       	out	0x3f, r0	; 63
    3568:	cd bf       	out	0x3d, r28	; 61
	char str[] = "00000000";
    356a:	99 e0       	ldi	r25, 0x09	; 9
    356c:	e9 e0       	ldi	r30, 0x09	; 9
    356e:	f3 e0       	ldi	r31, 0x03	; 3
    3570:	de 01       	movw	r26, r28
    3572:	11 96       	adiw	r26, 0x01	; 1
    3574:	01 90       	ld	r0, Z+
    3576:	0d 92       	st	X+, r0
    3578:	9a 95       	dec	r25
    357a:	e1 f7       	brne	.-8      	; 0x3574 <TransmitByte+0x1e>
    357c:	fe 01       	movw	r30, r28
    357e:	31 96       	adiw	r30, 0x01	; 1
	
	for(int i = 7; i >= 0; i--)
    3580:	27 e0       	ldi	r18, 0x07	; 7
    3582:	30 e0       	ldi	r19, 0x00	; 0
	{
		if(byte & (1 << i)){
    3584:	90 e0       	ldi	r25, 0x00	; 0
			str[7-i] = '1';
		}
		else{
			str[7-i] = '0';		
    3586:	70 e3       	ldi	r23, 0x30	; 48
	char str[] = "00000000";
	
	for(int i = 7; i >= 0; i--)
	{
		if(byte & (1 << i)){
			str[7-i] = '1';
    3588:	61 e3       	ldi	r22, 0x31	; 49
{
	char str[] = "00000000";
	
	for(int i = 7; i >= 0; i--)
	{
		if(byte & (1 << i)){
    358a:	ac 01       	movw	r20, r24
    358c:	02 2e       	mov	r0, r18
    358e:	02 c0       	rjmp	.+4      	; 0x3594 <TransmitByte+0x3e>
    3590:	55 95       	asr	r21
    3592:	47 95       	ror	r20
    3594:	0a 94       	dec	r0
    3596:	e2 f7       	brpl	.-8      	; 0x3590 <TransmitByte+0x3a>
    3598:	40 ff       	sbrs	r20, 0
    359a:	02 c0       	rjmp	.+4      	; 0x35a0 <TransmitByte+0x4a>
			str[7-i] = '1';
    359c:	60 83       	st	Z, r22
    359e:	01 c0       	rjmp	.+2      	; 0x35a2 <TransmitByte+0x4c>
		}
		else{
			str[7-i] = '0';		
    35a0:	70 83       	st	Z, r23

void TransmitByte(uint8_t byte)
{
	char str[] = "00000000";
	
	for(int i = 7; i >= 0; i--)
    35a2:	21 50       	subi	r18, 0x01	; 1
    35a4:	31 09       	sbc	r19, r1
    35a6:	31 96       	adiw	r30, 0x01	; 1
    35a8:	2f 3f       	cpi	r18, 0xFF	; 255
    35aa:	4f ef       	ldi	r20, 0xFF	; 255
    35ac:	34 07       	cpc	r19, r20
    35ae:	69 f7       	brne	.-38     	; 0x358a <TransmitByte+0x34>
// String auf Interface ausgeben
// -------------------------------------------------------------

void TransmitString(char *string)
{
    UART0TransmitString(string);
    35b0:	ce 01       	movw	r24, r28
    35b2:	01 96       	adiw	r24, 0x01	; 1
    35b4:	2f d5       	rcall	.+2654   	; 0x4014 <UART0TransmitString>
	}
	

	//send
	TransmitString(str);
}
    35b6:	29 96       	adiw	r28, 0x09	; 9
    35b8:	0f b6       	in	r0, 0x3f	; 63
    35ba:	f8 94       	cli
    35bc:	de bf       	out	0x3e, r29	; 62
    35be:	0f be       	out	0x3f, r0	; 63
    35c0:	cd bf       	out	0x3d, r28	; 61
    35c2:	df 91       	pop	r29
    35c4:	cf 91       	pop	r28
    35c6:	08 95       	ret

000035c8 <TransmitByte_Reverse>:

void TransmitByte_Reverse(uint8_t byte)
{
    35c8:	cf 93       	push	r28
    35ca:	df 93       	push	r29
    35cc:	cd b7       	in	r28, 0x3d	; 61
    35ce:	de b7       	in	r29, 0x3e	; 62
    35d0:	29 97       	sbiw	r28, 0x09	; 9
    35d2:	0f b6       	in	r0, 0x3f	; 63
    35d4:	f8 94       	cli
    35d6:	de bf       	out	0x3e, r29	; 62
    35d8:	0f be       	out	0x3f, r0	; 63
    35da:	cd bf       	out	0x3d, r28	; 61
	char str[] = "00000000";
    35dc:	99 e0       	ldi	r25, 0x09	; 9
    35de:	e9 e0       	ldi	r30, 0x09	; 9
    35e0:	f3 e0       	ldi	r31, 0x03	; 3
    35e2:	de 01       	movw	r26, r28
    35e4:	11 96       	adiw	r26, 0x01	; 1
    35e6:	01 90       	ld	r0, Z+
    35e8:	0d 92       	st	X+, r0
    35ea:	9a 95       	dec	r25
    35ec:	e1 f7       	brne	.-8      	; 0x35e6 <TransmitByte_Reverse+0x1e>
    35ee:	fe 01       	movw	r30, r28
    35f0:	31 96       	adiw	r30, 0x01	; 1
	
	for(int i = 0; i < 8; i++)
    35f2:	20 e0       	ldi	r18, 0x00	; 0
    35f4:	30 e0       	ldi	r19, 0x00	; 0
	{
		if(byte & (1 << i)){
    35f6:	90 e0       	ldi	r25, 0x00	; 0
			str[i] = '1';
		}
		else{
			str[i] = '0';
    35f8:	70 e3       	ldi	r23, 0x30	; 48
	char str[] = "00000000";
	
	for(int i = 0; i < 8; i++)
	{
		if(byte & (1 << i)){
			str[i] = '1';
    35fa:	61 e3       	ldi	r22, 0x31	; 49
{
	char str[] = "00000000";
	
	for(int i = 0; i < 8; i++)
	{
		if(byte & (1 << i)){
    35fc:	ac 01       	movw	r20, r24
    35fe:	02 2e       	mov	r0, r18
    3600:	02 c0       	rjmp	.+4      	; 0x3606 <TransmitByte_Reverse+0x3e>
    3602:	55 95       	asr	r21
    3604:	47 95       	ror	r20
    3606:	0a 94       	dec	r0
    3608:	e2 f7       	brpl	.-8      	; 0x3602 <TransmitByte_Reverse+0x3a>
    360a:	40 ff       	sbrs	r20, 0
    360c:	02 c0       	rjmp	.+4      	; 0x3612 <TransmitByte_Reverse+0x4a>
			str[i] = '1';
    360e:	60 83       	st	Z, r22
    3610:	01 c0       	rjmp	.+2      	; 0x3614 <TransmitByte_Reverse+0x4c>
		}
		else{
			str[i] = '0';
    3612:	70 83       	st	Z, r23

void TransmitByte_Reverse(uint8_t byte)
{
	char str[] = "00000000";
	
	for(int i = 0; i < 8; i++)
    3614:	2f 5f       	subi	r18, 0xFF	; 255
    3616:	3f 4f       	sbci	r19, 0xFF	; 255
    3618:	31 96       	adiw	r30, 0x01	; 1
    361a:	28 30       	cpi	r18, 0x08	; 8
    361c:	31 05       	cpc	r19, r1
    361e:	71 f7       	brne	.-36     	; 0x35fc <TransmitByte_Reverse+0x34>
// String auf Interface ausgeben
// -------------------------------------------------------------

void TransmitString(char *string)
{
    UART0TransmitString(string);
    3620:	ce 01       	movw	r24, r28
    3622:	01 96       	adiw	r24, 0x01	; 1
    3624:	f7 d4       	rcall	.+2542   	; 0x4014 <UART0TransmitString>
	}
	

	//send
	TransmitString(str);
    3626:	29 96       	adiw	r28, 0x09	; 9
    3628:	0f b6       	in	r0, 0x3f	; 63
    362a:	f8 94       	cli
    362c:	de bf       	out	0x3e, r29	; 62
    362e:	0f be       	out	0x3f, r0	; 63
    3630:	cd bf       	out	0x3d, r28	; 61
    3632:	df 91       	pop	r29
    3634:	cf 91       	pop	r28
    3636:	08 95       	ret

00003638 <TerminalInit>:
//////////////////////////////////////////////////////////////////////////////////

void TerminalInit()
{
    //UART (USB)
    UART0Init();
    3638:	4f d4       	rcall	.+2206   	; 0x3ed8 <UART0Init>

    len = 0;
    363a:	10 92 b9 05 	sts	0x05B9, r1	; 0x8005b9 <len>
    363e:	08 95       	ret

00003640 <TerminalParseCommand>:
//////////////////////////////////////////////////////////////////////////////////
//							Search witch Command								//
//////////////////////////////////////////////////////////////////////////////////

void TerminalParseCommand(char *string)
{
    3640:	0f 93       	push	r16
    3642:	1f 93       	push	r17
    3644:	cf 93       	push	r28
    3646:	df 93       	push	r29
    3648:	cd b7       	in	r28, 0x3d	; 61
    364a:	de b7       	in	r29, 0x3e	; 62
    364c:	2f 97       	sbiw	r28, 0x0f	; 15
    364e:	0f b6       	in	r0, 0x3f	; 63
    3650:	f8 94       	cli
    3652:	de bf       	out	0x3e, r29	; 62
    3654:	0f be       	out	0x3f, r0	; 63
    3656:	cd bf       	out	0x3d, r28	; 61
    3658:	8c 01       	movw	r16, r24
	uint16_t cmd = _MK16(string[1],string[2]);
    365a:	fc 01       	movw	r30, r24
    365c:	32 81       	ldd	r19, Z+2	; 0x02
    365e:	81 81       	ldd	r24, Z+1	; 0x01
	int8_t slotNr = 0;
	uint8_t temp8 = 0;
    3660:	19 82       	std	Y+1, r1	; 0x01
	int16_t temp16 = 0;
    3662:	1b 82       	std	Y+3, r1	; 0x03
    3664:	1a 82       	std	Y+2, r1	; 0x02
	int32_t temp32 = 0;
    3666:	1c 82       	std	Y+4, r1	; 0x04
    3668:	1d 82       	std	Y+5, r1	; 0x05
    366a:	1e 82       	std	Y+6, r1	; 0x06
    366c:	1f 82       	std	Y+7, r1	; 0x07
	//									RESET
	//***************************************************************************
	
	#pragma region Reset
	
	if (string[0] == 'R')
    366e:	20 81       	ld	r18, Z
    3670:	22 35       	cpi	r18, 0x52	; 82
    3672:	09 f0       	breq	.+2      	; 0x3676 <TerminalParseCommand+0x36>
    3674:	3a c0       	rjmp	.+116    	; 0x36ea <TerminalParseCommand+0xaa>
	{
		//If RST,'reset' command
		if (string[1] == 'S' && string[2] == 'T' && string[3] == '\n')
    3676:	83 35       	cpi	r24, 0x53	; 83
    3678:	09 f0       	breq	.+2      	; 0x367c <TerminalParseCommand+0x3c>
    367a:	47 c3       	rjmp	.+1678   	; 0x3d0a <TerminalParseCommand+0x6ca>
    367c:	34 35       	cpi	r19, 0x54	; 84
    367e:	09 f0       	breq	.+2      	; 0x3682 <TerminalParseCommand+0x42>
    3680:	44 c3       	rjmp	.+1672   	; 0x3d0a <TerminalParseCommand+0x6ca>
    3682:	83 81       	ldd	r24, Z+3	; 0x03
    3684:	8a 30       	cpi	r24, 0x0A	; 10
    3686:	81 f4       	brne	.+32     	; 0x36a8 <TerminalParseCommand+0x68>
		{
			current_source_enabled = 0;
    3688:	10 92 8c 05 	sts	0x058C, r1	; 0x80058c <current_source_enabled>
				
			TransmitStringLn("reboot");
    368c:	82 e1       	ldi	r24, 0x12	; 18
    368e:	93 e0       	ldi	r25, 0x03	; 3
    3690:	c9 dd       	rcall	.-1134   	; 0x3224 <TransmitStringLn>
				: "r0"
		);
	}
	else
	{
		__asm__ __volatile__ (
    3692:	98 e0       	ldi	r25, 0x08	; 8
    3694:	88 e1       	ldi	r24, 0x18	; 24
    3696:	0f b6       	in	r0, 0x3f	; 63
    3698:	f8 94       	cli
    369a:	a8 95       	wdr
    369c:	80 93 60 00 	sts	0x0060, r24	; 0x800060 <__TEXT_REGION_LENGTH__+0x700060>
    36a0:	0f be       	out	0x3f, r0	; 63
    36a2:	90 93 60 00 	sts	0x0060, r25	; 0x800060 <__TEXT_REGION_LENGTH__+0x700060>
    36a6:	ff cf       	rjmp	.-2      	; 0x36a6 <TerminalParseCommand+0x66>
			wdt_enable(WDTO_15MS);
			while(1);
		}

		//If RST,'reset' command with factory defaults
		else if (string[1] == 'S' && string[2] == 'T' && string[3] == ' ' && string[4] == '1' && string[5] == '\n')
    36a8:	80 32       	cpi	r24, 0x20	; 32
    36aa:	09 f0       	breq	.+2      	; 0x36ae <TerminalParseCommand+0x6e>
    36ac:	2e c3       	rjmp	.+1628   	; 0x3d0a <TerminalParseCommand+0x6ca>
    36ae:	f8 01       	movw	r30, r16
    36b0:	84 81       	ldd	r24, Z+4	; 0x04
    36b2:	81 33       	cpi	r24, 0x31	; 49
    36b4:	09 f0       	breq	.+2      	; 0x36b8 <TerminalParseCommand+0x78>
    36b6:	29 c3       	rjmp	.+1618   	; 0x3d0a <TerminalParseCommand+0x6ca>
    36b8:	85 81       	ldd	r24, Z+5	; 0x05
    36ba:	8a 30       	cpi	r24, 0x0A	; 10
    36bc:	09 f0       	breq	.+2      	; 0x36c0 <TerminalParseCommand+0x80>
    36be:	25 c3       	rjmp	.+1610   	; 0x3d0a <TerminalParseCommand+0x6ca>
		{
			current_source_enabled = 0;
    36c0:	10 92 8c 05 	sts	0x058C, r1	; 0x80058c <current_source_enabled>

			eeprom_write_word(&firmware_code_eeprom, 0xFFFF);
    36c4:	6f ef       	ldi	r22, 0xFF	; 255
    36c6:	7f ef       	ldi	r23, 0xFF	; 255
    36c8:	85 e4       	ldi	r24, 0x45	; 69
    36ca:	90 e0       	ldi	r25, 0x00	; 0
    36cc:	fe d7       	rcall	.+4092   	; 0x46ca <eeprom_write_word>
				
			TransmitStringLn("factory reset");
    36ce:	89 e1       	ldi	r24, 0x19	; 25
    36d0:	93 e0       	ldi	r25, 0x03	; 3
    36d2:	a8 dd       	rcall	.-1200   	; 0x3224 <TransmitStringLn>
    36d4:	98 e0       	ldi	r25, 0x08	; 8
    36d6:	88 e1       	ldi	r24, 0x18	; 24
    36d8:	0f b6       	in	r0, 0x3f	; 63
    36da:	f8 94       	cli
    36dc:	a8 95       	wdr
    36de:	80 93 60 00 	sts	0x0060, r24	; 0x800060 <__TEXT_REGION_LENGTH__+0x700060>
    36e2:	0f be       	out	0x3f, r0	; 63
    36e4:	90 93 60 00 	sts	0x0060, r25	; 0x800060 <__TEXT_REGION_LENGTH__+0x700060>
    36e8:	ff cf       	rjmp	.-2      	; 0x36e8 <TerminalParseCommand+0xa8>
//							Search witch Command								//
//////////////////////////////////////////////////////////////////////////////////

void TerminalParseCommand(char *string)
{
	uint16_t cmd = _MK16(string[1],string[2]);
    36ea:	90 e0       	ldi	r25, 0x00	; 0
    36ec:	93 2b       	or	r25, r19
	//									SET
	//***************************************************************************

	#pragma region Set

	else if (string[0] == 'S')
    36ee:	23 35       	cpi	r18, 0x53	; 83
    36f0:	09 f0       	breq	.+2      	; 0x36f4 <TerminalParseCommand+0xb4>
    36f2:	35 c2       	rjmp	.+1130   	; 0x3b5e <TerminalParseCommand+0x51e>
	{
		//Must executed here, later no chance, before not safe
		slotNr = string[3] - '0';
    36f4:	f8 01       	movw	r30, r16
    36f6:	23 81       	ldd	r18, Z+3	; 0x03
		//Set-Commands, that apply for all 19''-Cards (Definition: Space @ 3 character)
		//*****************************************************************************
		
		#pragma region General_Set_Commands
		
		if(string[3] == ' '){
    36f8:	20 32       	cpi	r18, 0x20	; 32
    36fa:	09 f0       	breq	.+2      	; 0x36fe <TerminalParseCommand+0xbe>
    36fc:	fd c1       	rjmp	.+1018   	; 0x3af8 <TerminalParseCommand+0x4b8>
			
			//Check the second two characters
			switch (cmd){
    36fe:	80 35       	cpi	r24, 0x50	; 80
    3700:	f2 e5       	ldi	r31, 0x52	; 82
    3702:	9f 07       	cpc	r25, r31
    3704:	09 f4       	brne	.+2      	; 0x3708 <TerminalParseCommand+0xc8>
    3706:	99 c1       	rjmp	.+818    	; 0x3a3a <TerminalParseCommand+0x3fa>
    3708:	c8 f4       	brcc	.+50     	; 0x373c <TerminalParseCommand+0xfc>
    370a:	85 34       	cpi	r24, 0x45	; 69
    370c:	ee e4       	ldi	r30, 0x4E	; 78
    370e:	9e 07       	cpc	r25, r30
    3710:	71 f1       	breq	.+92     	; 0x376e <TerminalParseCommand+0x12e>
    3712:	50 f4       	brcc	.+20     	; 0x3728 <TerminalParseCommand+0xe8>
    3714:	8e 34       	cpi	r24, 0x4E	; 78
    3716:	24 e4       	ldi	r18, 0x44	; 68
    3718:	92 07       	cpc	r25, r18
    371a:	09 f4       	brne	.+2      	; 0x371e <TerminalParseCommand+0xde>
    371c:	37 c1       	rjmp	.+622    	; 0x398c <TerminalParseCommand+0x34c>
    371e:	84 35       	cpi	r24, 0x54	; 84
    3720:	94 44       	sbci	r25, 0x44	; 68
    3722:	09 f4       	brne	.+2      	; 0x3726 <TerminalParseCommand+0xe6>
    3724:	5e c1       	rjmp	.+700    	; 0x39e2 <TerminalParseCommand+0x3a2>
    3726:	e4 c1       	rjmp	.+968    	; 0x3af0 <TerminalParseCommand+0x4b0>
    3728:	88 34       	cpi	r24, 0x48	; 72
    372a:	f0 e5       	ldi	r31, 0x50	; 80
    372c:	9f 07       	cpc	r25, r31
    372e:	09 f4       	brne	.+2      	; 0x3732 <TerminalParseCommand+0xf2>
    3730:	ad c0       	rjmp	.+346    	; 0x388c <TerminalParseCommand+0x24c>
    3732:	8d 34       	cpi	r24, 0x4D	; 77
    3734:	90 45       	sbci	r25, 0x50	; 80
    3736:	09 f4       	brne	.+2      	; 0x373a <TerminalParseCommand+0xfa>
    3738:	e9 c0       	rjmp	.+466    	; 0x390c <TerminalParseCommand+0x2cc>
    373a:	da c1       	rjmp	.+948    	; 0x3af0 <TerminalParseCommand+0x4b0>
    373c:	80 35       	cpi	r24, 0x50	; 80
    373e:	e3 e5       	ldi	r30, 0x53	; 83
    3740:	9e 07       	cpc	r25, r30
    3742:	b1 f1       	breq	.+108    	; 0x37b0 <TerminalParseCommand+0x170>
    3744:	50 f4       	brcc	.+20     	; 0x375a <TerminalParseCommand+0x11a>
    3746:	84 34       	cpi	r24, 0x44	; 68
    3748:	23 e5       	ldi	r18, 0x53	; 83
    374a:	92 07       	cpc	r25, r18
    374c:	09 f4       	brne	.+2      	; 0x3750 <TerminalParseCommand+0x110>
    374e:	66 c0       	rjmp	.+204    	; 0x381c <TerminalParseCommand+0x1dc>
    3750:	8d 34       	cpi	r24, 0x4D	; 77
    3752:	93 45       	sbci	r25, 0x53	; 83
    3754:	09 f4       	brne	.+2      	; 0x3758 <TerminalParseCommand+0x118>
    3756:	7e c0       	rjmp	.+252    	; 0x3854 <TerminalParseCommand+0x214>
    3758:	cb c1       	rjmp	.+918    	; 0x3af0 <TerminalParseCommand+0x4b0>
    375a:	83 35       	cpi	r24, 0x53	; 83
    375c:	f3 e5       	ldi	r31, 0x53	; 83
    375e:	9f 07       	cpc	r25, r31
    3760:	09 f4       	brne	.+2      	; 0x3764 <TerminalParseCommand+0x124>
    3762:	41 c0       	rjmp	.+130    	; 0x37e6 <TerminalParseCommand+0x1a6>
    3764:	83 34       	cpi	r24, 0x43	; 67
    3766:	94 45       	sbci	r25, 0x54	; 84
    3768:	09 f4       	brne	.+2      	; 0x376c <TerminalParseCommand+0x12c>
    376a:	8f c1       	rjmp	.+798    	; 0x3a8a <TerminalParseCommand+0x44a>
    376c:	c1 c1       	rjmp	.+898    	; 0x3af0 <TerminalParseCommand+0x4b0>
			
				//1. Enable************************************************************
				#pragma region 1.Enable		
				case _MK16('E','N'):
				
					if (string[4] == '1' && string[5] == '\n')
    376e:	f8 01       	movw	r30, r16
    3770:	84 81       	ldd	r24, Z+4	; 0x04
    3772:	81 33       	cpi	r24, 0x31	; 49
    3774:	59 f4       	brne	.+22     	; 0x378c <TerminalParseCommand+0x14c>
    3776:	85 81       	ldd	r24, Z+5	; 0x05
    3778:	8a 30       	cpi	r24, 0x0A	; 10
    377a:	b1 f4       	brne	.+44     	; 0x37a8 <TerminalParseCommand+0x168>
					{
						current_source_enabled = 1;
    377c:	81 e0       	ldi	r24, 0x01	; 1
    377e:	80 93 8c 05 	sts	0x058C, r24	; 0x80058c <current_source_enabled>
						set_bit(ENABLE);
    3782:	72 9a       	sbi	0x0e, 2	; 14

						TransmitStringLn("SEN=1");
    3784:	87 e2       	ldi	r24, 0x27	; 39
    3786:	93 e0       	ldi	r25, 0x03	; 3
    3788:	4d dd       	rcall	.-1382   	; 0x3224 <TransmitStringLn>
    378a:	bf c2       	rjmp	.+1406   	; 0x3d0a <TerminalParseCommand+0x6ca>
					}
					else if (string[4] == '0' && string[5] == '\n')
    378c:	80 33       	cpi	r24, 0x30	; 48
    378e:	61 f4       	brne	.+24     	; 0x37a8 <TerminalParseCommand+0x168>
    3790:	f8 01       	movw	r30, r16
    3792:	85 81       	ldd	r24, Z+5	; 0x05
    3794:	8a 30       	cpi	r24, 0x0A	; 10
					{
						current_source_enabled = 0;
    3796:	41 f4       	brne	.+16     	; 0x37a8 <TerminalParseCommand+0x168>
    3798:	10 92 8c 05 	sts	0x058C, r1	; 0x80058c <current_source_enabled>
						PulseStop();
    379c:	46 d8       	rcall	.-3956   	; 0x282a <PulseStop>
						clear_bit(ENABLE);

						TransmitStringLn("SEN=0");
    379e:	72 98       	cbi	0x0e, 2	; 14
    37a0:	8d e2       	ldi	r24, 0x2D	; 45
    37a2:	93 e0       	ldi	r25, 0x03	; 3
    37a4:	3f dd       	rcall	.-1410   	; 0x3224 <TransmitStringLn>
					}
					else
					{
						//no number
						TransmitStringLn("FORMAT ERR");
    37a6:	b1 c2       	rjmp	.+1378   	; 0x3d0a <TerminalParseCommand+0x6ca>
    37a8:	87 e1       	ldi	r24, 0x17	; 23
    37aa:	92 e0       	ldi	r25, 0x02	; 2
    37ac:	3b dd       	rcall	.-1418   	; 0x3224 <TransmitStringLn>
    37ae:	ad c2       	rjmp	.+1370   	; 0x3d0a <TerminalParseCommand+0x6ca>
				//2. Start pulses******************************************************
				#pragma region 2.PulseStarten
				//2.1 Start Standard TTA			
				case _MK16('P','S'):
				
					if (string[4] == '1' && string[5] == '\n')
    37b0:	f8 01       	movw	r30, r16
    37b2:	84 81       	ldd	r24, Z+4	; 0x04
    37b4:	81 33       	cpi	r24, 0x31	; 49
    37b6:	41 f4       	brne	.+16     	; 0x37c8 <TerminalParseCommand+0x188>
    37b8:	85 81       	ldd	r24, Z+5	; 0x05
					{
						PulseStart_stdTTA();
    37ba:	8a 30       	cpi	r24, 0x0A	; 10
    37bc:	81 f4       	brne	.+32     	; 0x37de <TerminalParseCommand+0x19e>

						TransmitStringLn("SPS=1");
    37be:	c5 d8       	rcall	.-3702   	; 0x294a <PulseStart_stdTTA>
    37c0:	83 e3       	ldi	r24, 0x33	; 51
    37c2:	93 e0       	ldi	r25, 0x03	; 3
    37c4:	2f dd       	rcall	.-1442   	; 0x3224 <TransmitStringLn>
					}
					else if (string[4] == '0' && string[5] == '\n')
    37c6:	a1 c2       	rjmp	.+1346   	; 0x3d0a <TerminalParseCommand+0x6ca>
    37c8:	80 33       	cpi	r24, 0x30	; 48
    37ca:	49 f4       	brne	.+18     	; 0x37de <TerminalParseCommand+0x19e>
    37cc:	f8 01       	movw	r30, r16
    37ce:	85 81       	ldd	r24, Z+5	; 0x05
					{
						PulseStop();
    37d0:	8a 30       	cpi	r24, 0x0A	; 10

						TransmitStringLn("SPS=0");
    37d2:	29 f4       	brne	.+10     	; 0x37de <TerminalParseCommand+0x19e>
    37d4:	2a d8       	rcall	.-4012   	; 0x282a <PulseStop>
    37d6:	89 e3       	ldi	r24, 0x39	; 57
    37d8:	93 e0       	ldi	r25, 0x03	; 3
    37da:	24 dd       	rcall	.-1464   	; 0x3224 <TransmitStringLn>
					}
					else
					{
						//no number
						TransmitStringLn("FORMAT ERR");
    37dc:	96 c2       	rjmp	.+1324   	; 0x3d0a <TerminalParseCommand+0x6ca>
    37de:	87 e1       	ldi	r24, 0x17	; 23
    37e0:	92 e0       	ldi	r25, 0x02	; 2
    37e2:	20 dd       	rcall	.-1472   	; 0x3224 <TransmitStringLn>
					break;
					
				//2.2 Start Sensitivity
				case _MK16('S','S'):
					
					if (string[4] == '1' && string[5] == '\n')
    37e4:	92 c2       	rjmp	.+1316   	; 0x3d0a <TerminalParseCommand+0x6ca>
    37e6:	f8 01       	movw	r30, r16
    37e8:	84 81       	ldd	r24, Z+4	; 0x04
    37ea:	81 33       	cpi	r24, 0x31	; 49
    37ec:	41 f4       	brne	.+16     	; 0x37fe <TerminalParseCommand+0x1be>
    37ee:	85 81       	ldd	r24, Z+5	; 0x05
					{
						PulseStart_Sensitivity();
    37f0:	8a 30       	cpi	r24, 0x0A	; 10

						TransmitStringLn("SSS=1");
    37f2:	81 f4       	brne	.+32     	; 0x3814 <TerminalParseCommand+0x1d4>
    37f4:	ca d8       	rcall	.-3692   	; 0x298a <PulseStart_Sensitivity>
    37f6:	8f e3       	ldi	r24, 0x3F	; 63
    37f8:	93 e0       	ldi	r25, 0x03	; 3
					}
					else if (string[4] == '0' && string[5] == '\n')
    37fa:	14 dd       	rcall	.-1496   	; 0x3224 <TransmitStringLn>
    37fc:	86 c2       	rjmp	.+1292   	; 0x3d0a <TerminalParseCommand+0x6ca>
    37fe:	80 33       	cpi	r24, 0x30	; 48
    3800:	49 f4       	brne	.+18     	; 0x3814 <TerminalParseCommand+0x1d4>
    3802:	f8 01       	movw	r30, r16
					{
						PulseStop();
    3804:	85 81       	ldd	r24, Z+5	; 0x05
    3806:	8a 30       	cpi	r24, 0x0A	; 10

						TransmitStringLn("SSS=0");
    3808:	29 f4       	brne	.+10     	; 0x3814 <TerminalParseCommand+0x1d4>
    380a:	0f d8       	rcall	.-4066   	; 0x282a <PulseStop>
    380c:	85 e4       	ldi	r24, 0x45	; 69
    380e:	93 e0       	ldi	r25, 0x03	; 3
    3810:	09 dd       	rcall	.-1518   	; 0x3224 <TransmitStringLn>
					}
					else
					{
						//no number
						TransmitStringLn("FORMAT ERR");
    3812:	7b c2       	rjmp	.+1270   	; 0x3d0a <TerminalParseCommand+0x6ca>
    3814:	87 e1       	ldi	r24, 0x17	; 23
    3816:	92 e0       	ldi	r25, 0x02	; 2
					break;
					
				//2.3 Start deterministic Pulse
				case _MK16('D','S'):
					
					if (string[4] == '1' && string[5] == '\n')
    3818:	05 dd       	rcall	.-1526   	; 0x3224 <TransmitStringLn>
    381a:	77 c2       	rjmp	.+1262   	; 0x3d0a <TerminalParseCommand+0x6ca>
    381c:	f8 01       	movw	r30, r16
    381e:	84 81       	ldd	r24, Z+4	; 0x04
    3820:	81 33       	cpi	r24, 0x31	; 49
    3822:	41 f4       	brne	.+16     	; 0x3834 <TerminalParseCommand+0x1f4>
    3824:	85 81       	ldd	r24, Z+5	; 0x05
					{
						TransmitStringLn("SDS=1");
    3826:	8a 30       	cpi	r24, 0x0A	; 10
    3828:	89 f4       	brne	.+34     	; 0x384c <TerminalParseCommand+0x20c>
    382a:	8b e4       	ldi	r24, 0x4B	; 75
						PulseStart_DPA_TTA();
    382c:	93 e0       	ldi	r25, 0x03	; 3
    382e:	fa dc       	rcall	.-1548   	; 0x3224 <TransmitStringLn>
						//PulseStart_DPA_TTA_HighStart();
					}
					else if (string[4] == '0' && string[5] == '\n')
    3830:	b2 d8       	rcall	.-3740   	; 0x2996 <PulseStart_DPA_TTA>
    3832:	6b c2       	rjmp	.+1238   	; 0x3d0a <TerminalParseCommand+0x6ca>
    3834:	80 33       	cpi	r24, 0x30	; 48
    3836:	51 f4       	brne	.+20     	; 0x384c <TerminalParseCommand+0x20c>
    3838:	f8 01       	movw	r30, r16
    383a:	85 81       	ldd	r24, Z+5	; 0x05
					{
						PulseStop();
    383c:	8a 30       	cpi	r24, 0x0A	; 10
    383e:	31 f4       	brne	.+12     	; 0x384c <TerminalParseCommand+0x20c>

						TransmitStringLn("SDS=0");
    3840:	0e 94 15 14 	call	0x282a	; 0x282a <PulseStop>
    3844:	81 e5       	ldi	r24, 0x51	; 81
					}
					else
					{
						//no number
						TransmitStringLn("FORMAT ERR");
    3846:	93 e0       	ldi	r25, 0x03	; 3
    3848:	ed dc       	rcall	.-1574   	; 0x3224 <TransmitStringLn>
    384a:	5f c2       	rjmp	.+1214   	; 0x3d0a <TerminalParseCommand+0x6ca>
    384c:	87 e1       	ldi	r24, 0x17	; 23
    384e:	92 e0       	ldi	r25, 0x02	; 2
					break;
					
				//2.4 Pre-pulse to get V(Sense, 25°C)
				case _MK16('M','S'):
									
					if (string[4] == '1' && string[5] == '\n')
    3850:	e9 dc       	rcall	.-1582   	; 0x3224 <TransmitStringLn>
    3852:	5b c2       	rjmp	.+1206   	; 0x3d0a <TerminalParseCommand+0x6ca>
    3854:	f8 01       	movw	r30, r16
    3856:	84 81       	ldd	r24, Z+4	; 0x04
    3858:	81 33       	cpi	r24, 0x31	; 49
    385a:	41 f4       	brne	.+16     	; 0x386c <TerminalParseCommand+0x22c>
					{
						TransmitStringLn("SMS=1");
    385c:	85 81       	ldd	r24, Z+5	; 0x05
    385e:	8a 30       	cpi	r24, 0x0A	; 10
    3860:	89 f4       	brne	.+34     	; 0x3884 <TerminalParseCommand+0x244>
							
						PulseStart_PrePulse();
    3862:	87 e5       	ldi	r24, 0x57	; 87
    3864:	93 e0       	ldi	r25, 0x03	; 3
    3866:	de dc       	rcall	.-1604   	; 0x3224 <TransmitStringLn>
					}
					else if (string[4] == '0' && string[5] == '\n')
    3868:	b2 d8       	rcall	.-3740   	; 0x29ce <PulseStart_PrePulse>
    386a:	4f c2       	rjmp	.+1182   	; 0x3d0a <TerminalParseCommand+0x6ca>
    386c:	80 33       	cpi	r24, 0x30	; 48
    386e:	51 f4       	brne	.+20     	; 0x3884 <TerminalParseCommand+0x244>
    3870:	f8 01       	movw	r30, r16
					{
						PulseStop();
    3872:	85 81       	ldd	r24, Z+5	; 0x05
    3874:	8a 30       	cpi	r24, 0x0A	; 10

						TransmitStringLn("SMS=0");
    3876:	31 f4       	brne	.+12     	; 0x3884 <TerminalParseCommand+0x244>
    3878:	0e 94 15 14 	call	0x282a	; 0x282a <PulseStop>
    387c:	8d e5       	ldi	r24, 0x5D	; 93
					}
					else
					{
						//no number
						TransmitStringLn("FORMAT ERR");
    387e:	93 e0       	ldi	r25, 0x03	; 3
    3880:	d1 dc       	rcall	.-1630   	; 0x3224 <TransmitStringLn>
    3882:	43 c2       	rjmp	.+1158   	; 0x3d0a <TerminalParseCommand+0x6ca>
    3884:	87 e1       	ldi	r24, 0x17	; 23
    3886:	92 e0       	ldi	r25, 0x02	; 2
				//3. Puls settings*****************************************************
				#pragma region 3.Puls-settings
				//3.1 Set Heat Pulse Length
				case _MK16('H','P'):
			
					if (!ParseLongLn(&string[4],6,&temp32))
    3888:	cd dc       	rcall	.-1638   	; 0x3224 <TransmitStringLn>
    388a:	3f c2       	rjmp	.+1150   	; 0x3d0a <TerminalParseCommand+0x6ca>
    388c:	ae 01       	movw	r20, r28
    388e:	4c 5f       	subi	r20, 0xFC	; 252
    3890:	5f 4f       	sbci	r21, 0xFF	; 255
    3892:	66 e0       	ldi	r22, 0x06	; 6
    3894:	c8 01       	movw	r24, r16
    3896:	04 96       	adiw	r24, 0x04	; 4
    3898:	05 dc       	rcall	.-2038   	; 0x30a4 <ParseLongLn>
    389a:	81 11       	cpse	r24, r1
					{
						//no number
						TransmitStringLn("FORMAT ERR");
    389c:	04 c0       	rjmp	.+8      	; 0x38a6 <TerminalParseCommand+0x266>
    389e:	87 e1       	ldi	r24, 0x17	; 23
    38a0:	92 e0       	ldi	r25, 0x02	; 2
    38a2:	c0 dc       	rcall	.-1664   	; 0x3224 <TransmitStringLn>
					}
					else if ((temp32 > 120000 || temp32 < 25) && temp32 != 0)
    38a4:	32 c2       	rjmp	.+1124   	; 0x3d0a <TerminalParseCommand+0x6ca>
    38a6:	8c 81       	ldd	r24, Y+4	; 0x04
    38a8:	9d 81       	ldd	r25, Y+5	; 0x05
    38aa:	ae 81       	ldd	r26, Y+6	; 0x06
    38ac:	bf 81       	ldd	r27, Y+7	; 0x07
    38ae:	ac 01       	movw	r20, r24
    38b0:	bd 01       	movw	r22, r26
    38b2:	49 51       	subi	r20, 0x19	; 25
    38b4:	51 09       	sbc	r21, r1
    38b6:	61 09       	sbc	r22, r1
    38b8:	71 09       	sbc	r23, r1
    38ba:	48 3a       	cpi	r20, 0xA8	; 168
    38bc:	54 4d       	sbci	r21, 0xD4	; 212
    38be:	61 40       	sbci	r22, 0x01	; 1
    38c0:	71 05       	cpc	r23, r1
    38c2:	40 f0       	brcs	.+16     	; 0x38d4 <TerminalParseCommand+0x294>
					{
						//new length not between 25ms and 120s
						TransmitStringLn("NUMBER ERR");
    38c4:	89 2b       	or	r24, r25
    38c6:	8a 2b       	or	r24, r26
    38c8:	8b 2b       	or	r24, r27
    38ca:	21 f0       	breq	.+8      	; 0x38d4 <TerminalParseCommand+0x294>
    38cc:	86 e2       	ldi	r24, 0x26	; 38
					}
					else
					{
						TransmitString("SHP=");
    38ce:	92 e0       	ldi	r25, 0x02	; 2
    38d0:	a9 dc       	rcall	.-1710   	; 0x3224 <TransmitStringLn>
    38d2:	1b c2       	rjmp	.+1078   	; 0x3d0a <TerminalParseCommand+0x6ca>
						TransmitLong(temp32, 1);
    38d4:	83 e6       	ldi	r24, 0x63	; 99
    38d6:	93 e0       	ldi	r25, 0x03	; 3
    38d8:	a3 dc       	rcall	.-1722   	; 0x3220 <TransmitString>
    38da:	6c 81       	ldd	r22, Y+4	; 0x04
    38dc:	7d 81       	ldd	r23, Y+5	; 0x05
    38de:	8e 81       	ldd	r24, Y+6	; 0x06
						TransmitStringLn(" ms");
    38e0:	9f 81       	ldd	r25, Y+7	; 0x07
    38e2:	41 e0       	ldi	r20, 0x01	; 1
    38e4:	06 dd       	rcall	.-1524   	; 0x32f2 <TransmitLong>
    38e6:	88 e6       	ldi	r24, 0x68	; 104

						heat_pulse_length = temp32;
    38e8:	93 e0       	ldi	r25, 0x03	; 3
    38ea:	9c dc       	rcall	.-1736   	; 0x3224 <TransmitStringLn>
    38ec:	4c 81       	ldd	r20, Y+4	; 0x04
    38ee:	5d 81       	ldd	r21, Y+5	; 0x05
    38f0:	6e 81       	ldd	r22, Y+6	; 0x06
    38f2:	7f 81       	ldd	r23, Y+7	; 0x07
    38f4:	40 93 72 05 	sts	0x0572, r20	; 0x800572 <heat_pulse_length>
    38f8:	50 93 73 05 	sts	0x0573, r21	; 0x800573 <heat_pulse_length+0x1>
    38fc:	60 93 74 05 	sts	0x0574, r22	; 0x800574 <heat_pulse_length+0x2>
						eeprom_write_dword(&heat_pulse_length_eeprom,temp32);
    3900:	70 93 75 05 	sts	0x0575, r23	; 0x800575 <heat_pulse_length+0x3>
    3904:	88 e0       	ldi	r24, 0x08	; 8
    3906:	90 e0       	ldi	r25, 0x00	; 0
					break;

				//3.2 Set Measurement Pulse Length
				case _MK16('M','P'):
			
					if (!ParseLongLn(&string[4],6,&temp32))
    3908:	db d6       	rcall	.+3510   	; 0x46c0 <eeprom_write_dword>
    390a:	ff c1       	rjmp	.+1022   	; 0x3d0a <TerminalParseCommand+0x6ca>
    390c:	ae 01       	movw	r20, r28
    390e:	4c 5f       	subi	r20, 0xFC	; 252
    3910:	5f 4f       	sbci	r21, 0xFF	; 255
    3912:	66 e0       	ldi	r22, 0x06	; 6
    3914:	c8 01       	movw	r24, r16
    3916:	04 96       	adiw	r24, 0x04	; 4
    3918:	c5 db       	rcall	.-2166   	; 0x30a4 <ParseLongLn>
					{
						//no number
						TransmitStringLn("FORMAT ERR");
    391a:	81 11       	cpse	r24, r1
    391c:	04 c0       	rjmp	.+8      	; 0x3926 <TerminalParseCommand+0x2e6>
    391e:	87 e1       	ldi	r24, 0x17	; 23
    3920:	92 e0       	ldi	r25, 0x02	; 2
					}
					else if ((temp32 > 120000 || temp32 < 25) && temp32 != 0)
    3922:	80 dc       	rcall	.-1792   	; 0x3224 <TransmitStringLn>
    3924:	f2 c1       	rjmp	.+996    	; 0x3d0a <TerminalParseCommand+0x6ca>
    3926:	8c 81       	ldd	r24, Y+4	; 0x04
    3928:	9d 81       	ldd	r25, Y+5	; 0x05
    392a:	ae 81       	ldd	r26, Y+6	; 0x06
    392c:	bf 81       	ldd	r27, Y+7	; 0x07
    392e:	ac 01       	movw	r20, r24
    3930:	bd 01       	movw	r22, r26
    3932:	49 51       	subi	r20, 0x19	; 25
    3934:	51 09       	sbc	r21, r1
    3936:	61 09       	sbc	r22, r1
    3938:	71 09       	sbc	r23, r1
    393a:	48 3a       	cpi	r20, 0xA8	; 168
    393c:	54 4d       	sbci	r21, 0xD4	; 212
    393e:	61 40       	sbci	r22, 0x01	; 1
    3940:	71 05       	cpc	r23, r1
    3942:	40 f0       	brcs	.+16     	; 0x3954 <TerminalParseCommand+0x314>
					{
						//new length not between 25ms and 120s
						TransmitStringLn("NUMBER ERR");
    3944:	89 2b       	or	r24, r25
    3946:	8a 2b       	or	r24, r26
    3948:	8b 2b       	or	r24, r27
    394a:	21 f0       	breq	.+8      	; 0x3954 <TerminalParseCommand+0x314>
					}
					else
					{
						TransmitString("SMP=");
    394c:	86 e2       	ldi	r24, 0x26	; 38
    394e:	92 e0       	ldi	r25, 0x02	; 2
    3950:	69 dc       	rcall	.-1838   	; 0x3224 <TransmitStringLn>
						TransmitLong(temp32, 1);
    3952:	db c1       	rjmp	.+950    	; 0x3d0a <TerminalParseCommand+0x6ca>
    3954:	8c e6       	ldi	r24, 0x6C	; 108
    3956:	93 e0       	ldi	r25, 0x03	; 3
    3958:	63 dc       	rcall	.-1850   	; 0x3220 <TransmitString>
    395a:	6c 81       	ldd	r22, Y+4	; 0x04
    395c:	7d 81       	ldd	r23, Y+5	; 0x05
						TransmitStringLn(" ms");
    395e:	8e 81       	ldd	r24, Y+6	; 0x06
    3960:	9f 81       	ldd	r25, Y+7	; 0x07
    3962:	41 e0       	ldi	r20, 0x01	; 1
    3964:	c6 dc       	rcall	.-1652   	; 0x32f2 <TransmitLong>

						measure_pulse_length = temp32;
    3966:	88 e6       	ldi	r24, 0x68	; 104
    3968:	93 e0       	ldi	r25, 0x03	; 3
    396a:	5c dc       	rcall	.-1864   	; 0x3224 <TransmitStringLn>
    396c:	4c 81       	ldd	r20, Y+4	; 0x04
    396e:	5d 81       	ldd	r21, Y+5	; 0x05
    3970:	6e 81       	ldd	r22, Y+6	; 0x06
    3972:	7f 81       	ldd	r23, Y+7	; 0x07
    3974:	40 93 88 05 	sts	0x0588, r20	; 0x800588 <measure_pulse_length>
    3978:	50 93 89 05 	sts	0x0589, r21	; 0x800589 <measure_pulse_length+0x1>
						eeprom_write_dword(&measure_pulse_length_eeprom,temp32);
    397c:	60 93 8a 05 	sts	0x058A, r22	; 0x80058a <measure_pulse_length+0x2>
    3980:	70 93 8b 05 	sts	0x058B, r23	; 0x80058b <measure_pulse_length+0x3>
					break;
					
				//3.3 Set Number of deterministic pulses
				case _MK16('N','D'):
									
					if (!ParseIntLn(&string[4],6,&temp16)) 
    3984:	84 e0       	ldi	r24, 0x04	; 4
    3986:	90 e0       	ldi	r25, 0x00	; 0
    3988:	9b d6       	rcall	.+3382   	; 0x46c0 <eeprom_write_dword>
    398a:	bf c1       	rjmp	.+894    	; 0x3d0a <TerminalParseCommand+0x6ca>
    398c:	ae 01       	movw	r20, r28
    398e:	4e 5f       	subi	r20, 0xFE	; 254
    3990:	5f 4f       	sbci	r21, 0xFF	; 255
    3992:	66 e0       	ldi	r22, 0x06	; 6
					{
						//no number
						TransmitStringLn("FORMAT ERR");
    3994:	c8 01       	movw	r24, r16
    3996:	04 96       	adiw	r24, 0x04	; 4
    3998:	10 db       	rcall	.-2528   	; 0x2fba <ParseIntLn>
    399a:	81 11       	cpse	r24, r1
					}
					else if ((temp16 > 1000 || temp16 < 1))
    399c:	04 c0       	rjmp	.+8      	; 0x39a6 <TerminalParseCommand+0x366>
    399e:	87 e1       	ldi	r24, 0x17	; 23
    39a0:	92 e0       	ldi	r25, 0x02	; 2
    39a2:	40 dc       	rcall	.-1920   	; 0x3224 <TransmitStringLn>
    39a4:	b2 c1       	rjmp	.+868    	; 0x3d0a <TerminalParseCommand+0x6ca>
					{
						//new length not between 25ms and 120s
						TransmitStringLn("NUMBER ERR");
    39a6:	8a 81       	ldd	r24, Y+2	; 0x02
    39a8:	9b 81       	ldd	r25, Y+3	; 0x03
    39aa:	01 97       	sbiw	r24, 0x01	; 1
    39ac:	88 3e       	cpi	r24, 0xE8	; 232
    39ae:	93 40       	sbci	r25, 0x03	; 3
					}
					else
					{
						TransmitString("SND=");
    39b0:	20 f0       	brcs	.+8      	; 0x39ba <TerminalParseCommand+0x37a>
    39b2:	86 e2       	ldi	r24, 0x26	; 38
    39b4:	92 e0       	ldi	r25, 0x02	; 2
						TransmitInt(temp16, 1);
    39b6:	36 dc       	rcall	.-1940   	; 0x3224 <TransmitStringLn>
    39b8:	a8 c1       	rjmp	.+848    	; 0x3d0a <TerminalParseCommand+0x6ca>
    39ba:	81 e7       	ldi	r24, 0x71	; 113
    39bc:	93 e0       	ldi	r25, 0x03	; 3
						TransmitStringLn(" pulses");
    39be:	30 dc       	rcall	.-1952   	; 0x3220 <TransmitString>
    39c0:	61 e0       	ldi	r22, 0x01	; 1
    39c2:	8a 81       	ldd	r24, Y+2	; 0x02

						deterministic_pulse_cycles = temp16;
    39c4:	9b 81       	ldd	r25, Y+3	; 0x03
    39c6:	30 dc       	rcall	.-1952   	; 0x3228 <TransmitInt>
    39c8:	86 e7       	ldi	r24, 0x76	; 118
    39ca:	93 e0       	ldi	r25, 0x03	; 3
    39cc:	2b dc       	rcall	.-1962   	; 0x3224 <TransmitStringLn>
						eeprom_write_word(&deterministic_pulse_cycles_eeprom,temp16);	
    39ce:	6a 81       	ldd	r22, Y+2	; 0x02
    39d0:	7b 81       	ldd	r23, Y+3	; 0x03
    39d2:	70 93 77 05 	sts	0x0577, r23	; 0x800577 <deterministic_pulse_cycles+0x1>
    39d6:	60 93 76 05 	sts	0x0576, r22	; 0x800576 <deterministic_pulse_cycles>
					break;
					
				//3.4 Set Length of deterministic pulses
				case _MK16('T','D'):
									
					if (!ParseIntLn(&string[4],6,&temp16))
    39da:	80 e0       	ldi	r24, 0x00	; 0
    39dc:	90 e0       	ldi	r25, 0x00	; 0
    39de:	75 d6       	rcall	.+3306   	; 0x46ca <eeprom_write_word>
    39e0:	94 c1       	rjmp	.+808    	; 0x3d0a <TerminalParseCommand+0x6ca>
    39e2:	ae 01       	movw	r20, r28
    39e4:	4e 5f       	subi	r20, 0xFE	; 254
    39e6:	5f 4f       	sbci	r21, 0xFF	; 255
    39e8:	66 e0       	ldi	r22, 0x06	; 6
					{
						//no number
						TransmitStringLn("FORMAT ERR");
    39ea:	c8 01       	movw	r24, r16
    39ec:	04 96       	adiw	r24, 0x04	; 4
    39ee:	e5 da       	rcall	.-2614   	; 0x2fba <ParseIntLn>
    39f0:	81 11       	cpse	r24, r1
					}
					else if ((temp16 > 1000 || temp16 < 1))
    39f2:	04 c0       	rjmp	.+8      	; 0x39fc <TerminalParseCommand+0x3bc>
    39f4:	87 e1       	ldi	r24, 0x17	; 23
    39f6:	92 e0       	ldi	r25, 0x02	; 2
    39f8:	15 dc       	rcall	.-2006   	; 0x3224 <TransmitStringLn>
    39fa:	87 c1       	rjmp	.+782    	; 0x3d0a <TerminalParseCommand+0x6ca>
					{
						//new length not between 25ms and 120s
						TransmitStringLn("NUMBER ERR");
    39fc:	8a 81       	ldd	r24, Y+2	; 0x02
    39fe:	9b 81       	ldd	r25, Y+3	; 0x03
    3a00:	01 97       	sbiw	r24, 0x01	; 1
    3a02:	88 3e       	cpi	r24, 0xE8	; 232
					}
					else
					{
						TransmitString("STD=");
    3a04:	93 40       	sbci	r25, 0x03	; 3
    3a06:	20 f0       	brcs	.+8      	; 0x3a10 <TerminalParseCommand+0x3d0>
    3a08:	86 e2       	ldi	r24, 0x26	; 38
						TransmitFloat(temp16, 1, 1);
    3a0a:	92 e0       	ldi	r25, 0x02	; 2
    3a0c:	0b dc       	rcall	.-2026   	; 0x3224 <TransmitStringLn>
    3a0e:	7d c1       	rjmp	.+762    	; 0x3d0a <TerminalParseCommand+0x6ca>
    3a10:	8e e7       	ldi	r24, 0x7E	; 126
						TransmitStringLn(" ms");
    3a12:	93 e0       	ldi	r25, 0x03	; 3
    3a14:	05 dc       	rcall	.-2038   	; 0x3220 <TransmitString>
    3a16:	41 e0       	ldi	r20, 0x01	; 1
    3a18:	61 e0       	ldi	r22, 0x01	; 1

						deterministic_pulse_length = temp16;
    3a1a:	8a 81       	ldd	r24, Y+2	; 0x02
    3a1c:	9b 81       	ldd	r25, Y+3	; 0x03
    3a1e:	d2 dc       	rcall	.-1628   	; 0x33c4 <TransmitFloat>
    3a20:	88 e6       	ldi	r24, 0x68	; 104
    3a22:	93 e0       	ldi	r25, 0x03	; 3
						eeprom_write_word(&deterministic_pulse_length_eeprom,temp16);
    3a24:	ff db       	rcall	.-2050   	; 0x3224 <TransmitStringLn>
    3a26:	6a 81       	ldd	r22, Y+2	; 0x02
    3a28:	7b 81       	ldd	r23, Y+3	; 0x03
    3a2a:	70 93 71 05 	sts	0x0571, r23	; 0x800571 <deterministic_pulse_length+0x1>

				//3.5 Set Pulse Register	
				case _MK16('P','R'):
				
					//!!!Reihenfolge wird getauscht!!!
					if(strlen(string) != 13)
    3a2e:	60 93 70 05 	sts	0x0570, r22	; 0x800570 <deterministic_pulse_length>
    3a32:	82 e0       	ldi	r24, 0x02	; 2
    3a34:	90 e0       	ldi	r25, 0x00	; 0
    3a36:	49 d6       	rcall	.+3218   	; 0x46ca <eeprom_write_word>
    3a38:	68 c1       	rjmp	.+720    	; 0x3d0a <TerminalParseCommand+0x6ca>
    3a3a:	f8 01       	movw	r30, r16
    3a3c:	01 90       	ld	r0, Z+
					{
						//Not 8 characters
						TransmitStringLn("FORMAT ERR");
    3a3e:	00 20       	and	r0, r0
    3a40:	e9 f7       	brne	.-6      	; 0x3a3c <TerminalParseCommand+0x3fc>
    3a42:	cf 01       	movw	r24, r30
    3a44:	0e 97       	sbiw	r24, 0x0e	; 14
    3a46:	80 17       	cp	r24, r16
					}	
					else if (!ParseByte(&string[4], &temp8))
    3a48:	91 07       	cpc	r25, r17
    3a4a:	21 f0       	breq	.+8      	; 0x3a54 <TerminalParseCommand+0x414>
    3a4c:	87 e1       	ldi	r24, 0x17	; 23
    3a4e:	92 e0       	ldi	r25, 0x02	; 2
    3a50:	e9 db       	rcall	.-2094   	; 0x3224 <TransmitStringLn>
    3a52:	5b c1       	rjmp	.+694    	; 0x3d0a <TerminalParseCommand+0x6ca>
    3a54:	be 01       	movw	r22, r28
    3a56:	6f 5f       	subi	r22, 0xFF	; 255
    3a58:	7f 4f       	sbci	r23, 0xFF	; 255
					{
						//Conversion did not work
						TransmitStringLn("FORMAT ERR");
    3a5a:	c8 01       	movw	r24, r16
    3a5c:	04 96       	adiw	r24, 0x04	; 4
    3a5e:	c2 db       	rcall	.-2172   	; 0x31e4 <ParseByte>
    3a60:	81 11       	cpse	r24, r1
					}
					else
					{
						TransmitString("SPR=");
    3a62:	04 c0       	rjmp	.+8      	; 0x3a6c <TerminalParseCommand+0x42c>
    3a64:	87 e1       	ldi	r24, 0x17	; 23
    3a66:	92 e0       	ldi	r25, 0x02	; 2
    3a68:	dd db       	rcall	.-2118   	; 0x3224 <TransmitStringLn>
						TransmitByte_Reverse(temp8);
    3a6a:	4f c1       	rjmp	.+670    	; 0x3d0a <TerminalParseCommand+0x6ca>
    3a6c:	83 e8       	ldi	r24, 0x83	; 131
						TransmitStringLn("");
    3a6e:	93 e0       	ldi	r25, 0x03	; 3
    3a70:	d7 db       	rcall	.-2130   	; 0x3220 <TransmitString>
    3a72:	89 81       	ldd	r24, Y+1	; 0x01

						pulse_output_register = temp8;
    3a74:	a9 dd       	rcall	.-1198   	; 0x35c8 <TransmitByte_Reverse>
    3a76:	84 e0       	ldi	r24, 0x04	; 4
						eeprom_write_byte(&pulse_output_register_eeprom,temp8);
    3a78:	93 e0       	ldi	r25, 0x03	; 3
    3a7a:	d4 db       	rcall	.-2136   	; 0x3224 <TransmitStringLn>
    3a7c:	69 81       	ldd	r22, Y+1	; 0x01
    3a7e:	60 93 8d 05 	sts	0x058D, r22	; 0x80058d <pulse_output_register>
				
				//4.0 Set Card types***************************************************
				#pragma region 4.SlotSettings
				case _MK16('C','T'):
				
					if(strlen(string) != 13)
    3a82:	84 e4       	ldi	r24, 0x44	; 68
    3a84:	90 e0       	ldi	r25, 0x00	; 0
    3a86:	0e d6       	rcall	.+3100   	; 0x46a4 <eeprom_write_byte>
    3a88:	40 c1       	rjmp	.+640    	; 0x3d0a <TerminalParseCommand+0x6ca>
    3a8a:	f8 01       	movw	r30, r16
    3a8c:	01 90       	ld	r0, Z+
    3a8e:	00 20       	and	r0, r0
    3a90:	e9 f7       	brne	.-6      	; 0x3a8c <TerminalParseCommand+0x44c>
					{
						//Not 8 characters
						TransmitStringLn("FORMAT ERR");
    3a92:	cf 01       	movw	r24, r30
    3a94:	0e 97       	sbiw	r24, 0x0e	; 14
    3a96:	80 17       	cp	r24, r16
    3a98:	91 07       	cpc	r25, r17
    3a9a:	21 f0       	breq	.+8      	; 0x3aa4 <TerminalParseCommand+0x464>
					}					
					else
					{
						//Save old setting temporary
						char old_card_Type[8];
						strcpy(old_card_Type, card_Type);
    3a9c:	87 e1       	ldi	r24, 0x17	; 23
    3a9e:	92 e0       	ldi	r25, 0x02	; 2
    3aa0:	c1 db       	rcall	.-2174   	; 0x3224 <TransmitStringLn>
    3aa2:	33 c1       	rjmp	.+614    	; 0x3d0a <TerminalParseCommand+0x6ca>
    3aa4:	6e e9       	ldi	r22, 0x9E	; 158
    3aa6:	75 e0       	ldi	r23, 0x05	; 5
						
						//Get the substring and write it to card_Type and EEPROM
						memcpy(card_Type, &string[4], 8);
    3aa8:	ce 01       	movw	r24, r28
    3aaa:	08 96       	adiw	r24, 0x08	; 8
    3aac:	67 d5       	rcall	.+2766   	; 0x457c <strcpy>
    3aae:	88 e0       	ldi	r24, 0x08	; 8
    3ab0:	f8 01       	movw	r30, r16
    3ab2:	34 96       	adiw	r30, 0x04	; 4
    3ab4:	ae e9       	ldi	r26, 0x9E	; 158
    3ab6:	b5 e0       	ldi	r27, 0x05	; 5
    3ab8:	01 90       	ld	r0, Z+
						eeprom_write_block(card_Type, &card_Type_register_eeprom, 8);
    3aba:	0d 92       	st	X+, r0
    3abc:	8a 95       	dec	r24
    3abe:	e1 f7       	brne	.-8      	; 0x3ab8 <TerminalParseCommand+0x478>
    3ac0:	48 e0       	ldi	r20, 0x08	; 8
    3ac2:	50 e0       	ldi	r21, 0x00	; 0
    3ac4:	6c e3       	ldi	r22, 0x3C	; 60
    3ac6:	70 e0       	ldi	r23, 0x00	; 0
    3ac8:	8e e9       	ldi	r24, 0x9E	; 158
						
						//If there were changes --> Card initialization
						Init_All_Cards(card_Type, old_card_Type);
    3aca:	95 e0       	ldi	r25, 0x05	; 5
    3acc:	e2 d5       	rcall	.+3012   	; 0x4692 <eeprom_write_block>
    3ace:	be 01       	movw	r22, r28
    3ad0:	68 5f       	subi	r22, 0xF8	; 248
    3ad2:	7f 4f       	sbci	r23, 0xFF	; 255
    3ad4:	8e e9       	ldi	r24, 0x9E	; 158
    3ad6:	95 e0       	ldi	r25, 0x05	; 5
							
						//Answer
						TransmitString("SCT=");
    3ad8:	0e 94 b3 13 	call	0x2766	; 0x2766 <Init_All_Cards>
    3adc:	88 e8       	ldi	r24, 0x88	; 136
						TransmitString(card_Type);
    3ade:	93 e0       	ldi	r25, 0x03	; 3
    3ae0:	9f db       	rcall	.-2242   	; 0x3220 <TransmitString>
    3ae2:	8e e9       	ldi	r24, 0x9E	; 158
						TransmitStringLn("");
    3ae4:	95 e0       	ldi	r25, 0x05	; 5
    3ae6:	9c db       	rcall	.-2248   	; 0x3220 <TransmitString>
    3ae8:	84 e0       	ldi	r24, 0x04	; 4
    3aea:	93 e0       	ldi	r25, 0x03	; 3
    3aec:	9b db       	rcall	.-2250   	; 0x3224 <TransmitStringLn>
					
				#pragma endregion 4.SlotSettings	
														
				//Default --> Fehler***************************************************	
				default:
					TransmitStringLn("COMMAND ERR");
    3aee:	0d c1       	rjmp	.+538    	; 0x3d0a <TerminalParseCommand+0x6ca>
    3af0:	89 e4       	ldi	r24, 0x49	; 73
    3af2:	92 e0       	ldi	r25, 0x02	; 2
    3af4:	97 db       	rcall	.-2258   	; 0x3224 <TransmitStringLn>
					break;				
    3af6:	09 c1       	rjmp	.+530    	; 0x3d0a <TerminalParseCommand+0x6ca>
		//Set-Commands, that apply ONE 19''-Cards (Definition: Number @ 3 character)
		//*****************************************************************************
		
		#pragma region Special_Set_Commands
						
		else if (slotNr >= 0 && slotNr < 8){
    3af8:	20 53       	subi	r18, 0x30	; 48
    3afa:	28 30       	cpi	r18, 0x08	; 8
    3afc:	60 f5       	brcc	.+88     	; 0x3b56 <TerminalParseCommand+0x516>
			
			//*****************************************************************************
			//Differentiation between card-Types
			//*****************************************************************************
			
			switch(string[4]){
    3afe:	f8 01       	movw	r30, r16
    3b00:	84 81       	ldd	r24, Z+4	; 0x04
    3b02:	86 34       	cpi	r24, 0x46	; 70
    3b04:	a1 f0       	breq	.+40     	; 0x3b2e <TerminalParseCommand+0x4ee>
    3b06:	28 f4       	brcc	.+10     	; 0x3b12 <TerminalParseCommand+0x4d2>
    3b08:	81 34       	cpi	r24, 0x41	; 65
    3b0a:	a9 f0       	breq	.+42     	; 0x3b36 <TerminalParseCommand+0x4f6>
    3b0c:	82 34       	cpi	r24, 0x42	; 66
    3b0e:	b9 f0       	breq	.+46     	; 0x3b3e <TerminalParseCommand+0x4fe>
    3b10:	1e c0       	rjmp	.+60     	; 0x3b4e <TerminalParseCommand+0x50e>
    3b12:	8d 34       	cpi	r24, 0x4D	; 77
    3b14:	41 f0       	breq	.+16     	; 0x3b26 <TerminalParseCommand+0x4e6>
    3b16:	84 35       	cpi	r24, 0x54	; 84
    3b18:	b1 f0       	breq	.+44     	; 0x3b46 <TerminalParseCommand+0x506>
    3b1a:	8c 34       	cpi	r24, 0x4C	; 76
    3b1c:	c1 f4       	brne	.+48     	; 0x3b4e <TerminalParseCommand+0x50e>
				
				//4.1 LED-Heat-Meas current Source				
				case 'L':	
					Terminal_SET_LED_Source(string);
    3b1e:	c8 01       	movw	r24, r16
    3b20:	0e 94 4b 06 	call	0xc96	; 0xc96 <Terminal_SET_LED_Source>
					break;
    3b24:	f2 c0       	rjmp	.+484    	; 0x3d0a <TerminalParseCommand+0x6ca>
									
				//4.2 MOSFET-Heat-Meas current Source				
				case 'M':
					Terminal_SET_MOSFET_Source(string);
    3b26:	c8 01       	movw	r24, r16
    3b28:	0e 94 62 0c 	call	0x18c4	; 0x18c4 <Terminal_SET_MOSFET_Source>
					break;
    3b2c:	ee c0       	rjmp	.+476    	; 0x3d0a <TerminalParseCommand+0x6ca>
				
				//4.3.1 Heller Front-End (F)
				case 'F':
					Terminal_SET_FrontEnd(string);
    3b2e:	c8 01       	movw	r24, r16
    3b30:	0e 94 b7 03 	call	0x76e	; 0x76e <Terminal_SET_FrontEnd>
					break;				
    3b34:	ea c0       	rjmp	.+468    	; 0x3d0a <TerminalParseCommand+0x6ca>
													
				//4.3.2 Amplifier			
				case 'A':
					Terminal_SET_Amplifier(string);
    3b36:	c8 01       	movw	r24, r16
    3b38:	0e 94 53 01 	call	0x2a6	; 0x2a6 <Terminal_SET_Amplifier>
					break;
    3b3c:	e6 c0       	rjmp	.+460    	; 0x3d0a <TerminalParseCommand+0x6ca>
					
				//4.4 BreakDownVoltage Test
				case 'B':
					Terminal_SET_BreakDown(string);
    3b3e:	c8 01       	movw	r24, r16
    3b40:	0e 94 cf 08 	call	0x119e	; 0x119e <Terminal_SET_BreakDown>
					break;
    3b44:	e2 c0       	rjmp	.+452    	; 0x3d0a <TerminalParseCommand+0x6ca>
				
				//4.99 SlotTester
				case 'T':
					Terminal_SET_SlotTester(string);
    3b46:	c8 01       	movw	r24, r16
    3b48:	0e 94 54 10 	call	0x20a8	; 0x20a8 <Terminal_SET_SlotTester>
					break;
    3b4c:	de c0       	rjmp	.+444    	; 0x3d0a <TerminalParseCommand+0x6ca>
																	
				//Default --> Fehler
				default:
					TransmitStringLn("COMMAND ERR");
    3b4e:	89 e4       	ldi	r24, 0x49	; 73
    3b50:	92 e0       	ldi	r25, 0x02	; 2
    3b52:	68 db       	rcall	.-2352   	; 0x3224 <TransmitStringLn>
					break;				
    3b54:	da c0       	rjmp	.+436    	; 0x3d0a <TerminalParseCommand+0x6ca>
		//*****************************************************************************
		//Error
		//*****************************************************************************		
		else{			
			//Set Command is not known
			TransmitStringLn("COMMAND ERR");
    3b56:	89 e4       	ldi	r24, 0x49	; 73
    3b58:	92 e0       	ldi	r25, 0x02	; 2
    3b5a:	64 db       	rcall	.-2360   	; 0x3224 <TransmitStringLn>
	//									GET
	//***************************************************************************
	
	#pragma region Get
			
	else if (string[0] == 'G')
    3b5c:	d6 c0       	rjmp	.+428    	; 0x3d0a <TerminalParseCommand+0x6ca>
    3b5e:	27 34       	cpi	r18, 0x47	; 71
	{
		//Must executed here, later no chance, before not safe
		slotNr = string[3] - '0';
    3b60:	09 f0       	breq	.+2      	; 0x3b64 <TerminalParseCommand+0x524>
    3b62:	d0 c0       	rjmp	.+416    	; 0x3d04 <TerminalParseCommand+0x6c4>
		//Get-Commands, that apply for all 19''-Cards (Definition: Space @ 3 character)
		//*****************************************************************************
		
		#pragma region Gerneral_Get
		
		if(string[3] == '\n'){
    3b64:	f8 01       	movw	r30, r16
    3b66:	23 81       	ldd	r18, Z+3	; 0x03
    3b68:	2a 30       	cpi	r18, 0x0A	; 10
		
			switch (cmd)
    3b6a:	09 f0       	breq	.+2      	; 0x3b6e <TerminalParseCommand+0x52e>
    3b6c:	98 c0       	rjmp	.+304    	; 0x3c9e <TerminalParseCommand+0x65e>
    3b6e:	88 34       	cpi	r24, 0x48	; 72
    3b70:	f0 e5       	ldi	r31, 0x50	; 80
    3b72:	9f 07       	cpc	r25, r31
    3b74:	a9 f1       	breq	.+106    	; 0x3be0 <TerminalParseCommand+0x5a0>
    3b76:	a0 f4       	brcc	.+40     	; 0x3ba0 <TerminalParseCommand+0x560>
    3b78:	8e 34       	cpi	r24, 0x4E	; 78
    3b7a:	e4 e4       	ldi	r30, 0x44	; 68
    3b7c:	9e 07       	cpc	r25, r30
    3b7e:	09 f4       	brne	.+2      	; 0x3b82 <TerminalParseCommand+0x542>
    3b80:	4d c0       	rjmp	.+154    	; 0x3c1c <TerminalParseCommand+0x5dc>
    3b82:	28 f4       	brcc	.+10     	; 0x3b8e <TerminalParseCommand+0x54e>
    3b84:	89 34       	cpi	r24, 0x49	; 73
    3b86:	94 44       	sbci	r25, 0x44	; 68
    3b88:	09 f4       	brne	.+2      	; 0x3b8c <TerminalParseCommand+0x54c>
    3b8a:	7e c0       	rjmp	.+252    	; 0x3c88 <TerminalParseCommand+0x648>
    3b8c:	84 c0       	rjmp	.+264    	; 0x3c96 <TerminalParseCommand+0x656>
    3b8e:	84 35       	cpi	r24, 0x54	; 84
    3b90:	e4 e4       	ldi	r30, 0x44	; 68
    3b92:	9e 07       	cpc	r25, r30
    3b94:	09 f4       	brne	.+2      	; 0x3b98 <TerminalParseCommand+0x558>
    3b96:	4f c0       	rjmp	.+158    	; 0x3c36 <TerminalParseCommand+0x5f6>
    3b98:	85 34       	cpi	r24, 0x45	; 69
    3b9a:	9e 44       	sbci	r25, 0x4E	; 78
    3b9c:	a9 f0       	breq	.+42     	; 0x3bc8 <TerminalParseCommand+0x588>
    3b9e:	7b c0       	rjmp	.+246    	; 0x3c96 <TerminalParseCommand+0x656>
    3ba0:	80 35       	cpi	r24, 0x50	; 80
    3ba2:	22 e5       	ldi	r18, 0x52	; 82
    3ba4:	92 07       	cpc	r25, r18
    3ba6:	09 f4       	brne	.+2      	; 0x3baa <TerminalParseCommand+0x56a>
    3ba8:	54 c0       	rjmp	.+168    	; 0x3c52 <TerminalParseCommand+0x612>
    3baa:	20 f4       	brcc	.+8      	; 0x3bb4 <TerminalParseCommand+0x574>
    3bac:	8d 34       	cpi	r24, 0x4D	; 77
    3bae:	90 45       	sbci	r25, 0x50	; 80
    3bb0:	41 f1       	breq	.+80     	; 0x3c02 <TerminalParseCommand+0x5c2>
    3bb2:	71 c0       	rjmp	.+226    	; 0x3c96 <TerminalParseCommand+0x656>
			{
				//1.1 GEN, get enable status......................................................
				case _MK16('E','N'):			
					TransmitString("GEN=");
    3bb4:	83 34       	cpi	r24, 0x43	; 67
    3bb6:	24 e5       	ldi	r18, 0x54	; 84
    3bb8:	92 07       	cpc	r25, r18
					TransmitInt(current_source_enabled, 1);
    3bba:	09 f4       	brne	.+2      	; 0x3bbe <TerminalParseCommand+0x57e>
    3bbc:	54 c0       	rjmp	.+168    	; 0x3c66 <TerminalParseCommand+0x626>
    3bbe:	86 34       	cpi	r24, 0x46	; 70
    3bc0:	97 45       	sbci	r25, 0x57	; 87
    3bc2:	09 f4       	brne	.+2      	; 0x3bc6 <TerminalParseCommand+0x586>
					TransmitStringLn("");
    3bc4:	5a c0       	rjmp	.+180    	; 0x3c7a <TerminalParseCommand+0x63a>
    3bc6:	67 c0       	rjmp	.+206    	; 0x3c96 <TerminalParseCommand+0x656>
    3bc8:	8d e8       	ldi	r24, 0x8D	; 141
					break;
    3bca:	93 e0       	ldi	r25, 0x03	; 3
				
				//3.1 GHP, get heat pulse length.................................................
				case _MK16('H','P'):							
					TransmitString("GHP=");
    3bcc:	29 db       	rcall	.-2478   	; 0x3220 <TransmitString>
    3bce:	80 91 8c 05 	lds	r24, 0x058C	; 0x80058c <current_source_enabled>
					TransmitLong(heat_pulse_length, 1);
    3bd2:	61 e0       	ldi	r22, 0x01	; 1
    3bd4:	90 e0       	ldi	r25, 0x00	; 0
    3bd6:	28 db       	rcall	.-2480   	; 0x3228 <TransmitInt>
    3bd8:	84 e0       	ldi	r24, 0x04	; 4
    3bda:	93 e0       	ldi	r25, 0x03	; 3
    3bdc:	23 db       	rcall	.-2490   	; 0x3224 <TransmitStringLn>
    3bde:	95 c0       	rjmp	.+298    	; 0x3d0a <TerminalParseCommand+0x6ca>
    3be0:	82 e9       	ldi	r24, 0x92	; 146
					TransmitStringLn(" ms");
    3be2:	93 e0       	ldi	r25, 0x03	; 3
    3be4:	1d db       	rcall	.-2502   	; 0x3220 <TransmitString>
    3be6:	60 91 72 05 	lds	r22, 0x0572	; 0x800572 <heat_pulse_length>
					break;

				//3.2 GMP, get measure pulse length
				case _MK16('M','P'):							
					TransmitString("GMP=");
    3bea:	70 91 73 05 	lds	r23, 0x0573	; 0x800573 <heat_pulse_length+0x1>
    3bee:	80 91 74 05 	lds	r24, 0x0574	; 0x800574 <heat_pulse_length+0x2>
					TransmitInt(measure_pulse_length, 1);
    3bf2:	90 91 75 05 	lds	r25, 0x0575	; 0x800575 <heat_pulse_length+0x3>
    3bf6:	41 e0       	ldi	r20, 0x01	; 1
    3bf8:	7c db       	rcall	.-2312   	; 0x32f2 <TransmitLong>
    3bfa:	88 e6       	ldi	r24, 0x68	; 104
					TransmitStringLn(" ms");
    3bfc:	93 e0       	ldi	r25, 0x03	; 3
    3bfe:	12 db       	rcall	.-2524   	; 0x3224 <TransmitStringLn>
    3c00:	84 c0       	rjmp	.+264    	; 0x3d0a <TerminalParseCommand+0x6ca>
    3c02:	87 e9       	ldi	r24, 0x97	; 151
					break;
    3c04:	93 e0       	ldi	r25, 0x03	; 3
				
				//3.3 GND, get deterministic pulse count
				case _MK16('N','D'):			
					TransmitString("GND=");
    3c06:	0c db       	rcall	.-2536   	; 0x3220 <TransmitString>
    3c08:	61 e0       	ldi	r22, 0x01	; 1
    3c0a:	80 91 88 05 	lds	r24, 0x0588	; 0x800588 <measure_pulse_length>
					TransmitInt(deterministic_pulse_cycles, 1);
    3c0e:	90 91 89 05 	lds	r25, 0x0589	; 0x800589 <measure_pulse_length+0x1>
    3c12:	0a db       	rcall	.-2540   	; 0x3228 <TransmitInt>
    3c14:	88 e6       	ldi	r24, 0x68	; 104
    3c16:	93 e0       	ldi	r25, 0x03	; 3
    3c18:	05 db       	rcall	.-2550   	; 0x3224 <TransmitStringLn>
    3c1a:	77 c0       	rjmp	.+238    	; 0x3d0a <TerminalParseCommand+0x6ca>
					TransmitStringLn(" pulses");
    3c1c:	8c e9       	ldi	r24, 0x9C	; 156
    3c1e:	93 e0       	ldi	r25, 0x03	; 3
    3c20:	ff da       	rcall	.-2562   	; 0x3220 <TransmitString>
    3c22:	61 e0       	ldi	r22, 0x01	; 1
					break;
    3c24:	80 91 76 05 	lds	r24, 0x0576	; 0x800576 <deterministic_pulse_cycles>
			
				//3.4 GTD, get deterministic pulse length
				case _MK16('T','D'):
					TransmitString("GTD=");
    3c28:	90 91 77 05 	lds	r25, 0x0577	; 0x800577 <deterministic_pulse_cycles+0x1>
    3c2c:	fd da       	rcall	.-2566   	; 0x3228 <TransmitInt>
					TransmitFloat(deterministic_pulse_length, 1, 1);
    3c2e:	86 e7       	ldi	r24, 0x76	; 118
    3c30:	93 e0       	ldi	r25, 0x03	; 3
    3c32:	f8 da       	rcall	.-2576   	; 0x3224 <TransmitStringLn>
    3c34:	6a c0       	rjmp	.+212    	; 0x3d0a <TerminalParseCommand+0x6ca>
    3c36:	81 ea       	ldi	r24, 0xA1	; 161
    3c38:	93 e0       	ldi	r25, 0x03	; 3
    3c3a:	f2 da       	rcall	.-2588   	; 0x3220 <TransmitString>
    3c3c:	41 e0       	ldi	r20, 0x01	; 1
					TransmitStringLn(" ms");
    3c3e:	61 e0       	ldi	r22, 0x01	; 1
    3c40:	80 91 70 05 	lds	r24, 0x0570	; 0x800570 <deterministic_pulse_length>
    3c44:	90 91 71 05 	lds	r25, 0x0571	; 0x800571 <deterministic_pulse_length+0x1>
					break;
				
				//3.5, get Slot pulse info
				case _MK16('P','R'):
					TransmitString("GPR=");
    3c48:	bd db       	rcall	.-2182   	; 0x33c4 <TransmitFloat>
    3c4a:	88 e6       	ldi	r24, 0x68	; 104
    3c4c:	93 e0       	ldi	r25, 0x03	; 3
					TransmitByte_Reverse(pulse_output_register);
    3c4e:	ea da       	rcall	.-2604   	; 0x3224 <TransmitStringLn>
    3c50:	5c c0       	rjmp	.+184    	; 0x3d0a <TerminalParseCommand+0x6ca>
    3c52:	86 ea       	ldi	r24, 0xA6	; 166
					TransmitStringLn("");
    3c54:	93 e0       	ldi	r25, 0x03	; 3
    3c56:	e4 da       	rcall	.-2616   	; 0x3220 <TransmitString>
    3c58:	80 91 8d 05 	lds	r24, 0x058D	; 0x80058d <pulse_output_register>
					break;
				
				//4.1, get Slot Card Type
				case _MK16('C','T'):
					TransmitString("GCT=");
    3c5c:	b5 dc       	rcall	.-1686   	; 0x35c8 <TransmitByte_Reverse>
    3c5e:	84 e0       	ldi	r24, 0x04	; 4
    3c60:	93 e0       	ldi	r25, 0x03	; 3
    3c62:	e0 da       	rcall	.-2624   	; 0x3224 <TransmitStringLn>
					TransmitString(card_Type);
    3c64:	52 c0       	rjmp	.+164    	; 0x3d0a <TerminalParseCommand+0x6ca>
    3c66:	8b ea       	ldi	r24, 0xAB	; 171
    3c68:	93 e0       	ldi	r25, 0x03	; 3
    3c6a:	da da       	rcall	.-2636   	; 0x3220 <TransmitString>
					TransmitStringLn("");
    3c6c:	8e e9       	ldi	r24, 0x9E	; 158
    3c6e:	95 e0       	ldi	r25, 0x05	; 5
    3c70:	d7 da       	rcall	.-2642   	; 0x3220 <TransmitString>
    3c72:	84 e0       	ldi	r24, 0x04	; 4
					break;
    3c74:	93 e0       	ldi	r25, 0x03	; 3
							

				//GFW, get firmware version
				case _MK16('F','W'):
			
					TransmitString("FW=");
    3c76:	d6 da       	rcall	.-2644   	; 0x3224 <TransmitStringLn>
    3c78:	48 c0       	rjmp	.+144    	; 0x3d0a <TerminalParseCommand+0x6ca>
    3c7a:	80 eb       	ldi	r24, 0xB0	; 176
    3c7c:	93 e0       	ldi	r25, 0x03	; 3
					TransmitStringLn(FIRMWARE_VERSION);
    3c7e:	d0 da       	rcall	.-2656   	; 0x3220 <TransmitString>
    3c80:	84 eb       	ldi	r24, 0xB4	; 180
    3c82:	93 e0       	ldi	r25, 0x03	; 3
    3c84:	cf da       	rcall	.-2658   	; 0x3224 <TransmitStringLn>
					break;
    3c86:	41 c0       	rjmp	.+130    	; 0x3d0a <TerminalParseCommand+0x6ca>
			
				//GFW, get firmware version
				case _MK16('I','D'):
			
					TransmitString("ID=");
    3c88:	8d ec       	ldi	r24, 0xCD	; 205
    3c8a:	93 e0       	ldi	r25, 0x03	; 3
    3c8c:	c9 da       	rcall	.-2670   	; 0x3220 <TransmitString>
    3c8e:	81 ed       	ldi	r24, 0xD1	; 209
					TransmitStringLn("RthTEC TTA-Equipment V1_0");
    3c90:	93 e0       	ldi	r25, 0x03	; 3
    3c92:	c8 da       	rcall	.-2672   	; 0x3224 <TransmitStringLn>
    3c94:	3a c0       	rjmp	.+116    	; 0x3d0a <TerminalParseCommand+0x6ca>
    3c96:	89 e4       	ldi	r24, 0x49	; 73
					break;
    3c98:	92 e0       	ldi	r25, 0x02	; 2


				default:
				TransmitStringLn("COMMAND ERR");
    3c9a:	c4 da       	rcall	.-2680   	; 0x3224 <TransmitStringLn>
    3c9c:	36 c0       	rjmp	.+108    	; 0x3d0a <TerminalParseCommand+0x6ca>
    3c9e:	20 53       	subi	r18, 0x30	; 48
    3ca0:	28 30       	cpi	r18, 0x08	; 8
    3ca2:	60 f5       	brcc	.+88     	; 0x3cfc <TerminalParseCommand+0x6bc>
		//Get-Commands, that apply ONE 19''-Cards (Definition: Number @ 3 character)
		//*****************************************************************************
		
		#pragma region Special_Get
		
		else if (slotNr >= 0 && slotNr < 8){
    3ca4:	f8 01       	movw	r30, r16
    3ca6:	84 81       	ldd	r24, Z+4	; 0x04
    3ca8:	86 34       	cpi	r24, 0x46	; 70
						
			switch(string[4]){
    3caa:	a1 f0       	breq	.+40     	; 0x3cd4 <TerminalParseCommand+0x694>
    3cac:	28 f4       	brcc	.+10     	; 0x3cb8 <TerminalParseCommand+0x678>
    3cae:	81 34       	cpi	r24, 0x41	; 65
    3cb0:	a9 f0       	breq	.+42     	; 0x3cdc <TerminalParseCommand+0x69c>
    3cb2:	82 34       	cpi	r24, 0x42	; 66
    3cb4:	b9 f0       	breq	.+46     	; 0x3ce4 <TerminalParseCommand+0x6a4>
    3cb6:	1e c0       	rjmp	.+60     	; 0x3cf4 <TerminalParseCommand+0x6b4>
    3cb8:	8d 34       	cpi	r24, 0x4D	; 77
    3cba:	41 f0       	breq	.+16     	; 0x3ccc <TerminalParseCommand+0x68c>
    3cbc:	84 35       	cpi	r24, 0x54	; 84
    3cbe:	b1 f0       	breq	.+44     	; 0x3cec <TerminalParseCommand+0x6ac>
    3cc0:	8c 34       	cpi	r24, 0x4C	; 76
    3cc2:	c1 f4       	brne	.+48     	; 0x3cf4 <TerminalParseCommand+0x6b4>
    3cc4:	c8 01       	movw	r24, r16
    3cc6:	0e 94 43 07 	call	0xe86	; 0xe86 <Terminal_GET_LED_Source>
				
				//4.1 LED-Source				
				case 'L':
					Terminal_GET_LED_Source(string);
    3cca:	1f c0       	rjmp	.+62     	; 0x3d0a <TerminalParseCommand+0x6ca>
    3ccc:	c8 01       	movw	r24, r16
    3cce:	0e 94 99 0d 	call	0x1b32	; 0x1b32 <Terminal_GET_MOSFET_Source>
					break;
								
				//4.2 MOSFET heat-meas current source								
				case 'M':
					Terminal_GET_MOSFET_Source(string);
    3cd2:	1b c0       	rjmp	.+54     	; 0x3d0a <TerminalParseCommand+0x6ca>
    3cd4:	c8 01       	movw	r24, r16
    3cd6:	0e 94 d5 04 	call	0x9aa	; 0x9aa <Terminal_GET_FrontEnd>
					break;	
						
				//4.3.1 Heller FrontEnd (F)
				case 'F':
					Terminal_GET_FrontEnd(string);
    3cda:	17 c0       	rjmp	.+46     	; 0x3d0a <TerminalParseCommand+0x6ca>
    3cdc:	c8 01       	movw	r24, r16
    3cde:	0e 94 4a 02 	call	0x494	; 0x494 <Terminal_GET_Amplifier>
					break;					
					
				//4.3.2 Amplifier
				case 'A':
					Terminal_GET_Amplifier(string);
    3ce2:	13 c0       	rjmp	.+38     	; 0x3d0a <TerminalParseCommand+0x6ca>
    3ce4:	c8 01       	movw	r24, r16
    3ce6:	0e 94 58 0a 	call	0x14b0	; 0x14b0 <Terminal_GET_BreakDown>
					break;
															
				//4.4 BreakDown (B)
				case 'B':
					Terminal_GET_BreakDown(string);
    3cea:	0f c0       	rjmp	.+30     	; 0x3d0a <TerminalParseCommand+0x6ca>
    3cec:	c8 01       	movw	r24, r16
    3cee:	0e 94 05 11 	call	0x220a	; 0x220a <Terminal_GET_SlotTester>
					break;
					
				//4.99 Slot-Tester
				case 'T':
					Terminal_GET_SlotTester(string);
    3cf2:	0b c0       	rjmp	.+22     	; 0x3d0a <TerminalParseCommand+0x6ca>
    3cf4:	89 e4       	ldi	r24, 0x49	; 73
    3cf6:	92 e0       	ldi	r25, 0x02	; 2
					break;
    3cf8:	95 da       	rcall	.-2774   	; 0x3224 <TransmitStringLn>
							
				//Default --> Fehler
				default:
					TransmitStringLn("COMMAND ERR");
    3cfa:	07 c0       	rjmp	.+14     	; 0x3d0a <TerminalParseCommand+0x6ca>
    3cfc:	89 e4       	ldi	r24, 0x49	; 73
    3cfe:	92 e0       	ldi	r25, 0x02	; 2
    3d00:	91 da       	rcall	.-2782   	; 0x3224 <TransmitStringLn>
					break;
    3d02:	03 c0       	rjmp	.+6      	; 0x3d0a <TerminalParseCommand+0x6ca>
		//Error
		//*****************************************************************************
		
		else{
			//Set Command is not known
			TransmitStringLn("COMMAND ERR");
    3d04:	89 e4       	ldi	r24, 0x49	; 73
    3d06:	92 e0       	ldi	r25, 0x02	; 2
    3d08:	8d da       	rcall	.-2790   	; 0x3224 <TransmitStringLn>
    3d0a:	2f 96       	adiw	r28, 0x0f	; 15
    3d0c:	0f b6       	in	r0, 0x3f	; 63
	//***************************************************************************
	//								 ERROR
	//***************************************************************************
	else
	{
		TransmitStringLn("COMMAND ERR");
    3d0e:	f8 94       	cli
    3d10:	de bf       	out	0x3e, r29	; 62
    3d12:	0f be       	out	0x3f, r0	; 63
    3d14:	cd bf       	out	0x3d, r28	; 61
	}
	
}
    3d16:	df 91       	pop	r29
    3d18:	cf 91       	pop	r28
    3d1a:	1f 91       	pop	r17
    3d1c:	0f 91       	pop	r16
    3d1e:	08 95       	ret

00003d20 <TerminalCheckCommand>:
    3d20:	f5 d0       	rcall	.+490    	; 0x3f0c <UART0ReceiveLine>
    3d22:	80 93 b9 05 	sts	0x05B9, r24	; 0x8005b9 <len>
    3d26:	88 23       	and	r24, r24
    3d28:	39 f0       	breq	.+14     	; 0x3d38 <TerminalCheckCommand+0x18>
    3d2a:	8e ef       	ldi	r24, 0xFE	; 254
void TerminalCheckCommand()
{
    //USB specific
    if ((len = UART0ReceiveLine()) > 0)
    {
		string = uart0_rx;
    3d2c:	93 e0       	ldi	r25, 0x03	; 3
    3d2e:	90 93 b8 05 	sts	0x05B8, r25	; 0x8005b8 <string+0x1>
    3d32:	80 93 b7 05 	sts	0x05B7, r24	; 0x8005b7 <string>
    }

    //Common commands
    if (len > 0)
    {
        TerminalParseCommand(string);
    3d36:	84 cc       	rjmp	.-1784   	; 0x3640 <TerminalParseCommand>
    3d38:	08 95       	ret

00003d3a <__vector_25>:
// -------------------------------------------------------------

uint8_t UART0SendWaiting()
{
	return uart0_tx_char_write - uart0_tx_char_read;
}
    3d3a:	1f 92       	push	r1
    3d3c:	0f 92       	push	r0
    3d3e:	0f b6       	in	r0, 0x3f	; 63
    3d40:	0f 92       	push	r0
    3d42:	11 24       	eor	r1, r1
    3d44:	0b b6       	in	r0, 0x3b	; 59
    3d46:	0f 92       	push	r0
    3d48:	8f 93       	push	r24
    3d4a:	9f 93       	push	r25
    3d4c:	ef 93       	push	r30
    3d4e:	ff 93       	push	r31
    3d50:	80 91 f0 03 	lds	r24, 0x03F0	; 0x8003f0 <uart0_rx_blocked>
    3d54:	88 23       	and	r24, r24
    3d56:	29 f0       	breq	.+10     	; 0x3d62 <__vector_25+0x28>
    3d58:	80 91 c6 00 	lds	r24, 0x00C6	; 0x8000c6 <__TEXT_REGION_LENGTH__+0x7000c6>
    3d5c:	80 93 9f 04 	sts	0x049F, r24	; 0x80049f <uart0_active_timer>
    3d60:	35 c0       	rjmp	.+106    	; 0x3dcc <__vector_25+0x92>
    3d62:	80 91 f2 03 	lds	r24, 0x03F2	; 0x8003f2 <uart0_rx_overrun>
    3d66:	81 11       	cpse	r24, r1
    3d68:	2d c0       	rjmp	.+90     	; 0x3dc4 <__vector_25+0x8a>
    3d6a:	e0 91 f3 03 	lds	r30, 0x03F3	; 0x8003f3 <uart0_rx_char_write>
    3d6e:	f0 e0       	ldi	r31, 0x00	; 0
    3d70:	80 91 c6 00 	lds	r24, 0x00C6	; 0x8000c6 <__TEXT_REGION_LENGTH__+0x7000c6>
    3d74:	e6 5c       	subi	r30, 0xC6	; 198
    3d76:	f9 4f       	sbci	r31, 0xF9	; 249
    3d78:	80 83       	st	Z, r24
    3d7a:	e0 91 f3 03 	lds	r30, 0x03F3	; 0x8003f3 <uart0_rx_char_write>
    3d7e:	f0 e0       	ldi	r31, 0x00	; 0
    3d80:	e6 5c       	subi	r30, 0xC6	; 198
    3d82:	f9 4f       	sbci	r31, 0xF9	; 249
    3d84:	80 81       	ld	r24, Z
    3d86:	8a 30       	cpi	r24, 0x0A	; 10
    3d88:	29 f4       	brne	.+10     	; 0x3d94 <__vector_25+0x5a>
    3d8a:	80 91 f1 03 	lds	r24, 0x03F1	; 0x8003f1 <uart0_rx_lines>
    3d8e:	8f 5f       	subi	r24, 0xFF	; 255
    3d90:	80 93 f1 03 	sts	0x03F1, r24	; 0x8003f1 <uart0_rx_lines>
    3d94:	80 91 f3 03 	lds	r24, 0x03F3	; 0x8003f3 <uart0_rx_char_write>
    3d98:	8f 5f       	subi	r24, 0xFF	; 255
    3d9a:	80 93 f3 03 	sts	0x03F3, r24	; 0x8003f3 <uart0_rx_char_write>
    3d9e:	80 91 f3 03 	lds	r24, 0x03F3	; 0x8003f3 <uart0_rx_char_write>
    3da2:	80 38       	cpi	r24, 0x80	; 128
    3da4:	11 f4       	brne	.+4      	; 0x3daa <__vector_25+0x70>
    3da6:	10 92 f3 03 	sts	0x03F3, r1	; 0x8003f3 <uart0_rx_char_write>
    3daa:	90 91 f3 03 	lds	r25, 0x03F3	; 0x8003f3 <uart0_rx_char_write>
    3dae:	80 91 f4 03 	lds	r24, 0x03F4	; 0x8003f4 <uart0_rx_char_read>
    3db2:	98 13       	cpse	r25, r24
    3db4:	03 c0       	rjmp	.+6      	; 0x3dbc <__vector_25+0x82>
    3db6:	81 e0       	ldi	r24, 0x01	; 1
    3db8:	80 93 f2 03 	sts	0x03F2, r24	; 0x8003f2 <uart0_rx_overrun>
    3dbc:	85 e0       	ldi	r24, 0x05	; 5
    3dbe:	80 93 9f 04 	sts	0x049F, r24	; 0x80049f <uart0_active_timer>
    3dc2:	04 c0       	rjmp	.+8      	; 0x3dcc <__vector_25+0x92>
    3dc4:	80 91 c6 00 	lds	r24, 0x00C6	; 0x8000c6 <__TEXT_REGION_LENGTH__+0x7000c6>
    3dc8:	80 93 9f 04 	sts	0x049F, r24	; 0x80049f <uart0_active_timer>
    3dcc:	ff 91       	pop	r31
    3dce:	ef 91       	pop	r30
    3dd0:	9f 91       	pop	r25
    3dd2:	8f 91       	pop	r24
    3dd4:	0f 90       	pop	r0
    3dd6:	0b be       	out	0x3b, r0	; 59
    3dd8:	0f 90       	pop	r0
    3dda:	0f be       	out	0x3f, r0	; 63
    3ddc:	0f 90       	pop	r0
    3dde:	1f 90       	pop	r1
    3de0:	18 95       	reti

00003de2 <__vector_27>:
    3de2:	1f 92       	push	r1
    3de4:	0f 92       	push	r0
    3de6:	0f b6       	in	r0, 0x3f	; 63
    3de8:	0f 92       	push	r0
    3dea:	11 24       	eor	r1, r1
    3dec:	0b b6       	in	r0, 0x3b	; 59
    3dee:	0f 92       	push	r0
    3df0:	8f 93       	push	r24
    3df2:	9f 93       	push	r25
    3df4:	ef 93       	push	r30
    3df6:	ff 93       	push	r31
    3df8:	80 91 00 02 	lds	r24, 0x0200	; 0x800200 <__data_start>
    3dfc:	81 11       	cpse	r24, r1
    3dfe:	1d c0       	rjmp	.+58     	; 0x3e3a <__vector_27+0x58>
    3e00:	80 91 ef 03 	lds	r24, 0x03EF	; 0x8003ef <uart0_tx_char_read>
    3e04:	8f 5f       	subi	r24, 0xFF	; 255
    3e06:	80 93 ef 03 	sts	0x03EF, r24	; 0x8003ef <uart0_tx_char_read>
    3e0a:	80 91 ef 03 	lds	r24, 0x03EF	; 0x8003ef <uart0_tx_char_read>
    3e0e:	80 38       	cpi	r24, 0x80	; 128
    3e10:	11 f4       	brne	.+4      	; 0x3e16 <__vector_27+0x34>
    3e12:	10 92 ef 03 	sts	0x03EF, r1	; 0x8003ef <uart0_tx_char_read>
    3e16:	90 91 ef 03 	lds	r25, 0x03EF	; 0x8003ef <uart0_tx_char_read>
    3e1a:	80 91 ee 03 	lds	r24, 0x03EE	; 0x8003ee <__data_end>
    3e1e:	98 13       	cpse	r25, r24
    3e20:	04 c0       	rjmp	.+8      	; 0x3e2a <__vector_27+0x48>
    3e22:	81 e0       	ldi	r24, 0x01	; 1
    3e24:	80 93 00 02 	sts	0x0200, r24	; 0x800200 <__data_start>
    3e28:	08 c0       	rjmp	.+16     	; 0x3e3a <__vector_27+0x58>
    3e2a:	e0 91 ef 03 	lds	r30, 0x03EF	; 0x8003ef <uart0_tx_char_read>
    3e2e:	f0 e0       	ldi	r31, 0x00	; 0
    3e30:	e6 54       	subi	r30, 0x46	; 70
    3e32:	fa 4f       	sbci	r31, 0xFA	; 250
    3e34:	80 81       	ld	r24, Z
    3e36:	80 93 c6 00 	sts	0x00C6, r24	; 0x8000c6 <__TEXT_REGION_LENGTH__+0x7000c6>
    3e3a:	85 e0       	ldi	r24, 0x05	; 5
    3e3c:	80 93 9f 04 	sts	0x049F, r24	; 0x80049f <uart0_active_timer>
    3e40:	ff 91       	pop	r31
    3e42:	ef 91       	pop	r30
    3e44:	9f 91       	pop	r25
    3e46:	8f 91       	pop	r24
    3e48:	0f 90       	pop	r0
    3e4a:	0b be       	out	0x3b, r0	; 59
    3e4c:	0f 90       	pop	r0
    3e4e:	0f be       	out	0x3f, r0	; 63
    3e50:	0f 90       	pop	r0
    3e52:	1f 90       	pop	r1
    3e54:	18 95       	reti

00003e56 <UART0InitBaudrate>:
    3e56:	8f 92       	push	r8
    3e58:	9f 92       	push	r9
    3e5a:	af 92       	push	r10
    3e5c:	bf 92       	push	r11
    3e5e:	cf 92       	push	r12
    3e60:	df 92       	push	r13
    3e62:	ef 92       	push	r14
    3e64:	ff 92       	push	r15
    3e66:	69 9a       	sbi	0x0d, 1	; 13
    3e68:	e1 ec       	ldi	r30, 0xC1	; 193
    3e6a:	f0 e0       	ldi	r31, 0x00	; 0
    3e6c:	20 81       	ld	r18, Z
    3e6e:	28 61       	ori	r18, 0x18	; 24
    3e70:	20 83       	st	Z, r18
    3e72:	20 81       	ld	r18, Z
    3e74:	20 68       	ori	r18, 0x80	; 128
    3e76:	20 83       	st	Z, r18
    3e78:	20 81       	ld	r18, Z
    3e7a:	20 64       	ori	r18, 0x40	; 64
    3e7c:	20 83       	st	Z, r18
    3e7e:	e2 ec       	ldi	r30, 0xC2	; 194
    3e80:	f0 e0       	ldi	r31, 0x00	; 0
    3e82:	20 81       	ld	r18, Z
    3e84:	26 60       	ori	r18, 0x06	; 6
    3e86:	20 83       	st	Z, r18
    3e88:	6c 01       	movw	r12, r24
    3e8a:	e1 2c       	mov	r14, r1
    3e8c:	f1 2c       	mov	r15, r1
    3e8e:	a0 e2       	ldi	r26, 0x20	; 32
    3e90:	b3 e0       	ldi	r27, 0x03	; 3
    3e92:	a7 01       	movw	r20, r14
    3e94:	96 01       	movw	r18, r12
    3e96:	10 d3       	rcall	.+1568   	; 0x44b8 <__muluhisi3>
    3e98:	4b 01       	movw	r8, r22
    3e9a:	5c 01       	movw	r10, r24
    3e9c:	24 e2       	ldi	r18, 0x24	; 36
    3e9e:	92 0e       	add	r9, r18
    3ea0:	24 ef       	ldi	r18, 0xF4	; 244
    3ea2:	a2 1e       	adc	r10, r18
    3ea4:	b1 1c       	adc	r11, r1
    3ea6:	a0 e4       	ldi	r26, 0x40	; 64
    3ea8:	b6 e0       	ldi	r27, 0x06	; 6
    3eaa:	a7 01       	movw	r20, r14
    3eac:	96 01       	movw	r18, r12
    3eae:	04 d3       	rcall	.+1544   	; 0x44b8 <__muluhisi3>
    3eb0:	9b 01       	movw	r18, r22
    3eb2:	ac 01       	movw	r20, r24
    3eb4:	c5 01       	movw	r24, r10
    3eb6:	b4 01       	movw	r22, r8
    3eb8:	a4 d2       	rcall	.+1352   	; 0x4402 <__udivmodsi4>
    3eba:	21 50       	subi	r18, 0x01	; 1
    3ebc:	31 09       	sbc	r19, r1
    3ebe:	30 93 c5 00 	sts	0x00C5, r19	; 0x8000c5 <__TEXT_REGION_LENGTH__+0x7000c5>
    3ec2:	20 93 c4 00 	sts	0x00C4, r18	; 0x8000c4 <__TEXT_REGION_LENGTH__+0x7000c4>
    3ec6:	ff 90       	pop	r15
    3ec8:	ef 90       	pop	r14
    3eca:	df 90       	pop	r13
    3ecc:	cf 90       	pop	r12
    3ece:	bf 90       	pop	r11
    3ed0:	af 90       	pop	r10
    3ed2:	9f 90       	pop	r9
    3ed4:	8f 90       	pop	r8
    3ed6:	08 95       	ret

00003ed8 <UART0Init>:
    3ed8:	80 e4       	ldi	r24, 0x40	; 64
    3eda:	92 e0       	ldi	r25, 0x02	; 2
    3edc:	bc cf       	rjmp	.-136    	; 0x3e56 <UART0InitBaudrate>
    3ede:	08 95       	ret

00003ee0 <UART0ClearRx>:
uint8_t UART0ClearRx()
{
	uint8_t dummy;

#if (USE_RX0_INTERRUPT)
	UCSR0B &= ~_BV(RXCIE0);         //RX Interrupt aus
    3ee0:	e1 ec       	ldi	r30, 0xC1	; 193
    3ee2:	f0 e0       	ldi	r31, 0x00	; 0
    3ee4:	80 81       	ld	r24, Z
    3ee6:	8f 77       	andi	r24, 0x7F	; 127
    3ee8:	80 83       	st	Z, r24
#endif

	dummy = UDR0;
    3eea:	a6 ec       	ldi	r26, 0xC6	; 198
    3eec:	b0 e0       	ldi	r27, 0x00	; 0
    3eee:	2c 91       	ld	r18, X
	uart0_rx_char_read = 0;
    3ef0:	10 92 f4 03 	sts	0x03F4, r1	; 0x8003f4 <uart0_rx_char_read>
	uart0_rx_char_write = 0;
    3ef4:	10 92 f3 03 	sts	0x03F3, r1	; 0x8003f3 <uart0_rx_char_write>

	dummy += UDR0;
    3ef8:	8c 91       	ld	r24, X
	uart0_rx_overrun = 0;
    3efa:	10 92 f2 03 	sts	0x03F2, r1	; 0x8003f2 <uart0_rx_overrun>
	uart0_rx_lines = 0;
    3efe:	10 92 f1 03 	sts	0x03F1, r1	; 0x8003f1 <uart0_rx_lines>

#if (USE_RX0_INTERRUPT)
	UCSR0B |= _BV(RXCIE0);          //RX ISR aktivieren
    3f02:	90 81       	ld	r25, Z
    3f04:	90 68       	ori	r25, 0x80	; 128
    3f06:	90 83       	st	Z, r25
#endif

    return dummy;
}
    3f08:	82 0f       	add	r24, r18
    3f0a:	08 95       	ret

00003f0c <UART0ReceiveLine>:
// -------------------------------------------------------------
// Zeile von UART lesen
// -------------------------------------------------------------

uint8_t UART0ReceiveLine()
{
    3f0c:	cf 93       	push	r28
	uint8_t uart0_rx_lenght = 0;

    if(uart0_rx_lines)
    3f0e:	c0 91 f1 03 	lds	r28, 0x03F1	; 0x8003f1 <uart0_rx_lines>
    3f12:	cc 23       	and	r28, r28
    3f14:	09 f4       	brne	.+2      	; 0x3f18 <UART0ReceiveLine+0xc>
    3f16:	40 c0       	rjmp	.+128    	; 0x3f98 <UART0ReceiveLine+0x8c>
    3f18:	80 e0       	ldi	r24, 0x00	; 0
    	while(uart0_rx_lenght < UART0_RX_BUFFER_LENGHT)
    	{
    		uart0_rx[uart0_rx_lenght] = uart0_rx_buffer[uart0_rx_char_read];
		
#if (USE_RX0_INTERRUPT)
    		UCSR0B &= ~_BV(RXCIE0);                         //RX Interrupt aus
    3f1a:	a1 ec       	ldi	r26, 0xC1	; 193
    3f1c:	b0 e0       	ldi	r27, 0x00	; 0

    if(uart0_rx_lines)
    {
    	while(uart0_rx_lenght < UART0_RX_BUFFER_LENGHT)
    	{
    		uart0_rx[uart0_rx_lenght] = uart0_rx_buffer[uart0_rx_char_read];
    3f1e:	28 2f       	mov	r18, r24
    3f20:	30 e0       	ldi	r19, 0x00	; 0
    3f22:	e0 91 f4 03 	lds	r30, 0x03F4	; 0x8003f4 <uart0_rx_char_read>
    3f26:	f0 e0       	ldi	r31, 0x00	; 0
    3f28:	e6 5c       	subi	r30, 0xC6	; 198
    3f2a:	f9 4f       	sbci	r31, 0xF9	; 249
    3f2c:	90 81       	ld	r25, Z
    3f2e:	f9 01       	movw	r30, r18
    3f30:	e2 50       	subi	r30, 0x02	; 2
    3f32:	fc 4f       	sbci	r31, 0xFC	; 252
    3f34:	90 83       	st	Z, r25
		
#if (USE_RX0_INTERRUPT)
    		UCSR0B &= ~_BV(RXCIE0);                         //RX Interrupt aus
    3f36:	9c 91       	ld	r25, X
    3f38:	9f 77       	andi	r25, 0x7F	; 127
    3f3a:	9c 93       	st	X, r25
#endif

    		uart0_rx_char_read++;
    3f3c:	90 91 f4 03 	lds	r25, 0x03F4	; 0x8003f4 <uart0_rx_char_read>
    3f40:	9f 5f       	subi	r25, 0xFF	; 255
    3f42:	90 93 f4 03 	sts	0x03F4, r25	; 0x8003f4 <uart0_rx_char_read>
    		if(uart0_rx_char_read == UART0_RX_BUFFER_LENGHT)
    3f46:	90 91 f4 03 	lds	r25, 0x03F4	; 0x8003f4 <uart0_rx_char_read>
    3f4a:	90 38       	cpi	r25, 0x80	; 128
    3f4c:	11 f4       	brne	.+4      	; 0x3f52 <UART0ReceiveLine+0x46>
    		{
    			uart0_rx_char_read = 0;
    3f4e:	10 92 f4 03 	sts	0x03F4, r1	; 0x8003f4 <uart0_rx_char_read>
    		}

    		uart0_rx_overrun = 0;
    3f52:	10 92 f2 03 	sts	0x03F2, r1	; 0x8003f2 <uart0_rx_overrun>

#if (USE_RX0_INTERRUPT)
	        UCSR0B |= _BV(RXCIE0);                          //RX ISR aktivieren
    3f56:	9c 91       	ld	r25, X
    3f58:	90 68       	ori	r25, 0x80	; 128
    3f5a:	9c 93       	st	X, r25
#endif

            if(uart0_rx[uart0_rx_lenght] == '\n')
    3f5c:	f9 01       	movw	r30, r18
    3f5e:	e2 50       	subi	r30, 0x02	; 2
    3f60:	fc 4f       	sbci	r31, 0xFC	; 252
    3f62:	90 81       	ld	r25, Z
    3f64:	9a 30       	cpi	r25, 0x0A	; 10
    3f66:	91 f4       	brne	.+36     	; 0x3f8c <UART0ReceiveLine+0x80>
            {

#if (USE_RX0_INTERRUPT)
    		    UCSR0B &= ~_BV(RXCIE0);						//RX Interrupt aus
    3f68:	e1 ec       	ldi	r30, 0xC1	; 193
    3f6a:	f0 e0       	ldi	r31, 0x00	; 0
    3f6c:	90 81       	ld	r25, Z
    3f6e:	9f 77       	andi	r25, 0x7F	; 127
    3f70:	90 83       	st	Z, r25
#endif

                uart0_rx_lines--;
    3f72:	90 91 f1 03 	lds	r25, 0x03F1	; 0x8003f1 <uart0_rx_lines>
    3f76:	91 50       	subi	r25, 0x01	; 1
    3f78:	90 93 f1 03 	sts	0x03F1, r25	; 0x8003f1 <uart0_rx_lines>

#if (USE_RX0_INTERRUPT)
                UCSR0B |= _BV(RXCIE0);                      //RX ISR aktivieren
    3f7c:	90 81       	ld	r25, Z
    3f7e:	90 68       	ori	r25, 0x80	; 128
    3f80:	90 83       	st	Z, r25
#endif

                uart0_rx[uart0_rx_lenght + 1] = 0x00;       //'\0' anhängen (String-Ende)
    3f82:	f9 01       	movw	r30, r18
    3f84:	e2 50       	subi	r30, 0x02	; 2
    3f86:	fc 4f       	sbci	r31, 0xFC	; 252
    3f88:	11 82       	std	Z+1, r1	; 0x01

                return uart0_rx_lenght;
    3f8a:	0c c0       	rjmp	.+24     	; 0x3fa4 <UART0ReceiveLine+0x98>
            }

            //'\0' nicht übernehmen (Übertragungsfehler)
    		if(uart0_rx[uart0_rx_lenght])
    3f8c:	91 11       	cpse	r25, r1
            {
                uart0_rx_lenght++;
    3f8e:	8f 5f       	subi	r24, 0xFF	; 255
{
	uint8_t uart0_rx_lenght = 0;

    if(uart0_rx_lines)
    {
    	while(uart0_rx_lenght < UART0_RX_BUFFER_LENGHT)
    3f90:	88 23       	and	r24, r24
    3f92:	2c f6       	brge	.-118    	; 0x3f1e <UART0ReceiveLine+0x12>
    else if(uart0_rx_overrun)
    {
        UART0ClearRx();
    }
    
    return 0;
    3f94:	80 e0       	ldi	r24, 0x00	; 0
    3f96:	06 c0       	rjmp	.+12     	; 0x3fa4 <UART0ReceiveLine+0x98>
            {
                uart0_rx_lenght++;
            }
    	}
    }
    else if(uart0_rx_overrun)
    3f98:	80 91 f2 03 	lds	r24, 0x03F2	; 0x8003f2 <uart0_rx_overrun>
    3f9c:	88 23       	and	r24, r24
    3f9e:	11 f0       	breq	.+4      	; 0x3fa4 <UART0ReceiveLine+0x98>
    {
        UART0ClearRx();
    3fa0:	9f df       	rcall	.-194    	; 0x3ee0 <UART0ClearRx>
    }
    
    return 0;
    3fa2:	8c 2f       	mov	r24, r28
}
    3fa4:	cf 91       	pop	r28
    3fa6:	08 95       	ret

00003fa8 <UART0TxByte>:
// -------------------------------------------------------------
// Byte an TX Buffer anhängen
// -------------------------------------------------------------

uint8_t UART0TxByte(char byte)
{
    3fa8:	38 2f       	mov	r19, r24
	if(uart0_tx_char_write == uart0_tx_char_read && !uart0_tx_empty) return 0;
    3faa:	20 91 ee 03 	lds	r18, 0x03EE	; 0x8003ee <__data_end>
    3fae:	90 91 ef 03 	lds	r25, 0x03EF	; 0x8003ef <uart0_tx_char_read>
    3fb2:	29 13       	cpse	r18, r25
    3fb4:	04 c0       	rjmp	.+8      	; 0x3fbe <UART0TxByte+0x16>
    3fb6:	80 91 00 02 	lds	r24, 0x0200	; 0x800200 <__data_start>
    3fba:	88 23       	and	r24, r24
    3fbc:	51 f1       	breq	.+84     	; 0x4012 <UART0TxByte+0x6a>

	uart0_tx_buffer[uart0_tx_char_write] = byte;
    3fbe:	e0 91 ee 03 	lds	r30, 0x03EE	; 0x8003ee <__data_end>
    3fc2:	f0 e0       	ldi	r31, 0x00	; 0
    3fc4:	e6 54       	subi	r30, 0x46	; 70
    3fc6:	fa 4f       	sbci	r31, 0xFA	; 250
    3fc8:	30 83       	st	Z, r19

#if (USE_TX0_INTERRUPT)
	UCSR0B &= ~_BV(TXCIE0);						//TX Interrupt aus
    3fca:	e1 ec       	ldi	r30, 0xC1	; 193
    3fcc:	f0 e0       	ldi	r31, 0x00	; 0
    3fce:	80 81       	ld	r24, Z
    3fd0:	8f 7b       	andi	r24, 0xBF	; 191
    3fd2:	80 83       	st	Z, r24
#endif

	uart0_tx_char_write++;
    3fd4:	80 91 ee 03 	lds	r24, 0x03EE	; 0x8003ee <__data_end>
    3fd8:	8f 5f       	subi	r24, 0xFF	; 255
    3fda:	80 93 ee 03 	sts	0x03EE, r24	; 0x8003ee <__data_end>
	if(uart0_tx_char_write == UART0_TX_BUFFER_LENGHT)
    3fde:	80 91 ee 03 	lds	r24, 0x03EE	; 0x8003ee <__data_end>
    3fe2:	80 38       	cpi	r24, 0x80	; 128
    3fe4:	11 f4       	brne	.+4      	; 0x3fea <UART0TxByte+0x42>
	{
		uart0_tx_char_write = 0;
    3fe6:	10 92 ee 03 	sts	0x03EE, r1	; 0x8003ee <__data_end>
	}
	
	if(uart0_tx_empty)
    3fea:	80 91 00 02 	lds	r24, 0x0200	; 0x800200 <__data_start>
    3fee:	88 23       	and	r24, r24
    3ff0:	51 f0       	breq	.+20     	; 0x4006 <UART0TxByte+0x5e>
        //enable TX_EN
        UART0_RS485_DE_PORT |= _BV(UART0_RS485_DE_PIN);
#endif
#endif

		UDR0 = uart0_tx_buffer[uart0_tx_char_read];		//sende erstes Zeichen
    3ff2:	e0 91 ef 03 	lds	r30, 0x03EF	; 0x8003ef <uart0_tx_char_read>
    3ff6:	f0 e0       	ldi	r31, 0x00	; 0
    3ff8:	e6 54       	subi	r30, 0x46	; 70
    3ffa:	fa 4f       	sbci	r31, 0xFA	; 250
    3ffc:	80 81       	ld	r24, Z
    3ffe:	80 93 c6 00 	sts	0x00C6, r24	; 0x8000c6 <__TEXT_REGION_LENGTH__+0x7000c6>

		uart0_tx_empty = 0;
    4002:	10 92 00 02 	sts	0x0200, r1	; 0x800200 <__data_start>
	}
	
#if (USE_TX0_INTERRUPT)
	UCSR0B |= _BV(TXCIE0);		//TX ISR aktivieren
    4006:	e1 ec       	ldi	r30, 0xC1	; 193
    4008:	f0 e0       	ldi	r31, 0x00	; 0
    400a:	80 81       	ld	r24, Z
    400c:	80 64       	ori	r24, 0x40	; 64
    400e:	80 83       	st	Z, r24
#endif

	return 1;
    4010:	81 e0       	ldi	r24, 0x01	; 1
}
    4012:	08 95       	ret

00004014 <UART0TransmitString>:
// -------------------------------------------------------------
// String auf UART ausgeben
// -------------------------------------------------------------

void UART0TransmitString(char *string)
{
    4014:	cf 93       	push	r28
    4016:	df 93       	push	r29
    4018:	ec 01       	movw	r28, r24
	while(*string)
    401a:	88 81       	ld	r24, Y
    401c:	88 23       	and	r24, r24
    401e:	41 f0       	breq	.+16     	; 0x4030 <UART0TransmitString+0x1c>
	{
		while(!UART0TxByte(*string));
    4020:	88 81       	ld	r24, Y
    4022:	c2 df       	rcall	.-124    	; 0x3fa8 <UART0TxByte>
    4024:	88 23       	and	r24, r24
    4026:	e1 f3       	breq	.-8      	; 0x4020 <UART0TransmitString+0xc>

	    string++;
    4028:	21 96       	adiw	r28, 0x01	; 1
// String auf UART ausgeben
// -------------------------------------------------------------

void UART0TransmitString(char *string)
{
	while(*string)
    402a:	88 81       	ld	r24, Y
    402c:	81 11       	cpse	r24, r1
    402e:	f8 cf       	rjmp	.-16     	; 0x4020 <UART0TransmitString+0xc>
	{
		while(!UART0TxByte(*string));

	    string++;
	}
}
    4030:	df 91       	pop	r29
    4032:	cf 91       	pop	r28
    4034:	08 95       	ret

00004036 <UART0TransmitStringLn>:
// -------------------------------------------------------------
// String & LF auf UART ausgeben
// -------------------------------------------------------------

void UART0TransmitStringLn(char *string)
{
    4036:	cf 93       	push	r28
    4038:	df 93       	push	r29
    403a:	ec 01       	movw	r28, r24
	while(*string)
    403c:	88 81       	ld	r24, Y
    403e:	88 23       	and	r24, r24
    4040:	41 f0       	breq	.+16     	; 0x4052 <UART0TransmitStringLn+0x1c>
	{
		while(!UART0TxByte(*string));
    4042:	88 81       	ld	r24, Y
    4044:	b1 df       	rcall	.-158    	; 0x3fa8 <UART0TxByte>
    4046:	88 23       	and	r24, r24
    4048:	e1 f3       	breq	.-8      	; 0x4042 <UART0TransmitStringLn+0xc>

	    string++;
    404a:	21 96       	adiw	r28, 0x01	; 1
// String & LF auf UART ausgeben
// -------------------------------------------------------------

void UART0TransmitStringLn(char *string)
{
	while(*string)
    404c:	88 81       	ld	r24, Y
    404e:	81 11       	cpse	r24, r1
    4050:	f8 cf       	rjmp	.-16     	; 0x4042 <UART0TransmitStringLn+0xc>
		while(!UART0TxByte(*string));

	    string++;
	}
	
	while(!UART0TxByte('\n'));			// <LF> anhängen
    4052:	8a e0       	ldi	r24, 0x0A	; 10
    4054:	a9 df       	rcall	.-174    	; 0x3fa8 <UART0TxByte>
    4056:	88 23       	and	r24, r24
    4058:	e1 f3       	breq	.-8      	; 0x4052 <UART0TransmitStringLn+0x1c>
}
    405a:	df 91       	pop	r29
    405c:	cf 91       	pop	r28
    405e:	08 95       	ret

00004060 <USART_SPI_InitBaudrate>:
// USART Schnittstelle initialisieren					 (Check)
// -------------------------------------------------------------

void USART_SPI_Init()
{
    USART_SPI_InitBaudrate(USART_SPI_BAUD);
    4060:	10 92 d5 00 	sts	0x00D5, r1	; 0x8000d5 <__TEXT_REGION_LENGTH__+0x7000d5>
    4064:	10 92 d4 00 	sts	0x00D4, r1	; 0x8000d4 <__TEXT_REGION_LENGTH__+0x7000d4>
    4068:	28 9a       	sbi	0x05, 0	; 5
    406a:	23 98       	cbi	0x04, 3	; 4
    406c:	22 9a       	sbi	0x04, 2	; 4
    406e:	21 9a       	sbi	0x04, 1	; 4
    4070:	84 e5       	ldi	r24, 0x54	; 84
    4072:	8c bd       	out	0x2c, r24	; 44
    4074:	8c b5       	in	r24, 0x2c	; 44
    4076:	80 68       	ori	r24, 0x80	; 128
    4078:	8c bd       	out	0x2c, r24	; 44
    407a:	8c b5       	in	r24, 0x2c	; 44
    407c:	80 68       	ori	r24, 0x80	; 128
    407e:	8c bd       	out	0x2c, r24	; 44
    4080:	8c b5       	in	r24, 0x2c	; 44
    4082:	83 60       	ori	r24, 0x03	; 3
    4084:	8c bd       	out	0x2c, r24	; 44
    4086:	08 95       	ret

00004088 <USART_SPI_SetCS>:
// USART SPI CS setzen & umschalten						 (Check)
// -------------------------------------------------------------

void USART_SPI_SetCS(volatile uint8_t *csr, uint8_t csp, uint8_t neg, uint8_t len)
{
    usart_spi_cs_port = csr;
    4088:	90 93 03 02 	sts	0x0203, r25	; 0x800203 <usart_spi_cs_port+0x1>
    408c:	80 93 02 02 	sts	0x0202, r24	; 0x800202 <usart_spi_cs_port>
    usart_spi_cs_pin = csp;
    4090:	60 93 f7 03 	sts	0x03F7, r22	; 0x8003f7 <usart_spi_cs_pin>
    usart_spi_cs_neg = neg;
    4094:	40 93 f6 03 	sts	0x03F6, r20	; 0x8003f6 <usart_spi_cs_neg>
    usart_spi_cs_len = len;
    4098:	20 93 01 02 	sts	0x0201, r18	; 0x800201 <usart_spi_cs_len>
    409c:	08 95       	ret

0000409e <USART_SPI_ToggleCS>:
}

void USART_SPI_ToggleCS(uint8_t set)
{
	if ((usart_spi_cs_neg && set) || (!usart_spi_cs_neg && !set))
    409e:	90 91 f6 03 	lds	r25, 0x03F6	; 0x8003f6 <usart_spi_cs_neg>
    40a2:	99 23       	and	r25, r25
    40a4:	19 f0       	breq	.+6      	; 0x40ac <USART_SPI_ToggleCS+0xe>
    40a6:	88 23       	and	r24, r24
    40a8:	a9 f0       	breq	.+42     	; 0x40d4 <USART_SPI_ToggleCS+0x36>
    40aa:	02 c0       	rjmp	.+4      	; 0x40b0 <USART_SPI_ToggleCS+0x12>
    40ac:	81 11       	cpse	r24, r1
    40ae:	12 c0       	rjmp	.+36     	; 0x40d4 <USART_SPI_ToggleCS+0x36>
	{
		//Clear
		*usart_spi_cs_port &= ~_BV(usart_spi_cs_pin);
    40b0:	e0 91 02 02 	lds	r30, 0x0202	; 0x800202 <usart_spi_cs_port>
    40b4:	f0 91 03 02 	lds	r31, 0x0203	; 0x800203 <usart_spi_cs_port+0x1>
    40b8:	20 81       	ld	r18, Z
    40ba:	81 e0       	ldi	r24, 0x01	; 1
    40bc:	90 e0       	ldi	r25, 0x00	; 0
    40be:	00 90 f7 03 	lds	r0, 0x03F7	; 0x8003f7 <usart_spi_cs_pin>
    40c2:	02 c0       	rjmp	.+4      	; 0x40c8 <USART_SPI_ToggleCS+0x2a>
    40c4:	88 0f       	add	r24, r24
    40c6:	99 1f       	adc	r25, r25
    40c8:	0a 94       	dec	r0
    40ca:	e2 f7       	brpl	.-8      	; 0x40c4 <USART_SPI_ToggleCS+0x26>
    40cc:	80 95       	com	r24
    40ce:	82 23       	and	r24, r18
    40d0:	80 83       	st	Z, r24
    40d2:	08 95       	ret
	}
	else
	{
		//Set
		*usart_spi_cs_port |= _BV(usart_spi_cs_pin);
    40d4:	e0 91 02 02 	lds	r30, 0x0202	; 0x800202 <usart_spi_cs_port>
    40d8:	f0 91 03 02 	lds	r31, 0x0203	; 0x800203 <usart_spi_cs_port+0x1>
    40dc:	20 81       	ld	r18, Z
    40de:	81 e0       	ldi	r24, 0x01	; 1
    40e0:	90 e0       	ldi	r25, 0x00	; 0
    40e2:	00 90 f7 03 	lds	r0, 0x03F7	; 0x8003f7 <usart_spi_cs_pin>
    40e6:	02 c0       	rjmp	.+4      	; 0x40ec <USART_SPI_ToggleCS+0x4e>
    40e8:	88 0f       	add	r24, r24
    40ea:	99 1f       	adc	r25, r25
    40ec:	0a 94       	dec	r0
    40ee:	e2 f7       	brpl	.-8      	; 0x40e8 <USART_SPI_ToggleCS+0x4a>
    40f0:	82 2b       	or	r24, r18
    40f2:	80 83       	st	Z, r24
    40f4:	08 95       	ret

000040f6 <USART_SPI_ReceiveLen>:
// -------------------------------------------------------------
// Anzahl Zeichen von UART lesen						 (Check)
// -------------------------------------------------------------

uint8_t USART_SPI_ReceiveLen(uint8_t len)
{
    40f6:	81 34       	cpi	r24, 0x41	; 65
    40f8:	08 f0       	brcs	.+2      	; 0x40fc <USART_SPI_ReceiveLen+0x6>
    40fa:	80 e4       	ldi	r24, 0x40	; 64
    40fc:	a0 ec       	ldi	r26, 0xC0	; 192
    40fe:	b4 e0       	ldi	r27, 0x04	; 4
    4100:	20 e0       	ldi	r18, 0x00	; 0
    4102:	15 c0       	rjmp	.+42     	; 0x412e <USART_SPI_ReceiveLen+0x38>
		if (len > USART_SPI_RX_BUFFER_LENGHT) len = USART_SPI_RX_BUFFER_LENGHT;

		while((usart_spi_rx_char_read != usart_spi_rx_char_write || usart_spi_rx_buffer_overrun) && usart_spi_rx_lenght < len)
		{
			//Zeichen in RX Array übertragen
			usart_spi_rx[usart_spi_rx_lenght] = usart_spi_rx_buffer[usart_spi_rx_char_read];
    4104:	e0 91 fd 03 	lds	r30, 0x03FD	; 0x8003fd <usart_spi_rx_char_read>
    4108:	f0 e0       	ldi	r31, 0x00	; 0
    410a:	e6 50       	subi	r30, 0x06	; 6
    410c:	f9 4f       	sbci	r31, 0xF9	; 249
    410e:	90 81       	ld	r25, Z
    4110:	9d 93       	st	X+, r25
			//Nächste stelle
			usart_spi_rx_lenght++;
    4112:	2f 5f       	subi	r18, 0xFF	; 255

			#if (USART_SPI_RX_INTERRUPT)
			SPCR &= ~_BV(SPIE);						//RX Interrupt aus
			#endif

			usart_spi_rx_char_read++;
    4114:	90 91 fd 03 	lds	r25, 0x03FD	; 0x8003fd <usart_spi_rx_char_read>
    4118:	9f 5f       	subi	r25, 0xFF	; 255
    411a:	90 93 fd 03 	sts	0x03FD, r25	; 0x8003fd <usart_spi_rx_char_read>

			//Ring-Buffer am Ende, reset
			if(usart_spi_rx_char_read == USART_SPI_RX_BUFFER_LENGHT)
    411e:	90 91 fd 03 	lds	r25, 0x03FD	; 0x8003fd <usart_spi_rx_char_read>
    4122:	90 34       	cpi	r25, 0x40	; 64
    4124:	11 f4       	brne	.+4      	; 0x412a <USART_SPI_ReceiveLen+0x34>
			{
				usart_spi_rx_char_read = 0;
    4126:	10 92 fd 03 	sts	0x03FD, r1	; 0x8003fd <usart_spi_rx_char_read>
			}

			usart_spi_rx_buffer_overrun = 0;
    412a:	10 92 fb 03 	sts	0x03FB, r1	; 0x8003fb <usart_spi_rx_buffer_overrun>
		uint8_t usart_spi_rx_lenght = 0;

		//Maxi: Verhindern das nicht mehr Daten abgeholt werden als Buffer lang ist
		if (len > USART_SPI_RX_BUFFER_LENGHT) len = USART_SPI_RX_BUFFER_LENGHT;

		while((usart_spi_rx_char_read != usart_spi_rx_char_write || usart_spi_rx_buffer_overrun) && usart_spi_rx_lenght < len)
    412e:	30 91 fd 03 	lds	r19, 0x03FD	; 0x8003fd <usart_spi_rx_char_read>
    4132:	90 91 fc 03 	lds	r25, 0x03FC	; 0x8003fc <usart_spi_rx_char_write>
    4136:	39 13       	cpse	r19, r25
    4138:	04 c0       	rjmp	.+8      	; 0x4142 <USART_SPI_ReceiveLen+0x4c>
    413a:	90 91 fb 03 	lds	r25, 0x03FB	; 0x8003fb <usart_spi_rx_buffer_overrun>
    413e:	99 23       	and	r25, r25
    4140:	19 f0       	breq	.+6      	; 0x4148 <USART_SPI_ReceiveLen+0x52>
    4142:	28 13       	cpse	r18, r24
    4144:	df cf       	rjmp	.-66     	; 0x4104 <USART_SPI_ReceiveLen+0xe>
    4146:	08 95       	ret
    4148:	82 2f       	mov	r24, r18
			#endif

		}

		return usart_spi_rx_lenght;
}
    414a:	08 95       	ret

0000414c <USART_SPI_RXWaiting>:
// Anzahl Zeichen im RX bzw. TX Buffer					 (Check)
// -------------------------------------------------------------

uint8_t USART_SPI_RXWaiting()
{
	if(usart_spi_rx_buffer_overrun) return USART_SPI_RX_BUFFER_LENGHT;
    414c:	80 91 fb 03 	lds	r24, 0x03FB	; 0x8003fb <usart_spi_rx_buffer_overrun>
    4150:	81 11       	cpse	r24, r1
    4152:	06 c0       	rjmp	.+12     	; 0x4160 <USART_SPI_RXWaiting+0x14>
	else return (usart_spi_rx_char_write - usart_spi_rx_char_read);
    4154:	80 91 fc 03 	lds	r24, 0x03FC	; 0x8003fc <usart_spi_rx_char_write>
    4158:	90 91 fd 03 	lds	r25, 0x03FD	; 0x8003fd <usart_spi_rx_char_read>
    415c:	89 1b       	sub	r24, r25
    415e:	08 95       	ret
// Anzahl Zeichen im RX bzw. TX Buffer					 (Check)
// -------------------------------------------------------------

uint8_t USART_SPI_RXWaiting()
{
	if(usart_spi_rx_buffer_overrun) return USART_SPI_RX_BUFFER_LENGHT;
    4160:	80 e4       	ldi	r24, 0x40	; 64
	else return (usart_spi_rx_char_write - usart_spi_rx_char_read);
}
    4162:	08 95       	ret

00004164 <USART_SPI_TXWaiting>:

uint8_t USART_SPI_TXWaiting()
{
	return usart_spi_tx_char_write - usart_spi_tx_char_read;
    4164:	80 91 f8 03 	lds	r24, 0x03F8	; 0x8003f8 <usart_spi_tx_char_write>
    4168:	90 91 f9 03 	lds	r25, 0x03F9	; 0x8003f9 <usart_spi_tx_char_read>
}
    416c:	89 1b       	sub	r24, r25
    416e:	08 95       	ret

00004170 <USART_SPI_ClearRx>:
uint8_t USART_SPI_ClearRx()
{
	uint8_t dummy;

#if (USART_SPI_USE_RX_INTERRUPT)
	SPCR &= ~_BV(SPIE);         //RX Interrupt aus
    4170:	8c b5       	in	r24, 0x2c	; 44
    4172:	8f 77       	andi	r24, 0x7F	; 127
    4174:	8c bd       	out	0x2c, r24	; 44
#endif

	dummy = SPDR;
    4176:	2e b5       	in	r18, 0x2e	; 46
	usart_spi_rx_char_read = 0;
    4178:	10 92 fd 03 	sts	0x03FD, r1	; 0x8003fd <usart_spi_rx_char_read>
	usart_spi_rx_char_write = 0;
    417c:	10 92 fc 03 	sts	0x03FC, r1	; 0x8003fc <usart_spi_rx_char_write>
    
	dummy += SPDR;
    4180:	8e b5       	in	r24, 0x2e	; 46
	usart_spi_rx_buffer_overrun = 0;
    4182:	10 92 fb 03 	sts	0x03FB, r1	; 0x8003fb <usart_spi_rx_buffer_overrun>

#if (USART_SPI_USE_RX_INTERRUPT)
	SPCR |= _BV(SPIE);          //RX ISR aktivieren
    4186:	9c b5       	in	r25, 0x2c	; 44
    4188:	90 68       	ori	r25, 0x80	; 128
    418a:	9c bd       	out	0x2c, r25	; 44
#endif

    return dummy;
}
    418c:	82 0f       	add	r24, r18
    418e:	08 95       	ret

00004190 <__vector_51>:
**	
*/

//Wird nie ausgelöst
ISR(USART2_RX_vect)
{
    4190:	1f 92       	push	r1
    4192:	0f 92       	push	r0
    4194:	0f b6       	in	r0, 0x3f	; 63
    4196:	0f 92       	push	r0
    4198:	11 24       	eor	r1, r1
    419a:	0b b6       	in	r0, 0x3b	; 59
    419c:	0f 92       	push	r0
    419e:	2f 93       	push	r18
    41a0:	3f 93       	push	r19
    41a2:	4f 93       	push	r20
    41a4:	5f 93       	push	r21
    41a6:	6f 93       	push	r22
    41a8:	7f 93       	push	r23
    41aa:	8f 93       	push	r24
    41ac:	9f 93       	push	r25
    41ae:	af 93       	push	r26
    41b0:	bf 93       	push	r27
    41b2:	ef 93       	push	r30
    41b4:	ff 93       	push	r31
// -------------------------------------------------------------

inline void _USART_SPI_RxBuffer()
{
	//Ring-Buffer nicht voll
	if(!usart_spi_rx_buffer_overrun)
    41b6:	80 91 fb 03 	lds	r24, 0x03FB	; 0x8003fb <usart_spi_rx_buffer_overrun>
    41ba:	81 11       	cpse	r24, r1
    41bc:	24 c0       	rjmp	.+72     	; 0x4206 <__vector_51+0x76>
	{
		//Maxi: Daten wurden in SPDR (SPI Data Register) abgelegt
		//Maxi: Daten werdein in eingenen Buffer übernommen an aktuelle Stelle geschrieben
		usart_spi_rx_buffer[usart_spi_rx_char_write] = SPDR;
    41be:	e0 91 fc 03 	lds	r30, 0x03FC	; 0x8003fc <usart_spi_rx_char_write>
    41c2:	f0 e0       	ldi	r31, 0x00	; 0
    41c4:	8e b5       	in	r24, 0x2e	; 46
    41c6:	e6 50       	subi	r30, 0x06	; 6
    41c8:	f9 4f       	sbci	r31, 0xF9	; 249
    41ca:	80 83       	st	Z, r24

		//Maxi: aktuelle Stelle hochzählen
		usart_spi_rx_char_write++;
    41cc:	80 91 fc 03 	lds	r24, 0x03FC	; 0x8003fc <usart_spi_rx_char_write>
    41d0:	8f 5f       	subi	r24, 0xFF	; 255
    41d2:	80 93 fc 03 	sts	0x03FC, r24	; 0x8003fc <usart_spi_rx_char_write>

		//Ring-Buffer am Ende, reset
		//Maxi: Wenn an letzer stelle angekommen, dann auf 0 setzen
		if(usart_spi_rx_char_write == USART_SPI_RX_BUFFER_LENGHT)
    41d6:	80 91 fc 03 	lds	r24, 0x03FC	; 0x8003fc <usart_spi_rx_char_write>
    41da:	80 34       	cpi	r24, 0x40	; 64
    41dc:	11 f4       	brne	.+4      	; 0x41e2 <__vector_51+0x52>
		{
			usart_spi_rx_char_write = 0;
    41de:	10 92 fc 03 	sts	0x03FC, r1	; 0x8003fc <usart_spi_rx_char_write>
		}

		//Ring-Buffer voll (zu wenig Daten abgeholt)
		if(usart_spi_rx_char_write == usart_spi_rx_char_read)
    41e2:	90 91 fc 03 	lds	r25, 0x03FC	; 0x8003fc <usart_spi_rx_char_write>
    41e6:	80 91 fd 03 	lds	r24, 0x03FD	; 0x8003fd <usart_spi_rx_char_read>
    41ea:	98 13       	cpse	r25, r24
    41ec:	03 c0       	rjmp	.+6      	; 0x41f4 <__vector_51+0x64>
		{
			usart_spi_rx_buffer_overrun = 1;
    41ee:	81 e0       	ldi	r24, 0x01	; 1
    41f0:	80 93 fb 03 	sts	0x03FB, r24	; 0x8003fb <usart_spi_rx_buffer_overrun>
		}
		//Wenn alle Bits gelesen, Flag zurücksetzen
		if (usart_spi_byte_count == usart_spi_cs_len)
    41f4:	90 91 f5 03 	lds	r25, 0x03F5	; 0x8003f5 <usart_spi_byte_count>
    41f8:	80 91 01 02 	lds	r24, 0x0201	; 0x800201 <usart_spi_cs_len>
    41fc:	98 13       	cpse	r25, r24
    41fe:	04 c0       	rjmp	.+8      	; 0x4208 <__vector_51+0x78>
		{
			usart_spi_rx_flag = 0;
    4200:	10 92 fa 03 	sts	0x03FA, r1	; 0x8003fa <usart_spi_rx_flag>
    4204:	01 c0       	rjmp	.+2      	; 0x4208 <__vector_51+0x78>
		}
	}
	else
	{
		USART_SPI_ClearRx();
    4206:	b4 df       	rcall	.-152    	; 0x4170 <USART_SPI_ClearRx>

//Wird nie ausgelöst
ISR(USART2_RX_vect)
{
	_USART_SPI_RxBuffer();
	TransmitStringLn("ja");
    4208:	8b ee       	ldi	r24, 0xEB	; 235
    420a:	93 e0       	ldi	r25, 0x03	; 3
    420c:	0b d8       	rcall	.-4074   	; 0x3224 <TransmitStringLn>
}
    420e:	ff 91       	pop	r31
    4210:	ef 91       	pop	r30
    4212:	bf 91       	pop	r27
    4214:	af 91       	pop	r26
    4216:	9f 91       	pop	r25
    4218:	8f 91       	pop	r24
    421a:	7f 91       	pop	r23
    421c:	6f 91       	pop	r22
    421e:	5f 91       	pop	r21
    4220:	4f 91       	pop	r20
    4222:	3f 91       	pop	r19
    4224:	2f 91       	pop	r18
    4226:	0f 90       	pop	r0
    4228:	0b be       	out	0x3b, r0	; 59
    422a:	0f 90       	pop	r0
    422c:	0f be       	out	0x3f, r0	; 63
    422e:	0f 90       	pop	r0
    4230:	1f 90       	pop	r1
    4232:	18 95       	reti

00004234 <__vector_24>:
**	
*/

//Wird ausgelöst wenn Byte gesendet wurde
ISR(SPI_STC_vect)
{
    4234:	1f 92       	push	r1
    4236:	0f 92       	push	r0
    4238:	0f b6       	in	r0, 0x3f	; 63
    423a:	0f 92       	push	r0
    423c:	11 24       	eor	r1, r1
    423e:	0b b6       	in	r0, 0x3b	; 59
    4240:	0f 92       	push	r0
    4242:	2f 93       	push	r18
    4244:	3f 93       	push	r19
    4246:	4f 93       	push	r20
    4248:	5f 93       	push	r21
    424a:	6f 93       	push	r22
    424c:	7f 93       	push	r23
    424e:	8f 93       	push	r24
    4250:	9f 93       	push	r25
    4252:	af 93       	push	r26
    4254:	bf 93       	push	r27
    4256:	ef 93       	push	r30
    4258:	ff 93       	push	r31
	if(usart_spi_rx_flag){_USART_SPI_RxBuffer();}	//edit Maxi	
    425a:	80 91 fa 03 	lds	r24, 0x03FA	; 0x8003fa <usart_spi_rx_flag>
    425e:	88 23       	and	r24, r24
    4260:	49 f1       	breq	.+82     	; 0x42b4 <__vector_24+0x80>
// -------------------------------------------------------------

inline void _USART_SPI_RxBuffer()
{
	//Ring-Buffer nicht voll
	if(!usart_spi_rx_buffer_overrun)
    4262:	80 91 fb 03 	lds	r24, 0x03FB	; 0x8003fb <usart_spi_rx_buffer_overrun>
    4266:	81 11       	cpse	r24, r1
    4268:	24 c0       	rjmp	.+72     	; 0x42b2 <__vector_24+0x7e>
	{
		//Maxi: Daten wurden in SPDR (SPI Data Register) abgelegt
		//Maxi: Daten werdein in eingenen Buffer übernommen an aktuelle Stelle geschrieben
		usart_spi_rx_buffer[usart_spi_rx_char_write] = SPDR;
    426a:	e0 91 fc 03 	lds	r30, 0x03FC	; 0x8003fc <usart_spi_rx_char_write>
    426e:	f0 e0       	ldi	r31, 0x00	; 0
    4270:	8e b5       	in	r24, 0x2e	; 46
    4272:	e6 50       	subi	r30, 0x06	; 6
    4274:	f9 4f       	sbci	r31, 0xF9	; 249
    4276:	80 83       	st	Z, r24

		//Maxi: aktuelle Stelle hochzählen
		usart_spi_rx_char_write++;
    4278:	80 91 fc 03 	lds	r24, 0x03FC	; 0x8003fc <usart_spi_rx_char_write>
    427c:	8f 5f       	subi	r24, 0xFF	; 255
    427e:	80 93 fc 03 	sts	0x03FC, r24	; 0x8003fc <usart_spi_rx_char_write>

		//Ring-Buffer am Ende, reset
		//Maxi: Wenn an letzer stelle angekommen, dann auf 0 setzen
		if(usart_spi_rx_char_write == USART_SPI_RX_BUFFER_LENGHT)
    4282:	80 91 fc 03 	lds	r24, 0x03FC	; 0x8003fc <usart_spi_rx_char_write>
    4286:	80 34       	cpi	r24, 0x40	; 64
    4288:	11 f4       	brne	.+4      	; 0x428e <__vector_24+0x5a>
		{
			usart_spi_rx_char_write = 0;
    428a:	10 92 fc 03 	sts	0x03FC, r1	; 0x8003fc <usart_spi_rx_char_write>
		}

		//Ring-Buffer voll (zu wenig Daten abgeholt)
		if(usart_spi_rx_char_write == usart_spi_rx_char_read)
    428e:	90 91 fc 03 	lds	r25, 0x03FC	; 0x8003fc <usart_spi_rx_char_write>
    4292:	80 91 fd 03 	lds	r24, 0x03FD	; 0x8003fd <usart_spi_rx_char_read>
    4296:	98 13       	cpse	r25, r24
    4298:	03 c0       	rjmp	.+6      	; 0x42a0 <__vector_24+0x6c>
		{
			usart_spi_rx_buffer_overrun = 1;
    429a:	81 e0       	ldi	r24, 0x01	; 1
    429c:	80 93 fb 03 	sts	0x03FB, r24	; 0x8003fb <usart_spi_rx_buffer_overrun>
		}
		//Wenn alle Bits gelesen, Flag zurücksetzen
		if (usart_spi_byte_count == usart_spi_cs_len)
    42a0:	90 91 f5 03 	lds	r25, 0x03F5	; 0x8003f5 <usart_spi_byte_count>
    42a4:	80 91 01 02 	lds	r24, 0x0201	; 0x800201 <usart_spi_cs_len>
    42a8:	98 13       	cpse	r25, r24
    42aa:	0e c0       	rjmp	.+28     	; 0x42c8 <__vector_24+0x94>
		{
			usart_spi_rx_flag = 0;
    42ac:	10 92 fa 03 	sts	0x03FA, r1	; 0x8003fa <usart_spi_rx_flag>
    42b0:	07 c0       	rjmp	.+14     	; 0x42c0 <__vector_24+0x8c>
		}
	}
	else
	{
		USART_SPI_ClearRx();
    42b2:	5e df       	rcall	.-324    	; 0x4170 <USART_SPI_ClearRx>
// -------------------------------------------------------------

inline void _USART_SPI_TxBuffer()
{
	//Wenn alle Bits gesendet wurden --> CS zurück + byte_counter zuückseten
    if (usart_spi_byte_count == usart_spi_cs_len)
    42b4:	90 91 f5 03 	lds	r25, 0x03F5	; 0x8003f5 <usart_spi_byte_count>
    42b8:	80 91 01 02 	lds	r24, 0x0201	; 0x800201 <usart_spi_cs_len>
    42bc:	98 13       	cpse	r25, r24
    42be:	04 c0       	rjmp	.+8      	; 0x42c8 <__vector_24+0x94>
    {
        USART_SPI_ToggleCS(0);
    42c0:	80 e0       	ldi	r24, 0x00	; 0
    42c2:	ed de       	rcall	.-550    	; 0x409e <USART_SPI_ToggleCS>
        usart_spi_byte_count = 0;
    42c4:	10 92 f5 03 	sts	0x03F5, r1	; 0x8003f5 <usart_spi_byte_count>
    }

    //Noch zeichen zum senden vorhanden
	if(!usart_spi_tx_buffer_empty)
    42c8:	80 91 04 02 	lds	r24, 0x0204	; 0x800204 <usart_spi_tx_buffer_empty>
    42cc:	81 11       	cpse	r24, r1
    42ce:	23 c0       	rjmp	.+70     	; 0x4316 <__vector_24+0xe2>
	{
		//Zeichen im Hardware-Buffer
        //while ( !( SPSR & _BV(UDRE2) ) );

        usart_spi_tx_char_read++;
    42d0:	80 91 f9 03 	lds	r24, 0x03F9	; 0x8003f9 <usart_spi_tx_char_read>
    42d4:	8f 5f       	subi	r24, 0xFF	; 255
    42d6:	80 93 f9 03 	sts	0x03F9, r24	; 0x8003f9 <usart_spi_tx_char_read>

		//Ring-Buffer am Ende, reset
        if(usart_spi_tx_char_read == USART_SPI_TX_BUFFER_LENGHT)
    42da:	80 91 f9 03 	lds	r24, 0x03F9	; 0x8003f9 <usart_spi_tx_char_read>
    42de:	80 34       	cpi	r24, 0x40	; 64
    42e0:	11 f4       	brne	.+4      	; 0x42e6 <__vector_24+0xb2>
		{
			usart_spi_tx_char_read = 0;
    42e2:	10 92 f9 03 	sts	0x03F9, r1	; 0x8003f9 <usart_spi_tx_char_read>
		}

		//Alle Zeichen im Buffer gesendet?
		// --> Flag setzen
		if(usart_spi_tx_char_write == usart_spi_tx_char_read)
    42e6:	90 91 f8 03 	lds	r25, 0x03F8	; 0x8003f8 <usart_spi_tx_char_write>
    42ea:	80 91 f9 03 	lds	r24, 0x03F9	; 0x8003f9 <usart_spi_tx_char_read>
    42ee:	98 13       	cpse	r25, r24
    42f0:	04 c0       	rjmp	.+8      	; 0x42fa <__vector_24+0xc6>
		{
			usart_spi_tx_buffer_empty = 1;
    42f2:	81 e0       	ldi	r24, 0x01	; 1
    42f4:	80 93 04 02 	sts	0x0204, r24	; 0x800204 <usart_spi_tx_buffer_empty>
		}
        // --> nächstes zeichen senden
		else
		{
            USART_SPI_ToggleCS(1);
    42f8:	0e c0       	rjmp	.+28     	; 0x4316 <__vector_24+0xe2>
    42fa:	81 e0       	ldi	r24, 0x01	; 1
    42fc:	d0 de       	rcall	.-608    	; 0x409e <USART_SPI_ToggleCS>
			SPDR = usart_spi_tx_buffer[usart_spi_tx_char_read];
    42fe:	e0 91 f9 03 	lds	r30, 0x03F9	; 0x8003f9 <usart_spi_tx_char_read>
    4302:	f0 e0       	ldi	r31, 0x00	; 0
    4304:	e6 54       	subi	r30, 0x46	; 70
    4306:	f9 4f       	sbci	r31, 0xF9	; 249
    4308:	80 81       	ld	r24, Z
    430a:	8e bd       	out	0x2e, r24	; 46
            usart_spi_byte_count++;
    430c:	80 91 f5 03 	lds	r24, 0x03F5	; 0x8003f5 <usart_spi_byte_count>
    4310:	8f 5f       	subi	r24, 0xFF	; 255
    4312:	80 93 f5 03 	sts	0x03F5, r24	; 0x8003f5 <usart_spi_byte_count>
//Wird ausgelöst wenn Byte gesendet wurde
ISR(SPI_STC_vect)
{
	if(usart_spi_rx_flag){_USART_SPI_RxBuffer();}	//edit Maxi	
	_USART_SPI_TxBuffer();	
}
    4316:	ff 91       	pop	r31
    4318:	ef 91       	pop	r30
    431a:	bf 91       	pop	r27
    431c:	af 91       	pop	r26
    431e:	9f 91       	pop	r25
    4320:	8f 91       	pop	r24
    4322:	7f 91       	pop	r23
    4324:	6f 91       	pop	r22
    4326:	5f 91       	pop	r21
    4328:	4f 91       	pop	r20
    432a:	3f 91       	pop	r19
    432c:	2f 91       	pop	r18
    432e:	0f 90       	pop	r0
    4330:	0b be       	out	0x3b, r0	; 59
    4332:	0f 90       	pop	r0
    4334:	0f be       	out	0x3f, r0	; 63
    4336:	0f 90       	pop	r0
    4338:	1f 90       	pop	r1
    433a:	18 95       	reti

0000433c <USART_SPI_TxByte>:
// -------------------------------------------------------------

#include <util/delay.h>

uint8_t USART_SPI_TxByte(char byte)
{	
    433c:	38 2f       	mov	r19, r24
	//Abbruchbedingung für schreiben in tx_Buffer
	//Nur wenn Ring_Buffer vollgeschrieben ist (senden der Daten zu langsam)
	//Nur der fall, falls write und read counter gleich, aber schon Daten im Buffer
    if(usart_spi_tx_char_write == usart_spi_tx_char_read && !usart_spi_tx_buffer_empty) return 0;
    433e:	20 91 f8 03 	lds	r18, 0x03F8	; 0x8003f8 <usart_spi_tx_char_write>
    4342:	90 91 f9 03 	lds	r25, 0x03F9	; 0x8003f9 <usart_spi_tx_char_read>
    4346:	29 13       	cpse	r18, r25
    4348:	04 c0       	rjmp	.+8      	; 0x4352 <USART_SPI_TxByte+0x16>
    434a:	80 91 04 02 	lds	r24, 0x0204	; 0x800204 <usart_spi_tx_buffer_empty>
    434e:	88 23       	and	r24, r24
    4350:	61 f1       	breq	.+88     	; 0x43aa <USART_SPI_TxByte+0x6e>

	//Byte in Buffer legen
	usart_spi_tx_buffer[usart_spi_tx_char_write] = byte;
    4352:	e0 91 f8 03 	lds	r30, 0x03F8	; 0x8003f8 <usart_spi_tx_char_write>
    4356:	f0 e0       	ldi	r31, 0x00	; 0
    4358:	e6 54       	subi	r30, 0x46	; 70
    435a:	f9 4f       	sbci	r31, 0xF9	; 249
    435c:	30 83       	st	Z, r19

#if (USART_SPI_USE_TX_INTERRUPT)
	SPCR &= ~_BV(SPIE);						//TX Interrupt aus
    435e:	8c b5       	in	r24, 0x2c	; 44
    4360:	8f 77       	andi	r24, 0x7F	; 127
    4362:	8c bd       	out	0x2c, r24	; 44
#endif

	//Buffer-Counter hochzählen
	usart_spi_tx_char_write++;
    4364:	80 91 f8 03 	lds	r24, 0x03F8	; 0x8003f8 <usart_spi_tx_char_write>
    4368:	8f 5f       	subi	r24, 0xFF	; 255
    436a:	80 93 f8 03 	sts	0x03F8, r24	; 0x8003f8 <usart_spi_tx_char_write>
	
    //Ring-Buffer überlauf prüfen
    if(usart_spi_tx_char_write == USART_SPI_TX_BUFFER_LENGHT)
    436e:	80 91 f8 03 	lds	r24, 0x03F8	; 0x8003f8 <usart_spi_tx_char_write>
    4372:	80 34       	cpi	r24, 0x40	; 64
    4374:	11 f4       	brne	.+4      	; 0x437a <USART_SPI_TxByte+0x3e>
	{
		usart_spi_tx_char_write = 0;
    4376:	10 92 f8 03 	sts	0x03F8, r1	; 0x8003f8 <usart_spi_tx_char_write>
	}

	
	//Neue Übertragung starten (würd nur für erste Byte ausgelöst, alle andern über Interrupt)
    if(usart_spi_tx_buffer_empty)
    437a:	80 91 04 02 	lds	r24, 0x0204	; 0x800204 <usart_spi_tx_buffer_empty>
    437e:	88 23       	and	r24, r24
    4380:	81 f0       	breq	.+32     	; 0x43a2 <USART_SPI_TxByte+0x66>
	{
		//CS low setzen
        USART_SPI_ToggleCS(1);
    4382:	81 e0       	ldi	r24, 0x01	; 1
    4384:	8c de       	rcall	.-744    	; 0x409e <USART_SPI_ToggleCS>

		//Senden
		SPDR = usart_spi_tx_buffer[usart_spi_tx_char_read];		//sende erstes Zeichen
    4386:	e0 91 f9 03 	lds	r30, 0x03F9	; 0x8003f9 <usart_spi_tx_char_read>
    438a:	f0 e0       	ldi	r31, 0x00	; 0
    438c:	e6 54       	subi	r30, 0x46	; 70
    438e:	f9 4f       	sbci	r31, 0xF9	; 249
    4390:	80 81       	ld	r24, Z
    4392:	8e bd       	out	0x2e, r24	; 46

        usart_spi_byte_count++;
    4394:	80 91 f5 03 	lds	r24, 0x03F5	; 0x8003f5 <usart_spi_byte_count>
    4398:	8f 5f       	subi	r24, 0xFF	; 255
    439a:	80 93 f5 03 	sts	0x03F5, r24	; 0x8003f5 <usart_spi_byte_count>
		
		//Flag das aktuell gesendet wird
		usart_spi_tx_buffer_empty = 0;
    439e:	10 92 04 02 	sts	0x0204, r1	; 0x800204 <usart_spi_tx_buffer_empty>
	}
	
#if (USART_SPI_USE_TX_INTERRUPT)
	SPCR |= _BV(SPIE);		//TX ISR aktivieren
    43a2:	8c b5       	in	r24, 0x2c	; 44
    43a4:	80 68       	ori	r24, 0x80	; 128
    43a6:	8c bd       	out	0x2c, r24	; 44
#endif

	return 1;
    43a8:	81 e0       	ldi	r24, 0x01	; 1
}
    43aa:	08 95       	ret

000043ac <USART_SPI_TxBytes>:

void USART_SPI_TxBytes(char *pointer, uint8_t len)
{
    43ac:	1f 93       	push	r17
    43ae:	cf 93       	push	r28
    43b0:	df 93       	push	r29
    43b2:	ec 01       	movw	r28, r24
    43b4:	16 2f       	mov	r17, r22
	while(len)
    43b6:	66 23       	and	r22, r22
    43b8:	39 f0       	breq	.+14     	; 0x43c8 <USART_SPI_TxBytes+0x1c>
	{
		//Warten falls Buffer schon Vollgeschreiben ist
		while(!USART_SPI_TxByte(*pointer)){}
    43ba:	88 81       	ld	r24, Y
    43bc:	bf df       	rcall	.-130    	; 0x433c <USART_SPI_TxByte>
    43be:	88 23       	and	r24, r24
    43c0:	e1 f3       	breq	.-8      	; 0x43ba <USART_SPI_TxBytes+0xe>
		pointer++;
    43c2:	21 96       	adiw	r28, 0x01	; 1
		len--;
    43c4:	11 50       	subi	r17, 0x01	; 1
	return 1;
}

void USART_SPI_TxBytes(char *pointer, uint8_t len)
{
	while(len)
    43c6:	c9 f7       	brne	.-14     	; 0x43ba <USART_SPI_TxBytes+0xe>
		//Warten falls Buffer schon Vollgeschreiben ist
		while(!USART_SPI_TxByte(*pointer)){}
		pointer++;
		len--;
	}
}
    43c8:	df 91       	pop	r29
    43ca:	cf 91       	pop	r28
    43cc:	1f 91       	pop	r17
    43ce:	08 95       	ret

000043d0 <USART_SPI_RxBytes>:
//Edit: Maxi 21.11.2018
void USART_SPI_RxBytes(char *pointer, uint8_t length)
{

	//Flag setzen, das auch gelesen werden soll
	usart_spi_rx_flag = 1;
    43d0:	21 e0       	ldi	r18, 0x01	; 1
    43d2:	20 93 fa 03 	sts	0x03FA, r18	; 0x8003fa <usart_spi_rx_flag>
	
	//Alle Bytes in Buffer legen, gesendet wird durch Interrupt
	USART_SPI_TxBytes(pointer, length);
    43d6:	ea cf       	rjmp	.-44     	; 0x43ac <USART_SPI_TxBytes>
    43d8:	08 95       	ret

000043da <__udivmodhi4>:
    43da:	aa 1b       	sub	r26, r26
    43dc:	bb 1b       	sub	r27, r27
    43de:	51 e1       	ldi	r21, 0x11	; 17
    43e0:	07 c0       	rjmp	.+14     	; 0x43f0 <__udivmodhi4_ep>

000043e2 <__udivmodhi4_loop>:
    43e2:	aa 1f       	adc	r26, r26
    43e4:	bb 1f       	adc	r27, r27
    43e6:	a6 17       	cp	r26, r22
    43e8:	b7 07       	cpc	r27, r23
    43ea:	10 f0       	brcs	.+4      	; 0x43f0 <__udivmodhi4_ep>
    43ec:	a6 1b       	sub	r26, r22
    43ee:	b7 0b       	sbc	r27, r23

000043f0 <__udivmodhi4_ep>:
    43f0:	88 1f       	adc	r24, r24
    43f2:	99 1f       	adc	r25, r25
    43f4:	5a 95       	dec	r21
    43f6:	a9 f7       	brne	.-22     	; 0x43e2 <__udivmodhi4_loop>
    43f8:	80 95       	com	r24
    43fa:	90 95       	com	r25
    43fc:	bc 01       	movw	r22, r24
    43fe:	cd 01       	movw	r24, r26
    4400:	08 95       	ret

00004402 <__udivmodsi4>:
    4402:	a1 e2       	ldi	r26, 0x21	; 33
    4404:	1a 2e       	mov	r1, r26
    4406:	aa 1b       	sub	r26, r26
    4408:	bb 1b       	sub	r27, r27
    440a:	fd 01       	movw	r30, r26
    440c:	0d c0       	rjmp	.+26     	; 0x4428 <__udivmodsi4_ep>

0000440e <__udivmodsi4_loop>:
    440e:	aa 1f       	adc	r26, r26
    4410:	bb 1f       	adc	r27, r27
    4412:	ee 1f       	adc	r30, r30
    4414:	ff 1f       	adc	r31, r31
    4416:	a2 17       	cp	r26, r18
    4418:	b3 07       	cpc	r27, r19
    441a:	e4 07       	cpc	r30, r20
    441c:	f5 07       	cpc	r31, r21
    441e:	20 f0       	brcs	.+8      	; 0x4428 <__udivmodsi4_ep>
    4420:	a2 1b       	sub	r26, r18
    4422:	b3 0b       	sbc	r27, r19
    4424:	e4 0b       	sbc	r30, r20
    4426:	f5 0b       	sbc	r31, r21

00004428 <__udivmodsi4_ep>:
    4428:	66 1f       	adc	r22, r22
    442a:	77 1f       	adc	r23, r23
    442c:	88 1f       	adc	r24, r24
    442e:	99 1f       	adc	r25, r25
    4430:	1a 94       	dec	r1
    4432:	69 f7       	brne	.-38     	; 0x440e <__udivmodsi4_loop>
    4434:	60 95       	com	r22
    4436:	70 95       	com	r23
    4438:	80 95       	com	r24
    443a:	90 95       	com	r25
    443c:	9b 01       	movw	r18, r22
    443e:	ac 01       	movw	r20, r24
    4440:	bd 01       	movw	r22, r26
    4442:	cf 01       	movw	r24, r30
    4444:	08 95       	ret

00004446 <__divmodsi4>:
    4446:	05 2e       	mov	r0, r21
    4448:	97 fb       	bst	r25, 7
    444a:	16 f4       	brtc	.+4      	; 0x4450 <__divmodsi4+0xa>
    444c:	00 94       	com	r0
    444e:	0f d0       	rcall	.+30     	; 0x446e <__negsi2>
    4450:	57 fd       	sbrc	r21, 7
    4452:	05 d0       	rcall	.+10     	; 0x445e <__divmodsi4_neg2>
    4454:	d6 df       	rcall	.-84     	; 0x4402 <__udivmodsi4>
    4456:	07 fc       	sbrc	r0, 7
    4458:	02 d0       	rcall	.+4      	; 0x445e <__divmodsi4_neg2>
    445a:	46 f4       	brtc	.+16     	; 0x446c <__divmodsi4_exit>
    445c:	08 c0       	rjmp	.+16     	; 0x446e <__negsi2>

0000445e <__divmodsi4_neg2>:
    445e:	50 95       	com	r21
    4460:	40 95       	com	r20
    4462:	30 95       	com	r19
    4464:	21 95       	neg	r18
    4466:	3f 4f       	sbci	r19, 0xFF	; 255
    4468:	4f 4f       	sbci	r20, 0xFF	; 255
    446a:	5f 4f       	sbci	r21, 0xFF	; 255

0000446c <__divmodsi4_exit>:
    446c:	08 95       	ret

0000446e <__negsi2>:
    446e:	90 95       	com	r25
    4470:	80 95       	com	r24
    4472:	70 95       	com	r23
    4474:	61 95       	neg	r22
    4476:	7f 4f       	sbci	r23, 0xFF	; 255
    4478:	8f 4f       	sbci	r24, 0xFF	; 255
    447a:	9f 4f       	sbci	r25, 0xFF	; 255
    447c:	08 95       	ret

0000447e <__tablejump2__>:
    447e:	ee 0f       	add	r30, r30
    4480:	ff 1f       	adc	r31, r31
    4482:	88 1f       	adc	r24, r24
    4484:	8b bf       	out	0x3b, r24	; 59
    4486:	07 90       	elpm	r0, Z+
    4488:	f6 91       	elpm	r31, Z
    448a:	e0 2d       	mov	r30, r0
    448c:	19 94       	eijmp

0000448e <__umulhisi3>:
    448e:	a2 9f       	mul	r26, r18
    4490:	b0 01       	movw	r22, r0
    4492:	b3 9f       	mul	r27, r19
    4494:	c0 01       	movw	r24, r0
    4496:	a3 9f       	mul	r26, r19
    4498:	70 0d       	add	r23, r0
    449a:	81 1d       	adc	r24, r1
    449c:	11 24       	eor	r1, r1
    449e:	91 1d       	adc	r25, r1
    44a0:	b2 9f       	mul	r27, r18
    44a2:	70 0d       	add	r23, r0
    44a4:	81 1d       	adc	r24, r1
    44a6:	11 24       	eor	r1, r1
    44a8:	91 1d       	adc	r25, r1
    44aa:	08 95       	ret

000044ac <__usmulhisi3>:
    44ac:	f0 df       	rcall	.-32     	; 0x448e <__umulhisi3>

000044ae <__usmulhisi3_tail>:
    44ae:	b7 ff       	sbrs	r27, 7
    44b0:	08 95       	ret
    44b2:	82 1b       	sub	r24, r18
    44b4:	93 0b       	sbc	r25, r19
    44b6:	08 95       	ret

000044b8 <__muluhisi3>:
    44b8:	ea df       	rcall	.-44     	; 0x448e <__umulhisi3>
    44ba:	a5 9f       	mul	r26, r21
    44bc:	90 0d       	add	r25, r0
    44be:	b4 9f       	mul	r27, r20
    44c0:	90 0d       	add	r25, r0
    44c2:	a4 9f       	mul	r26, r20
    44c4:	80 0d       	add	r24, r0
    44c6:	91 1d       	adc	r25, r1
    44c8:	11 24       	eor	r1, r1
    44ca:	08 95       	ret

000044cc <__umulsidi3>:
    44cc:	e8 94       	clt

000044ce <__umulsidi3_helper>:
    44ce:	df 93       	push	r29
    44d0:	cf 93       	push	r28
    44d2:	fc 01       	movw	r30, r24
    44d4:	db 01       	movw	r26, r22
    44d6:	db df       	rcall	.-74     	; 0x448e <__umulhisi3>
    44d8:	7f 93       	push	r23
    44da:	6f 93       	push	r22
    44dc:	e9 01       	movw	r28, r18
    44de:	9a 01       	movw	r18, r20
    44e0:	ac 01       	movw	r20, r24
    44e2:	bf 93       	push	r27
    44e4:	af 93       	push	r26
    44e6:	3f 93       	push	r19
    44e8:	2f 93       	push	r18
    44ea:	df 01       	movw	r26, r30
    44ec:	d0 df       	rcall	.-96     	; 0x448e <__umulhisi3>
    44ee:	26 f4       	brtc	.+8      	; 0x44f8 <__umulsidi3_helper+0x2a>
    44f0:	6c 1b       	sub	r22, r28
    44f2:	7d 0b       	sbc	r23, r29
    44f4:	82 0b       	sbc	r24, r18
    44f6:	93 0b       	sbc	r25, r19
    44f8:	9e 01       	movw	r18, r28
    44fa:	eb 01       	movw	r28, r22
    44fc:	fc 01       	movw	r30, r24
    44fe:	2b d0       	rcall	.+86     	; 0x4556 <__muldi3_6>
    4500:	af 91       	pop	r26
    4502:	bf 91       	pop	r27
    4504:	2f 91       	pop	r18
    4506:	3f 91       	pop	r19
    4508:	26 d0       	rcall	.+76     	; 0x4556 <__muldi3_6>
    450a:	be 01       	movw	r22, r28
    450c:	cf 01       	movw	r24, r30
    450e:	f9 01       	movw	r30, r18
    4510:	2f 91       	pop	r18
    4512:	3f 91       	pop	r19
    4514:	cf 91       	pop	r28
    4516:	df 91       	pop	r29
    4518:	08 95       	ret

0000451a <__ashrdi3>:
    451a:	97 fb       	bst	r25, 7
    451c:	10 f8       	bld	r1, 0

0000451e <__lshrdi3>:
    451e:	16 94       	lsr	r1
    4520:	00 08       	sbc	r0, r0
    4522:	0f 93       	push	r16
    4524:	08 30       	cpi	r16, 0x08	; 8
    4526:	98 f0       	brcs	.+38     	; 0x454e <__lshrdi3+0x30>
    4528:	08 50       	subi	r16, 0x08	; 8
    452a:	23 2f       	mov	r18, r19
    452c:	34 2f       	mov	r19, r20
    452e:	45 2f       	mov	r20, r21
    4530:	56 2f       	mov	r21, r22
    4532:	67 2f       	mov	r22, r23
    4534:	78 2f       	mov	r23, r24
    4536:	89 2f       	mov	r24, r25
    4538:	90 2d       	mov	r25, r0
    453a:	f4 cf       	rjmp	.-24     	; 0x4524 <__lshrdi3+0x6>
    453c:	05 94       	asr	r0
    453e:	97 95       	ror	r25
    4540:	87 95       	ror	r24
    4542:	77 95       	ror	r23
    4544:	67 95       	ror	r22
    4546:	57 95       	ror	r21
    4548:	47 95       	ror	r20
    454a:	37 95       	ror	r19
    454c:	27 95       	ror	r18
    454e:	0a 95       	dec	r16
    4550:	aa f7       	brpl	.-22     	; 0x453c <__lshrdi3+0x1e>
    4552:	0f 91       	pop	r16
    4554:	08 95       	ret

00004556 <__muldi3_6>:
    4556:	9b df       	rcall	.-202    	; 0x448e <__umulhisi3>
    4558:	46 0f       	add	r20, r22
    455a:	57 1f       	adc	r21, r23
    455c:	c8 1f       	adc	r28, r24
    455e:	d9 1f       	adc	r29, r25
    4560:	08 f4       	brcc	.+2      	; 0x4564 <__muldi3_6+0xe>
    4562:	31 96       	adiw	r30, 0x01	; 1
    4564:	08 95       	ret

00004566 <strcat>:
    4566:	fb 01       	movw	r30, r22
    4568:	dc 01       	movw	r26, r24
    456a:	0d 90       	ld	r0, X+
    456c:	00 20       	and	r0, r0
    456e:	e9 f7       	brne	.-6      	; 0x456a <strcat+0x4>
    4570:	11 97       	sbiw	r26, 0x01	; 1
    4572:	01 90       	ld	r0, Z+
    4574:	0d 92       	st	X+, r0
    4576:	00 20       	and	r0, r0
    4578:	e1 f7       	brne	.-8      	; 0x4572 <strcat+0xc>
    457a:	08 95       	ret

0000457c <strcpy>:
    457c:	fb 01       	movw	r30, r22
    457e:	dc 01       	movw	r26, r24
    4580:	01 90       	ld	r0, Z+
    4582:	0d 92       	st	X+, r0
    4584:	00 20       	and	r0, r0
    4586:	e1 f7       	brne	.-8      	; 0x4580 <strcpy+0x4>
    4588:	08 95       	ret

0000458a <__itoa_ncheck>:
    458a:	bb 27       	eor	r27, r27
    458c:	4a 30       	cpi	r20, 0x0A	; 10
    458e:	31 f4       	brne	.+12     	; 0x459c <__itoa_ncheck+0x12>
    4590:	99 23       	and	r25, r25
    4592:	22 f4       	brpl	.+8      	; 0x459c <__itoa_ncheck+0x12>
    4594:	bd e2       	ldi	r27, 0x2D	; 45
    4596:	90 95       	com	r25
    4598:	81 95       	neg	r24
    459a:	9f 4f       	sbci	r25, 0xFF	; 255
    459c:	30 c0       	rjmp	.+96     	; 0x45fe <__utoa_common>

0000459e <__ltoa_ncheck>:
    459e:	bb 27       	eor	r27, r27
    45a0:	2a 30       	cpi	r18, 0x0A	; 10
    45a2:	51 f4       	brne	.+20     	; 0x45b8 <__ltoa_ncheck+0x1a>
    45a4:	99 23       	and	r25, r25
    45a6:	42 f4       	brpl	.+16     	; 0x45b8 <__ltoa_ncheck+0x1a>
    45a8:	bd e2       	ldi	r27, 0x2D	; 45
    45aa:	90 95       	com	r25
    45ac:	80 95       	com	r24
    45ae:	70 95       	com	r23
    45b0:	61 95       	neg	r22
    45b2:	7f 4f       	sbci	r23, 0xFF	; 255
    45b4:	8f 4f       	sbci	r24, 0xFF	; 255
    45b6:	9f 4f       	sbci	r25, 0xFF	; 255
    45b8:	01 c0       	rjmp	.+2      	; 0x45bc <__ultoa_common>

000045ba <__ultoa_ncheck>:
    45ba:	bb 27       	eor	r27, r27

000045bc <__ultoa_common>:
    45bc:	fa 01       	movw	r30, r20
    45be:	a6 2f       	mov	r26, r22
    45c0:	62 17       	cp	r22, r18
    45c2:	71 05       	cpc	r23, r1
    45c4:	81 05       	cpc	r24, r1
    45c6:	91 05       	cpc	r25, r1
    45c8:	33 0b       	sbc	r19, r19
    45ca:	30 fb       	bst	r19, 0
    45cc:	66 f0       	brts	.+24     	; 0x45e6 <__ultoa_common+0x2a>
    45ce:	aa 27       	eor	r26, r26
    45d0:	66 0f       	add	r22, r22
    45d2:	77 1f       	adc	r23, r23
    45d4:	88 1f       	adc	r24, r24
    45d6:	99 1f       	adc	r25, r25
    45d8:	aa 1f       	adc	r26, r26
    45da:	a2 17       	cp	r26, r18
    45dc:	10 f0       	brcs	.+4      	; 0x45e2 <__ultoa_common+0x26>
    45de:	a2 1b       	sub	r26, r18
    45e0:	63 95       	inc	r22
    45e2:	38 50       	subi	r19, 0x08	; 8
    45e4:	a9 f7       	brne	.-22     	; 0x45d0 <__ultoa_common+0x14>
    45e6:	a0 5d       	subi	r26, 0xD0	; 208
    45e8:	aa 33       	cpi	r26, 0x3A	; 58
    45ea:	08 f0       	brcs	.+2      	; 0x45ee <__ultoa_common+0x32>
    45ec:	a9 5d       	subi	r26, 0xD9	; 217
    45ee:	a1 93       	st	Z+, r26
    45f0:	36 f7       	brtc	.-52     	; 0x45be <__ultoa_common+0x2>
    45f2:	b1 11       	cpse	r27, r1
    45f4:	b1 93       	st	Z+, r27
    45f6:	10 82       	st	Z, r1
    45f8:	ca 01       	movw	r24, r20
    45fa:	19 c0       	rjmp	.+50     	; 0x462e <strrev>

000045fc <__utoa_ncheck>:
    45fc:	bb 27       	eor	r27, r27

000045fe <__utoa_common>:
    45fe:	fb 01       	movw	r30, r22
    4600:	55 27       	eor	r21, r21
    4602:	aa 27       	eor	r26, r26
    4604:	88 0f       	add	r24, r24
    4606:	99 1f       	adc	r25, r25
    4608:	aa 1f       	adc	r26, r26
    460a:	a4 17       	cp	r26, r20
    460c:	10 f0       	brcs	.+4      	; 0x4612 <__utoa_common+0x14>
    460e:	a4 1b       	sub	r26, r20
    4610:	83 95       	inc	r24
    4612:	50 51       	subi	r21, 0x10	; 16
    4614:	b9 f7       	brne	.-18     	; 0x4604 <__utoa_common+0x6>
    4616:	a0 5d       	subi	r26, 0xD0	; 208
    4618:	aa 33       	cpi	r26, 0x3A	; 58
    461a:	08 f0       	brcs	.+2      	; 0x461e <__utoa_common+0x20>
    461c:	a9 5d       	subi	r26, 0xD9	; 217
    461e:	a1 93       	st	Z+, r26
    4620:	00 97       	sbiw	r24, 0x00	; 0
    4622:	79 f7       	brne	.-34     	; 0x4602 <__utoa_common+0x4>
    4624:	b1 11       	cpse	r27, r1
    4626:	b1 93       	st	Z+, r27
    4628:	11 92       	st	Z+, r1
    462a:	cb 01       	movw	r24, r22
    462c:	00 c0       	rjmp	.+0      	; 0x462e <strrev>

0000462e <strrev>:
    462e:	dc 01       	movw	r26, r24
    4630:	fc 01       	movw	r30, r24
    4632:	67 2f       	mov	r22, r23
    4634:	71 91       	ld	r23, Z+
    4636:	77 23       	and	r23, r23
    4638:	e1 f7       	brne	.-8      	; 0x4632 <strrev+0x4>
    463a:	32 97       	sbiw	r30, 0x02	; 2
    463c:	04 c0       	rjmp	.+8      	; 0x4646 <strrev+0x18>
    463e:	7c 91       	ld	r23, X
    4640:	6d 93       	st	X+, r22
    4642:	70 83       	st	Z, r23
    4644:	62 91       	ld	r22, -Z
    4646:	ae 17       	cp	r26, r30
    4648:	bf 07       	cpc	r27, r31
    464a:	c8 f3       	brcs	.-14     	; 0x463e <strrev+0x10>
    464c:	08 95       	ret

0000464e <eeprom_read_block>:
    464e:	dc 01       	movw	r26, r24
    4650:	cb 01       	movw	r24, r22

00004652 <eeprom_read_blraw>:
    4652:	fc 01       	movw	r30, r24
    4654:	f9 99       	sbic	0x1f, 1	; 31
    4656:	fe cf       	rjmp	.-4      	; 0x4654 <eeprom_read_blraw+0x2>
    4658:	06 c0       	rjmp	.+12     	; 0x4666 <eeprom_read_blraw+0x14>
    465a:	f2 bd       	out	0x22, r31	; 34
    465c:	e1 bd       	out	0x21, r30	; 33
    465e:	f8 9a       	sbi	0x1f, 0	; 31
    4660:	31 96       	adiw	r30, 0x01	; 1
    4662:	00 b4       	in	r0, 0x20	; 32
    4664:	0d 92       	st	X+, r0
    4666:	41 50       	subi	r20, 0x01	; 1
    4668:	50 40       	sbci	r21, 0x00	; 0
    466a:	b8 f7       	brcc	.-18     	; 0x465a <eeprom_read_blraw+0x8>
    466c:	08 95       	ret

0000466e <eeprom_read_byte>:
    466e:	f9 99       	sbic	0x1f, 1	; 31
    4670:	fe cf       	rjmp	.-4      	; 0x466e <eeprom_read_byte>
    4672:	92 bd       	out	0x22, r25	; 34
    4674:	81 bd       	out	0x21, r24	; 33
    4676:	f8 9a       	sbi	0x1f, 0	; 31
    4678:	99 27       	eor	r25, r25
    467a:	80 b5       	in	r24, 0x20	; 32
    467c:	08 95       	ret

0000467e <eeprom_read_dword>:
    467e:	a6 e1       	ldi	r26, 0x16	; 22
    4680:	b0 e0       	ldi	r27, 0x00	; 0
    4682:	44 e0       	ldi	r20, 0x04	; 4
    4684:	50 e0       	ldi	r21, 0x00	; 0
    4686:	e5 cf       	rjmp	.-54     	; 0x4652 <eeprom_read_blraw>

00004688 <eeprom_read_word>:
    4688:	a8 e1       	ldi	r26, 0x18	; 24
    468a:	b0 e0       	ldi	r27, 0x00	; 0
    468c:	42 e0       	ldi	r20, 0x02	; 2
    468e:	50 e0       	ldi	r21, 0x00	; 0
    4690:	e0 cf       	rjmp	.-64     	; 0x4652 <eeprom_read_blraw>

00004692 <eeprom_write_block>:
    4692:	dc 01       	movw	r26, r24
    4694:	cb 01       	movw	r24, r22
    4696:	02 c0       	rjmp	.+4      	; 0x469c <eeprom_write_block+0xa>
    4698:	2d 91       	ld	r18, X+
    469a:	05 d0       	rcall	.+10     	; 0x46a6 <eeprom_write_r18>
    469c:	41 50       	subi	r20, 0x01	; 1
    469e:	50 40       	sbci	r21, 0x00	; 0
    46a0:	d8 f7       	brcc	.-10     	; 0x4698 <eeprom_write_block+0x6>
    46a2:	08 95       	ret

000046a4 <eeprom_write_byte>:
    46a4:	26 2f       	mov	r18, r22

000046a6 <eeprom_write_r18>:
    46a6:	f9 99       	sbic	0x1f, 1	; 31
    46a8:	fe cf       	rjmp	.-4      	; 0x46a6 <eeprom_write_r18>
    46aa:	1f ba       	out	0x1f, r1	; 31
    46ac:	92 bd       	out	0x22, r25	; 34
    46ae:	81 bd       	out	0x21, r24	; 33
    46b0:	20 bd       	out	0x20, r18	; 32
    46b2:	0f b6       	in	r0, 0x3f	; 63
    46b4:	f8 94       	cli
    46b6:	fa 9a       	sbi	0x1f, 2	; 31
    46b8:	f9 9a       	sbi	0x1f, 1	; 31
    46ba:	0f be       	out	0x3f, r0	; 63
    46bc:	01 96       	adiw	r24, 0x01	; 1
    46be:	08 95       	ret

000046c0 <eeprom_write_dword>:
    46c0:	24 2f       	mov	r18, r20
    46c2:	f1 df       	rcall	.-30     	; 0x46a6 <eeprom_write_r18>
    46c4:	25 2f       	mov	r18, r21
    46c6:	ef df       	rcall	.-34     	; 0x46a6 <eeprom_write_r18>
    46c8:	00 c0       	rjmp	.+0      	; 0x46ca <eeprom_write_word>

000046ca <eeprom_write_word>:
    46ca:	ec df       	rcall	.-40     	; 0x46a4 <eeprom_write_byte>
    46cc:	27 2f       	mov	r18, r23
    46ce:	eb cf       	rjmp	.-42     	; 0x46a6 <eeprom_write_r18>

000046d0 <_exit>:
    46d0:	f8 94       	cli

000046d2 <__stop_program>:
    46d2:	ff cf       	rjmp	.-2      	; 0x46d2 <__stop_program>
